 V8_Net_Proxy_x64

 Timestamp is 54ad1fcc (Wed Jan 07 07:00:12 2015)

 Preferred load address is 0000000180000000

 Start         Length     Name                   Class
 0001:00000000 0000007cH .text$di                CODE
 0001:00000080 0000cd70H .text$mn                CODE
 0001:0000cdf0 00001420H .text$x                 CODE
 0001:0000e210 0000008fH .text$yd                CODE
 0002:00000000 00000560H .idata$5                DATA
 0002:00000560 00000008H .CRT$XCA                DATA
 0002:00000568 00000020H .CRT$XCU                DATA
 0002:00000588 00000008H .CRT$XCZ                DATA
 0002:00000590 00000008H .CRT$XIA                DATA
 0002:00000598 00000008H .CRT$XIAA               DATA
 0002:000005a0 00000008H .CRT$XIC                DATA
 0002:000005a8 00000008H .CRT$XIZ                DATA
 0002:000005b0 00001590H .rdata                  DATA
 0002:00001b40 00000080H .rdata$debug            DATA
 0002:00001bc0 00000074H .rdata$r                DATA
 0002:00001c38 00000008H .rtc$IAA                DATA
 0002:00001c40 00000008H .rtc$IZZ                DATA
 0002:00001c48 00000008H .rtc$TAA                DATA
 0002:00001c50 00000008H .rtc$TZZ                DATA
 0002:00001c60 000038dcH .xdata                  DATA
 0002:00005540 00000054H .xdata$x                DATA
 0002:000055a0 0000077dH .edata                  DATA
 0002:00005d20 00000050H .idata$2                DATA
 0002:00005d70 00000014H .idata$3                DATA
 0002:00005d88 00000560H .idata$4                DATA
 0002:000062e8 0000203aH .idata$6                DATA
 0003:00000000 00000034H .data                   DATA
 0003:00000038 00000044H .data$r                 DATA
 0003:00000080 000007b8H .bss                    DATA
 0004:00000000 00000f18H .pdata                  DATA
 0005:00000000 000000a0H .rsrc$01                DATA
 0005:000000a0 00000500H .rsrc$02                DATA

  Address         Publics by Value              Rva+Base               Lib:Object

 0000:00000000       ___safe_se_handler_count   0000000000000000     <absolute>
 0000:00000000       __guard_fids_count         0000000000000000     <absolute>
 0000:00000000       ___safe_se_handler_table   0000000000000000     <absolute>
 0000:00000000       __guard_fids_table         0000000000000000     <absolute>
 0000:00000000       __guard_flags              0000000000000000     <absolute>
 0000:00000000       __ImageBase                0000000180000000     <linker-defined>
 0001:00000080       ??1Scope@Context@v8@@QEAA@XZ 0000000180001080 f i Exports.obj
 0001:00000090       CreateV8EngineProxy        0000000180001090 f   Exports.obj
 0001:000000d0       DestroyV8EngineProxy       00000001800010d0 f   Exports.obj
 0001:00000100       RegisterGCCallback         0000000180001100 f   Exports.obj
 0001:000001d0       ForceGC                    00000001800011d0 f   Exports.obj
 0001:00000280       DoIdleNotification         0000000180001280 f   Exports.obj
 0001:00000290       V8Execute                  0000000180001290 f   Exports.obj
 0001:00000370       V8Compile                  0000000180001370 f   Exports.obj
 0001:00000450       V8ExecuteCompiledScript    0000000180001450 f   Exports.obj
 0001:00000590       CreateObjectTemplateProxy  0000000180001590 f   Exports.obj
 0001:00000630       DeleteObjectTemplateProxy  0000000180001630 f   Exports.obj
 0001:000006c0       SetGlobalObjectTemplate    00000001800016c0 f   Exports.obj
 0001:00000750       RegisterNamedPropertyHandlers 0000000180001750 f   Exports.obj
 0001:00000820       RegisterIndexedPropertyHandlers 0000000180001820 f   Exports.obj
 0001:000008f0       UnregisterNamedPropertyHandlers 00000001800018f0 f   Exports.obj
 0001:000009d0       UnregisterIndexedPropertyHandlers 00000001800019d0 f   Exports.obj
 0001:00000ab0       RegisterInvokeHandler      0000000180001ab0 f   Exports.obj
 0001:00000b90       CreateObjectFromTemplate   0000000180001b90 f   Exports.obj
 0001:00000c70       ConnectObject              0000000180001c70 f   Exports.obj
 0001:00000e60       GetObjectPrototype         0000000180001e60 f   Exports.obj
 0001:00000fb0       Call                       0000000180001fb0 f   Exports.obj
 0001:000010c0       SetObjectPropertyByName    00000001800020c0 f   Exports.obj
 0001:000012a0       SetObjectPropertyByIndex   00000001800022a0 f   Exports.obj
 0001:00001450       GetObjectPropertyByName    0000000180002450 f   Exports.obj
 0001:000015e0       GetObjectPropertyByIndex   00000001800025e0 f   Exports.obj
 0001:00001740       DeleteObjectPropertyByName 0000000180002740 f   Exports.obj
 0001:000018b0       DeleteObjectPropertyByIndex 00000001800028b0 f   Exports.obj
 0001:000019f0       SetObjectAccessor          00000001800029f0 f   Exports.obj
 0001:00001ca0       SetObjectTemplateAccessor  0000000180002ca0 f   Exports.obj
 0001:00001dc0       SetObjectTemplateProperty  0000000180002dc0 f   Exports.obj
 0001:00001eb0       GetPropertyNames           0000000180002eb0 f   Exports.obj
 0001:00002000       GetOwnPropertyNames        0000000180003000 f   Exports.obj
 0001:00002150       GetPropertyAttributes      0000000180003150 f   Exports.obj
 0001:000022c0       GetArrayLength             00000001800032c0 f   Exports.obj
 0001:00002400       CreateFunctionTemplateProxy 0000000180003400 f   Exports.obj
 0001:000024c0       DeleteFunctionTemplateProxy 00000001800034c0 f   Exports.obj
 0001:00002550       GetFunctionInstanceTemplateProxy 0000000180003550 f   Exports.obj
 0001:00002610       GetFunctionPrototypeTemplateProxy 0000000180003610 f   Exports.obj
 0001:000026d0       GetFunction                00000001800036d0 f   Exports.obj
 0001:000027d0       CreateFunctionInstance     00000001800037d0 f   Exports.obj
 0001:000028c0       SetFunctionTemplateProperty 00000001800038c0 f   Exports.obj
 0001:000029b0       CreateBoolean              00000001800039b0 f   Exports.obj
 0001:00002aa0       CreateInteger              0000000180003aa0 f   Exports.obj
 0001:00002b80       CreateNumber               0000000180003b80 f   Exports.obj
 0001:00002c70       CreateString               0000000180003c70 f   Exports.obj
 0001:00002d70       CreateDate                 0000000180003d70 f   Exports.obj
 0001:00002e60       CreateObject               0000000180003e60 f   Exports.obj
 0001:00002f60       CreateArray                0000000180003f60 f   Exports.obj
 0001:00003040       CreateStringArray          0000000180004040 f   Exports.obj
 0001:00003120       CreateNullValue            0000000180004120 f   Exports.obj
 0001:000031f0       CreateError                00000001800041f0 f   Exports.obj
 0001:000032d0       MakeWeakHandle             00000001800042d0 f   Exports.obj
 0001:000033c0       MakeStrongHandle           00000001800043c0 f   Exports.obj
 0001:000034a0       DisposeHandleProxy         00000001800044a0 f   Exports.obj
 0001:00003570       UpdateHandleValue          0000000180004570 f   Exports.obj
 0001:00003640       GetHandleManagedObjectID   0000000180004640 f   Exports.obj
 0001:00003720       CreateHandleProxyTest      0000000180004720 f   Exports.obj
 0001:00003750       CreateV8EngineProxyTest    0000000180004750 f   Exports.obj
 0001:00003780       CreateObjectTemplateProxyTest 0000000180004780 f   Exports.obj
 0001:000037b0       CreateFunctionTemplateProxyTest 00000001800047b0 f   Exports.obj
 0001:000037e0       DeleteTestData             00000001800047e0 f   Exports.obj
 0001:000038b0       ??0FunctionTemplateProxy@@QEAA@PEAVV8EngineProxy@@PEAGP6APEAUHandleProxy@@H_NPEAU2@PEAPEAU2@I@Z@Z 00000001800048b0 f   FunctionTemplateProxy.obj
 0001:00003b20       ??1FunctionTemplateProxy@@QEAA@XZ 0000000180004b20 f   FunctionTemplateProxy.obj
 0001:00003c70       ?InvocationCallbackProxy@FunctionTemplateProxy@@SAXAEBV?$FunctionCallbackInfo@VValue@v8@@@v8@@@Z 0000000180004c70 f   FunctionTemplateProxy.obj
 0001:00003e90       ?CreateInstance@FunctionTemplateProxy@@QEAAPEAUHandleProxy@@HHPEAPEAU2@@Z 0000000180004e90 f   FunctionTemplateProxy.obj
 0001:00004080       ?Set@FunctionTemplateProxy@@QEAAXPEBGPEAUHandleProxy@@W4PropertyAttribute@v8@@@Z 0000000180005080 f   FunctionTemplateProxy.obj
 0001:00004130       ??1?$CopyablePersistent@VScript@v8@@@@QEAA@XZ 0000000180005130 f i HandleProxy.obj
 0001:00004130       ??1?$CopyablePersistent@VObject@v8@@@@QEAA@XZ 0000000180005130 f i V8EngineProxy.obj
 0001:00004130       ??1?$CopyablePersistent@VValue@v8@@@@QEAA@XZ 0000000180005130 f i HandleProxy.obj
 0001:00004130       ??1?$CopyablePersistent@VFunctionTemplate@v8@@@@QEAA@XZ 0000000180005130 f i FunctionTemplateProxy.obj
 0001:00004130       ??1?$CopyablePersistent@VObjectTemplate@v8@@@@QEAA@XZ 0000000180005130 f i ObjectTemplateProxy.obj
 0001:00004130       ??1?$CopyablePersistent@VContext@v8@@@@QEAA@XZ 0000000180005130 f i V8EngineProxy.obj
 0001:00004180       ??1?$Persistent@VFunctionTemplate@v8@@U?$CopyablePersistentTraits@VFunctionTemplate@v8@@@2@@v8@@QEAA@XZ 0000000180005180 f i FunctionTemplateProxy.obj
 0001:00004180       ??1?$Persistent@VObjectTemplate@v8@@U?$CopyablePersistentTraits@VObjectTemplate@v8@@@2@@v8@@QEAA@XZ 0000000180005180 f i ObjectTemplateProxy.obj
 0001:00004180       ??1?$Persistent@VObject@v8@@U?$CopyablePersistentTraits@VObject@v8@@@2@@v8@@QEAA@XZ 0000000180005180 f i V8EngineProxy.obj
 0001:00004180       ??1?$Persistent@VScript@v8@@U?$CopyablePersistentTraits@VScript@v8@@@2@@v8@@QEAA@XZ 0000000180005180 f i HandleProxy.obj
 0001:00004180       ??1?$Persistent@VValue@v8@@U?$CopyablePersistentTraits@VValue@v8@@@2@@v8@@QEAA@XZ 0000000180005180 f i HandleProxy.obj
 0001:00004180       ??1?$Persistent@VContext@v8@@U?$CopyablePersistentTraits@VContext@v8@@@2@@v8@@QEAA@XZ 0000000180005180 f i V8EngineProxy.obj
 0001:000041b0       ??1HandleProxy@@IEAA@XZ    00000001800051b0 f   HandleProxy.obj
 0001:00004270       ?_Dispose@HandleProxy@@IEAA_N_N@Z 0000000180005270 f   HandleProxy.obj
 0001:00004370       ?_ClearHandleValue@HandleProxy@@IEAAXXZ 0000000180005370 f   HandleProxy.obj
 0001:000043e0       ?SetHandle@HandleProxy@@IEAAPEAU1@V?$Handle@VScript@v8@@@v8@@@Z 00000001800053e0 f   HandleProxy.obj
 0001:00004510       ?SetHandle@HandleProxy@@IEAAPEAU1@V?$Handle@VValue@v8@@@v8@@@Z 0000000180005510 f   HandleProxy.obj
 0001:00004990       ?GetManagedObjectID@HandleProxy@@QEAAHXZ 0000000180005990 f   HandleProxy.obj
 0001:00004b80       ?_RevivableCallback@HandleProxy@@CAXAEBV?$WeakCallbackData@VValue@v8@@UHandleProxy@@@v8@@@Z 0000000180005b80 f   HandleProxy.obj
 0001:00004bc0       ?UpdateValue@HandleProxy@@QEAAXXZ 0000000180005bc0 f   HandleProxy.obj
 0001:00004db0       ??C?$CopyablePersistent@VValue@v8@@@@QEBAPEAVValue@v8@@XZ 0000000180005db0 f i HandleProxy.obj
 0001:00004df0       ??1?$lock_guard@Vrecursive_mutex@std@@@std@@QEAA@XZ 0000000180005df0 f i HandleProxy.obj
 0001:00004e20       ??0ObjectTemplateProxy@@QEAA@PEAVV8EngineProxy@@@Z 0000000180005e20 f   ObjectTemplateProxy.obj
 0001:00004f70       ??0ObjectTemplateProxy@@QEAA@PEAVV8EngineProxy@@V?$Local@VObjectTemplate@v8@@@v8@@@Z 0000000180005f70 f   ObjectTemplateProxy.obj
 0001:000050b0       ??1ObjectTemplateProxy@@QEAA@XZ 00000001800060b0 f   ObjectTemplateProxy.obj
 0001:000051f0       ?RegisterNamedPropertyHandlers@ObjectTemplateProxy@@QEAAXP6APEAUHandleProxy@@PEAGAEBUManagedAccessorInfo@@@ZP6APEAU2@0PEAU2@1@ZP6A?AW4PropertyAttribute@v8@@01@ZP6AH01@ZP6APEAU2@1@Z@Z 00000001800061f0 f   ObjectTemplateProxy.obj
 0001:00005280       ?RegisterIndexedPropertyHandlers@ObjectTemplateProxy@@QEAAXP6APEAUHandleProxy@@IAEBUManagedAccessorInfo@@@ZP6APEAU2@IPEAU2@0@ZP6A?AW4PropertyAttribute@v8@@I0@ZP6AHI0@ZP6APEAU2@0@Z@Z 0000000180006280 f   ObjectTemplateProxy.obj
 0001:00005310       ?GetProperty@ObjectTemplateProxy@@SAXV?$Local@VString@v8@@@v8@@AEBV?$PropertyCallbackInfo@VValue@v8@@@3@@Z 0000000180006310 f   ObjectTemplateProxy.obj
 0001:00005580       ?SetProperty@ObjectTemplateProxy@@SAXV?$Local@VString@v8@@@v8@@V?$Local@VValue@v8@@@3@AEBV?$PropertyCallbackInfo@VValue@v8@@@3@@Z 0000000180006580 f   ObjectTemplateProxy.obj
 0001:000057f0       ?GetPropertyAttributes@ObjectTemplateProxy@@SAXV?$Local@VString@v8@@@v8@@AEBV?$PropertyCallbackInfo@VInteger@v8@@@3@@Z 00000001800067f0 f   ObjectTemplateProxy.obj
 0001:000059b0       ?DeleteProperty@ObjectTemplateProxy@@SAXV?$Local@VString@v8@@@v8@@AEBV?$PropertyCallbackInfo@VBoolean@v8@@@3@@Z 00000001800069b0 f   ObjectTemplateProxy.obj
 0001:00005b80       ?GetPropertyNames@ObjectTemplateProxy@@SAXAEBV?$PropertyCallbackInfo@VArray@v8@@@v8@@@Z 0000000180006b80 f   ObjectTemplateProxy.obj
 0001:00005dc0       ?GetProperty@ObjectTemplateProxy@@SAXIAEBV?$PropertyCallbackInfo@VValue@v8@@@v8@@@Z 0000000180006dc0 f   ObjectTemplateProxy.obj
 0001:00005fe0       ?SetProperty@ObjectTemplateProxy@@SAXIV?$Local@VValue@v8@@@v8@@AEBV?$PropertyCallbackInfo@VValue@v8@@@3@@Z 0000000180006fe0 f   ObjectTemplateProxy.obj
 0001:00006220       ?GetPropertyAttributes@ObjectTemplateProxy@@SAXIAEBV?$PropertyCallbackInfo@VInteger@v8@@@v8@@@Z 0000000180007220 f   ObjectTemplateProxy.obj
 0001:000063a0       ?DeleteProperty@ObjectTemplateProxy@@SAXIAEBV?$PropertyCallbackInfo@VBoolean@v8@@@v8@@@Z 00000001800073a0 f   ObjectTemplateProxy.obj
 0001:00006520       ?GetPropertyIndices@ObjectTemplateProxy@@SAXAEBV?$PropertyCallbackInfo@VArray@v8@@@v8@@@Z 0000000180007520 f   ObjectTemplateProxy.obj
 0001:00006760       ?CreateObject@ObjectTemplateProxy@@QEAAPEAUHandleProxy@@H@Z 0000000180007760 f   ObjectTemplateProxy.obj
 0001:000067f0       ?AccessorGetterCallbackProxy@ObjectTemplateProxy@@SAXV?$Local@VString@v8@@@v8@@AEBV?$PropertyCallbackInfo@VValue@v8@@@3@@Z 00000001800077f0 f   ObjectTemplateProxy.obj
 0001:000069a0       ?AccessorSetterCallbackProxy@ObjectTemplateProxy@@SAXV?$Local@VString@v8@@@v8@@V?$Local@VValue@v8@@@3@AEBV?$PropertyCallbackInfo@X@3@@Z 00000001800079a0 f   ObjectTemplateProxy.obj
 0001:00006b60       ?SetAccessor@ObjectTemplateProxy@@QEAAXHPEBGP6APEAUHandleProxy@@PEAU2@PEAG@ZP6APEAU2@121@ZW4AccessControl@v8@@W4PropertyAttribute@4@@Z 0000000180007b60 f   ObjectTemplateProxy.obj
 0001:00006cc0       ?Set@ObjectTemplateProxy@@QEAAXPEBGPEAUHandleProxy@@W4PropertyAttribute@v8@@@Z 0000000180007cc0 f   ObjectTemplateProxy.obj
 0001:00006d70       ?_Destroy@?$vector@IV?$allocator@_N@std@@@std@@IEAAXPEAI0@Z 0000000180007d70 f i V8EngineProxy.obj
 0001:00006d70       ??3@YAXPEAX0@Z             0000000180007d70 f i V8EngineProxy.obj
 0001:00006d80       ??1_Mutex_base@std@@QEAA@XZ 0000000180007d80 f i V8EngineProxy.obj
 0001:00006d90       ??0_StringItem@@QEAA@PEAVV8EngineProxy@@PEAVString@v8@@@Z 0000000180007d90 f   V8EngineProxy.obj
 0001:00006e00       ??0V8EngineProxy@@QEAA@_NP6AXXZH@Z 0000000180007e00 f   V8EngineProxy.obj
 0001:00007080       ??1recursive_mutex@std@@QEAA@XZ 0000000180008080 f i V8EngineProxy.obj
 0001:000070a0       ??1V8EngineProxy@@QEAA@XZ  00000001800080a0 f   V8EngineProxy.obj
 0001:000073d0       ?GetNativeString@V8EngineProxy@@QEAA?AU_StringItem@@PEAVString@v8@@@Z 00000001800083d0 f   V8EngineProxy.obj
 0001:00007500       ?GetHandleProxy@V8EngineProxy@@QEAAPEAUHandleProxy@@V?$Handle@VValue@v8@@@v8@@@Z 0000000180008500 f   V8EngineProxy.obj
 0001:000076e0       ?DisposeHandleProxy@V8EngineProxy@@QEAAXPEAUHandleProxy@@@Z 00000001800086e0 f   V8EngineProxy.obj
 0001:00007770       ?SetGlobalObjectTemplate@V8EngineProxy@@QEAAPEAUHandleProxy@@PEAVObjectTemplateProxy@@@Z 0000000180008770 f   V8EngineProxy.obj
 0001:00007970       ?GetErrorMessage@V8EngineProxy@@SA?AV?$Local@VString@v8@@@v8@@AEAVTryCatch@3@@Z 0000000180008970 f   V8EngineProxy.obj
 0001:00007d60       ?Execute@V8EngineProxy@@QEAAPEAUHandleProxy@@PEBGPEAG@Z 0000000180008d60 f   V8EngineProxy.obj
 0001:00007e80       ?Execute@V8EngineProxy@@QEAAPEAUHandleProxy@@V?$Handle@VScript@v8@@@v8@@@Z 0000000180008e80 f   V8EngineProxy.obj
 0001:00007f40       ?Compile@V8EngineProxy@@QEAAPEAUHandleProxy@@PEBGPEAG@Z 0000000180008f40 f   V8EngineProxy.obj
 0001:00008090       ?Call@V8EngineProxy@@QEAAPEAUHandleProxy@@PEAU2@PEBG0GPEAPEAU2@@Z 0000000180009090 f   V8EngineProxy.obj
 0001:000083c0       ?CreateError@V8EngineProxy@@QEAAPEAUHandleProxy@@PEBGW4JSValueType@@@Z 00000001800093c0 f   V8EngineProxy.obj
 0001:00008450       ?CreateArray@V8EngineProxy@@QEAAPEAUHandleProxy@@PEAPEAU2@G@Z 0000000180009450 f   V8EngineProxy.obj
 0001:00008500       ?CreateArray@V8EngineProxy@@QEAAPEAUHandleProxy@@PEAPEAGG@Z 0000000180009500 f   V8EngineProxy.obj
 0001:00008770       ?resize@?$vector@_NV?$allocator@_N@std@@@std@@QEAAX_K_N@Z 0000000180009770 f i V8EngineProxy.obj
 0001:000088f0       ?clear@?$vector@_NV?$allocator@_N@std@@@std@@QEAAXXZ 00000001800098f0 f i V8EngineProxy.obj
 0001:00008990       ??1?$vector@U_StringItem@@V?$allocator@U_StringItem@@@std@@@std@@QEAA@XZ 0000000180009990 f i V8EngineProxy.obj
 0001:00008990       ??1?$vector@PEAVWorkerThread@platform@v8@@V?$allocator@PEAVWorkerThread@platform@v8@@@std@@@std@@QEAA@XZ 0000000180009990 f i v8_libplatform:default-platform.obj
 0001:00008990       ??1?$vector@PEAUHandleProxy@@V?$allocator@PEAUHandleProxy@@@std@@@std@@QEAA@XZ 0000000180009990 f i V8EngineProxy.obj
 0001:00008990       ??1?$vector@HV?$allocator@H@std@@@std@@QEAA@XZ 0000000180009990 f i V8EngineProxy.obj
 0001:000089c0       ?push_back@?$vector@U_StringItem@@V?$allocator@U_StringItem@@@std@@@std@@QEAAXAEBU_StringItem@@@Z 00000001800099c0 f i V8EngineProxy.obj
 0001:00008a90       ?push_back@?$vector@HV?$allocator@H@std@@@std@@QEAAXAEBH@Z 0000000180009a90 f i V8EngineProxy.obj
 0001:00008b20       ?erase@?$vector@_NV?$allocator@_N@std@@@std@@QEAA?AV?$_Vb_iterator@U?$_Wrap_alloc@V?$allocator@I@std@@@std@@@2@V?$_Vb_const_iterator@U?$_Wrap_alloc@V?$allocator@I@std@@@std@@@2@0@Z 0000000180009b20 f i V8EngineProxy.obj
 0001:00008d90       ?_Insert_n@?$vector@_NV?$allocator@_N@std@@@std@@QEAA?AV?$_Vb_iterator@U?$_Wrap_alloc@V?$allocator@I@std@@@std@@@2@V?$_Vb_const_iterator@U?$_Wrap_alloc@V?$allocator@I@std@@@std@@@2@_KAEB_N@Z 0000000180009d90 f i V8EngineProxy.obj
 0001:00008f50       ?_Trim@?$vector@_NV?$allocator@_N@std@@@std@@QEAAX_K@Z 0000000180009f50 f i V8EngineProxy.obj
 0001:00009020       ??1?$_Vb_val@V?$allocator@_N@std@@@std@@QEAA@XZ 000000018000a020 f i V8EngineProxy.obj
 0001:00009070       ?_Construct_n@?$vector@U_StringItem@@V?$allocator@U_StringItem@@@std@@@std@@QEAAX_KPEBU_StringItem@@@Z 000000018000a070 f i V8EngineProxy.obj
 0001:00009100       ?_Reserve@?$vector@U_StringItem@@V?$allocator@U_StringItem@@@std@@@std@@IEAAX_K@Z 000000018000a100 f i V8EngineProxy.obj
 0001:000091d0       ?_Construct_n@?$vector@PEAUHandleProxy@@V?$allocator@PEAUHandleProxy@@@std@@@std@@QEAAX_KPEBQEAUHandleProxy@@@Z 000000018000a1d0 f i V8EngineProxy.obj
 0001:00009270       ?_Reserve@?$vector@PEAUHandleProxy@@V?$allocator@PEAUHandleProxy@@@std@@@std@@IEAAX_K@Z 000000018000a270 f i V8EngineProxy.obj
 0001:00009300       ?_Construct_n@?$vector@HV?$allocator@H@std@@@std@@QEAAX_KPEBH@Z 000000018000a300 f i V8EngineProxy.obj
 0001:000093a0       ?_Reserve@?$vector@HV?$allocator@H@std@@@std@@IEAAX_K@Z 000000018000a3a0 f i V8EngineProxy.obj
 0001:00009430       ?_Insert_x@?$vector@_NV?$allocator@_N@std@@@std@@QEAA_KV?$_Vb_const_iterator@U?$_Wrap_alloc@V?$allocator@I@std@@@std@@@2@_K@Z 000000018000a430 f i V8EngineProxy.obj
 0001:00009650       ?_Tidy@?$vector@IV?$allocator@_N@std@@@std@@IEAAXXZ 000000018000a650 f i V8EngineProxy.obj
 0001:00009650       ??1?$vector@IV?$allocator@_N@std@@@std@@QEAA@XZ 000000018000a650 f i V8EngineProxy.obj
 0001:00009690       ?_Reallocate@?$vector@U_StringItem@@V?$allocator@U_StringItem@@@std@@@std@@IEAAX_K@Z 000000018000a690 f i V8EngineProxy.obj
 0001:00009770       ?_Reallocate@?$vector@PEAUHandleProxy@@V?$allocator@PEAUHandleProxy@@@std@@@std@@IEAAX_K@Z 000000018000a770 f i V8EngineProxy.obj
 0001:00009840       ?_Reallocate@?$vector@HV?$allocator@H@std@@@std@@IEAAX_K@Z 000000018000a840 f i V8EngineProxy.obj
 0001:00009910       ?_Construct_n@?$vector@IV?$allocator@_N@std@@@std@@QEAAX_KPEBI@Z 000000018000a910 f i V8EngineProxy.obj
 0001:00009980       ?resize@?$vector@IV?$allocator@_N@std@@@std@@QEAAX_KAEBI@Z 000000018000a980 f i V8EngineProxy.obj
 0001:00009a60       ?_Buy@?$vector@IV?$allocator@_N@std@@@std@@IEAA_N_K@Z 000000018000aa60 f i V8EngineProxy.obj
 0001:00009af0       ?_Reserve@?$vector@IV?$allocator@_N@std@@@std@@IEAAX_K@Z 000000018000aaf0 f i V8EngineProxy.obj
 0001:00009b90       ?_Reallocate@?$vector@IV?$allocator@_N@std@@@std@@IEAAX_K@Z 000000018000ab90 f i V8EngineProxy.obj
 0001:00009c70       ??0?$_Wrap_alloc@V?$allocator@I@std@@@std@@QEAA@XZ 000000018000ac70 f i V8EngineProxy.obj
 0001:00009c80       ??$_Uninit_fill_n@PEAU_StringItem@@_KU1@V?$allocator@U_StringItem@@@std@@U1@@std@@YAXPEAU_StringItem@@_KPEBU1@AEAU?$_Wrap_alloc@V?$allocator@U_StringItem@@@std@@@0@0U_Nonscalar_ptr_iterator_tag@0@@Z 000000018000ac80 f i V8EngineProxy.obj
 0001:00009cd0       ??$_Uninit_move@PEAU_StringItem@@PEAU1@V?$allocator@U_StringItem@@@std@@U1@@std@@YAPEAU_StringItem@@PEAU1@00AEAU?$_Wrap_alloc@V?$allocator@U_StringItem@@@std@@@0@0U_Nonscalar_ptr_iterator_tag@0@@Z 000000018000acd0 f i V8EngineProxy.obj
 0001:00009d30       ??1HandleValue@@QEAA@XZ    000000018000ad30 f   ValueProxy.obj
 0001:00009d70       ??1Platform@v8@@UEAA@XZ    000000018000ad70 f i v8_libplatform:default-platform.obj
 0001:00009d80       ??_GPlatform@v8@@UEAAPEAXI@Z 000000018000ad80 f i v8_libplatform:default-platform.obj
 0001:00009d80       ??_EPlatform@v8@@UEAAPEAXI@Z 000000018000ad80 f i * CIL library *:* CIL module *
 0001:00009db0       ??_G_Generic_error_category@std@@UEAAPEAXI@Z 000000018000adb0 f i v8_libplatform:default-platform.obj
 0001:00009db0       ??_G_System_error_category@std@@UEAAPEAXI@Z 000000018000adb0 f i v8_libplatform:default-platform.obj
 0001:00009db0       ??_E_System_error_category@std@@UEAAPEAXI@Z 000000018000adb0 f i * CIL library *:* CIL module *
 0001:00009db0       ??_Eerror_category@std@@UEAAPEAXI@Z 000000018000adb0 f i * CIL library *:* CIL module *
 0001:00009db0       ??_G_Iostream_error_category@std@@UEAAPEAXI@Z 000000018000adb0 f i v8_libplatform:default-platform.obj
 0001:00009db0       ??_E_Iostream_error_category@std@@UEAAPEAXI@Z 000000018000adb0 f i * CIL library *:* CIL module *
 0001:00009db0       ??_E_Generic_error_category@std@@UEAAPEAXI@Z 000000018000adb0 f i * CIL library *:* CIL module *
 0001:00009db0       ??_Gerror_category@std@@UEAAPEAXI@Z 000000018000adb0 f i v8_libplatform:default-platform.obj
 0001:00009de0       ?default_error_condition@error_category@std@@UEBA?AVerror_condition@2@H@Z 000000018000ade0 f i v8_libplatform:default-platform.obj
 0001:00009df0       ?equivalent@error_category@std@@UEBA_NHAEBVerror_condition@2@@Z 000000018000adf0 f i v8_libplatform:default-platform.obj
 0001:00009e30       ?equivalent@error_category@std@@UEBA_NAEBVerror_code@2@H@Z 000000018000ae30 f i v8_libplatform:default-platform.obj
 0001:00009e50       ?name@_Generic_error_category@std@@UEBAPEBDXZ 000000018000ae50 f i v8_libplatform:default-platform.obj
 0001:00009e60       ?message@_Generic_error_category@std@@UEBA?AV?$basic_string@DU?$char_traits@D@std@@V?$allocator@D@2@@2@H@Z 000000018000ae60 f i v8_libplatform:default-platform.obj
 0001:00009ed0       ?name@_Iostream_error_category@std@@UEBAPEBDXZ 000000018000aed0 f i v8_libplatform:default-platform.obj
 0001:00009ee0       ?message@_Iostream_error_category@std@@UEBA?AV?$basic_string@DU?$char_traits@D@std@@V?$allocator@D@2@@2@H@Z 000000018000aee0 f i v8_libplatform:default-platform.obj
 0001:00009f30       ?name@_System_error_category@std@@UEBAPEBDXZ 000000018000af30 f i v8_libplatform:default-platform.obj
 0001:00009f40       ?message@_System_error_category@std@@UEBA?AV?$basic_string@DU?$char_traits@D@std@@V?$allocator@D@2@@2@H@Z 000000018000af40 f i v8_libplatform:default-platform.obj
 0001:00009fb0       ?default_error_condition@_System_error_category@std@@UEBA?AVerror_condition@2@H@Z 000000018000afb0 f i v8_libplatform:default-platform.obj
 0001:00009ff0       ?CreateDefaultPlatform@platform@v8@@YAPEAVPlatform@2@H@Z 000000018000aff0 f   v8_libplatform:default-platform.obj
 0001:0000a040       ??0DefaultPlatform@platform@v8@@QEAA@XZ 000000018000b040 f   v8_libplatform:default-platform.obj
 0001:0000a0c0       ??_EDefaultPlatform@platform@v8@@UEAAPEAXI@Z 000000018000b0c0 f i * CIL library *:* CIL module *
 0001:0000a0c0       ??_GDefaultPlatform@platform@v8@@UEAAPEAXI@Z 000000018000b0c0 f i v8_libplatform:default-platform.obj
 0001:0000a0f0       ??1?$map@PEAVIsolate@v8@@V?$queue@PEAVTask@v8@@V?$deque@PEAVTask@v8@@V?$allocator@PEAVTask@v8@@@std@@@std@@@std@@U?$less@PEAVIsolate@v8@@@4@V?$allocator@U?$pair@QEAVIsolate@v8@@V?$queue@PEAVTask@v8@@V?$deque@PEAVTask@v8@@V?$allocator@PEAVTask@v8@@@std@@@std@@@std@@@std@@@4@@std@@QEAA@XZ 000000018000b0f0 f i v8_libplatform:default-platform.obj
 0001:0000a120       ??1DefaultPlatform@platform@v8@@UEAA@XZ 000000018000b120 f   v8_libplatform:default-platform.obj
 0001:0000a3e0       ?SetThreadPoolSize@DefaultPlatform@platform@v8@@QEAAXH@Z 000000018000b3e0 f   v8_libplatform:default-platform.obj
 0001:0000a480       ?EnsureInitialized@DefaultPlatform@platform@v8@@QEAAXXZ 000000018000b480 f   v8_libplatform:default-platform.obj
 0001:0000a5a0       ?CallOnBackgroundThread@DefaultPlatform@platform@v8@@UEAAXPEAVTask@3@W4ExpectedRuntime@Platform@3@@Z 000000018000b5a0 f   v8_libplatform:default-platform.obj
 0001:0000a610       ?CallOnForegroundThread@DefaultPlatform@platform@v8@@UEAAXPEAVIsolate@3@PEAVTask@3@@Z 000000018000b610 f   v8_libplatform:default-platform.obj
 0001:0000a6e0       ??1?$LockGuard@VMutex@base@v8@@@base@v8@@QEAA@XZ 000000018000b6e0 f i v8_libplatform:default-platform.obj
 0001:0000a6f0       ?assign@?$basic_string@DU?$char_traits@D@std@@V?$allocator@D@2@@std@@QEAAAEAV12@AEBV12@_K1@Z 000000018000b6f0 f i v8_libplatform:default-platform.obj
 0001:0000a7d0       ?push_back@?$deque@PEAVTask@v8@@V?$allocator@PEAVTask@v8@@@std@@@std@@QEAAXAEBQEAVTask@v8@@@Z 000000018000b7d0 f i v8_libplatform:default-platform.obj
 0001:0000a8a0       ?_Reserve@?$vector@PEAVWorkerThread@platform@v8@@V?$allocator@PEAVWorkerThread@platform@v8@@@std@@@std@@IEAAX_K@Z 000000018000b8a0 f i v8_libplatform:default-platform.obj
 0001:0000a930       ?assign@?$basic_string@DU?$char_traits@D@std@@V?$allocator@D@2@@std@@QEAAAEAV12@PEBD_K@Z 000000018000b930 f i v8_libplatform:default-platform.obj
 0001:0000aa00       ?erase@?$basic_string@DU?$char_traits@D@std@@V?$allocator@D@2@@std@@QEAAAEAV12@_K0@Z 000000018000ba00 f i v8_libplatform:default-platform.obj
 0001:0000aab0       ?_Grow@?$basic_string@DU?$char_traits@D@std@@V?$allocator@D@2@@std@@QEAA_N_K_N@Z 000000018000bab0 f i v8_libplatform:default-platform.obj
 0001:0000ab20       ?begin@?$deque@PEAVTask@v8@@V?$allocator@PEAVTask@v8@@@std@@@std@@QEAA?AV?$_Deque_iterator@V?$_Deque_val@U?$_Deque_simple_types@PEAVTask@v8@@@std@@@std@@@2@XZ 000000018000bb20 f i v8_libplatform:default-platform.obj
 0001:0000ab40       ?_Growmap@?$deque@PEAVTask@v8@@V?$allocator@PEAVTask@v8@@@std@@@std@@IEAAX_K@Z 000000018000bb40 f i v8_libplatform:default-platform.obj
 0001:0000ad00       ?_Reallocate@?$vector@PEAVWorkerThread@platform@v8@@V?$allocator@PEAVWorkerThread@platform@v8@@@std@@@std@@IEAAX_K@Z 000000018000bd00 f i v8_libplatform:default-platform.obj
 0001:0000add0       ?erase@?$_Tree@V?$_Tmap_traits@PEAVIsolate@v8@@V?$queue@PEAVTask@v8@@V?$deque@PEAVTask@v8@@V?$allocator@PEAVTask@v8@@@std@@@std@@@std@@U?$less@PEAVIsolate@v8@@@4@V?$allocator@U?$pair@QEAVIsolate@v8@@V?$queue@PEAVTask@v8@@V?$deque@PEAVTask@v8@@V?$allocator@PEAVTask@v8@@@std@@@std@@@std@@@std@@@4@$0A@@std@@@std@@QEAA?AV?$_Tree_iterator@V?$_Tree_val@U?$_Tree_simple_types@U?$pair@QEAVIsolate@v8@@V?$queue@PEAVTask@v8@@V?$deque@PEAVTask@v8@@V?$allocator@PEAVTask@v8@@@std@@@std@@@std@@@std@@@std@@@std@@@2@V?$_Tree_const_iterator@V?$_Tree_val@U?$_Tree_simple_types@U?$pair@QEAVIsolate@v8@@V?$queue@PEAVTask@v8@@V?$deque@PEAVTask@v8@@V?$allocator@PEAVTask@v8@@@std@@@std@@@std@@@std@@@std@@@std@@@2@0@Z 000000018000bdd0 f i v8_libplatform:default-platform.obj
 0001:0000aed0       ?_Copy@?$basic_string@DU?$char_traits@D@std@@V?$allocator@D@2@@std@@QEAAX_K0@Z 000000018000bed0 f i v8_libplatform:default-platform.obj
 0001:0000afe0       ?erase@?$_Tree@V?$_Tmap_traits@PEAVIsolate@v8@@V?$queue@PEAVTask@v8@@V?$deque@PEAVTask@v8@@V?$allocator@PEAVTask@v8@@@std@@@std@@@std@@U?$less@PEAVIsolate@v8@@@4@V?$allocator@U?$pair@QEAVIsolate@v8@@V?$queue@PEAVTask@v8@@V?$deque@PEAVTask@v8@@V?$allocator@PEAVTask@v8@@@std@@@std@@@std@@@std@@@4@$0A@@std@@@std@@QEAA?AV?$_Tree_iterator@V?$_Tree_val@U?$_Tree_simple_types@U?$pair@QEAVIsolate@v8@@V?$queue@PEAVTask@v8@@V?$deque@PEAVTask@v8@@V?$allocator@PEAVTask@v8@@@std@@@std@@@std@@@std@@@std@@@std@@@2@V?$_Tree_const_iterator@V?$_Tree_val@U?$_Tree_simple_types@U?$pair@QEAVIsolate@v8@@V?$queue@PEAVTask@v8@@V?$deque@PEAVTask@v8@@V?$allocator@PEAVTask@v8@@@std@@@std@@@std@@@std@@@std@@@std@@@2@@Z 000000018000bfe0 f i v8_libplatform:default-platform.obj
 0001:0000b4a0       ?_Erase@?$_Tree@V?$_Tmap_traits@PEAVIsolate@v8@@V?$queue@PEAVTask@v8@@V?$deque@PEAVTask@v8@@V?$allocator@PEAVTask@v8@@@std@@@std@@@std@@U?$less@PEAVIsolate@v8@@@4@V?$allocator@U?$pair@QEAVIsolate@v8@@V?$queue@PEAVTask@v8@@V?$deque@PEAVTask@v8@@V?$allocator@PEAVTask@v8@@@std@@@std@@@std@@@std@@@4@$0A@@std@@@std@@IEAAXPEAU?$_Tree_node@U?$pair@QEAVIsolate@v8@@V?$queue@PEAVTask@v8@@V?$deque@PEAVTask@v8@@V?$allocator@PEAVTask@v8@@@std@@@std@@@std@@@std@@PEAX@2@@Z 000000018000c4a0 f i v8_libplatform:default-platform.obj
 0001:0000b580       ?_Lrotate@?$_Tree@V?$_Tmap_traits@PEAVIsolate@v8@@V?$queue@PEAVTask@v8@@V?$deque@PEAVTask@v8@@V?$allocator@PEAVTask@v8@@@std@@@std@@@std@@U?$less@PEAVIsolate@v8@@@4@V?$allocator@U?$pair@QEAVIsolate@v8@@V?$queue@PEAVTask@v8@@V?$deque@PEAVTask@v8@@V?$allocator@PEAVTask@v8@@@std@@@std@@@std@@@std@@@4@$0A@@std@@@std@@IEAAXPEAU?$_Tree_node@U?$pair@QEAVIsolate@v8@@V?$queue@PEAVTask@v8@@V?$deque@PEAVTask@v8@@V?$allocator@PEAVTask@v8@@@std@@@std@@@std@@@std@@PEAX@2@@Z 000000018000c580 f i v8_libplatform:default-platform.obj
 0001:0000b5e0       ?_Rrotate@?$_Tree@V?$_Tmap_traits@PEAVIsolate@v8@@V?$queue@PEAVTask@v8@@V?$deque@PEAVTask@v8@@V?$allocator@PEAVTask@v8@@@std@@@std@@@std@@U?$less@PEAVIsolate@v8@@@4@V?$allocator@U?$pair@QEAVIsolate@v8@@V?$queue@PEAVTask@v8@@V?$deque@PEAVTask@v8@@V?$allocator@PEAVTask@v8@@@std@@@std@@@std@@@std@@@4@$0A@@std@@@std@@IEAAXPEAU?$_Tree_node@U?$pair@QEAVIsolate@v8@@V?$queue@PEAVTask@v8@@V?$deque@PEAVTask@v8@@V?$allocator@PEAVTask@v8@@@std@@@std@@@std@@@std@@PEAX@2@@Z 000000018000c5e0 f i v8_libplatform:default-platform.obj
 0001:0000b640       ?_Buyheadnode@?$_Tree_alloc@$0A@U?$_Tree_base_types@U?$pair@QEAVIsolate@v8@@V?$queue@PEAVTask@v8@@V?$deque@PEAVTask@v8@@V?$allocator@PEAVTask@v8@@@std@@@std@@@std@@@std@@V?$allocator@U?$pair@QEAVIsolate@v8@@V?$queue@PEAVTask@v8@@V?$deque@PEAVTask@v8@@V?$allocator@PEAVTask@v8@@@std@@@std@@@std@@@std@@@2@@std@@@std@@QEAAPEAU?$_Tree_node@U?$pair@QEAVIsolate@v8@@V?$queue@PEAVTask@v8@@V?$deque@PEAVTask@v8@@V?$allocator@PEAVTask@v8@@@std@@@std@@@std@@@std@@PEAX@2@XZ 000000018000c640 f i v8_libplatform:default-platform.obj
 0001:0000b6a0       ??$_Buynode@AEBUpiecewise_construct_t@std@@V?$tuple@AEBQEAVIsolate@v8@@@2@V?$tuple@$$$V@2@@?$_Tree_buy@U?$pair@QEAVIsolate@v8@@V?$queue@PEAVTask@v8@@V?$deque@PEAVTask@v8@@V?$allocator@PEAVTask@v8@@@std@@@std@@@std@@@std@@V?$allocator@U?$pair@QEAVIsolate@v8@@V?$queue@PEAVTask@v8@@V?$deque@PEAVTask@v8@@V?$allocator@PEAVTask@v8@@@std@@@std@@@std@@@std@@@2@@std@@QEAAPEAU?$_Tree_node@U?$pair@QEAVIsolate@v8@@V?$queue@PEAVTask@v8@@V?$deque@PEAVTask@v8@@V?$allocator@PEAVTask@v8@@@std@@@std@@@std@@@std@@PEAX@1@AEBUpiecewise_construct_t@1@$$QEAV?$tuple@AEBQEAVIsolate@v8@@@1@$$QEAV?$tuple@$$$V@1@@Z 000000018000c6a0 f i v8_libplatform:default-platform.obj
 0001:0000b760       ??$_Insert_hint@AEAU?$pair@QEAVIsolate@v8@@V?$queue@PEAVTask@v8@@V?$deque@PEAVTask@v8@@V?$allocator@PEAVTask@v8@@@std@@@std@@@std@@@std@@PEAU?$_Tree_node@U?$pair@QEAVIsolate@v8@@V?$queue@PEAVTask@v8@@V?$deque@PEAVTask@v8@@V?$allocator@PEAVTask@v8@@@std@@@std@@@std@@@std@@PEAX@2@@?$_Tree@V?$_Tmap_traits@PEAVIsolate@v8@@V?$queue@PEAVTask@v8@@V?$deque@PEAVTask@v8@@V?$allocator@PEAVTask@v8@@@std@@@std@@@std@@U?$less@PEAVIsolate@v8@@@4@V?$allocator@U?$pair@QEAVIsolate@v8@@V?$queue@PEAVTask@v8@@V?$deque@PEAVTask@v8@@V?$allocator@PEAVTask@v8@@@std@@@std@@@std@@@std@@@4@$0A@@std@@@std@@IEAA?AV?$_Tree_iterator@V?$_Tree_val@U?$_Tree_simple_types@U?$pair@QEAVIsolate@v8@@V?$queue@PEAVTask@v8@@V?$deque@PEAVTask@v8@@V?$allocator@PEAVTask@v8@@@std@@@std@@@std@@@std@@@std@@@std@@@1@V?$_Tree_const_iterator@V?$_Tree_val@U?$_Tree_simple_types@U?$pair@QEAVIsolate@v8@@V?$queue@PEAVTask@v8@@V?$deque@PEAVTask@v8@@V?$allocator@PEAVTask@v8@@@std@@@std@@@std@@@std@@@std@@@std@@@1@AEAU?$pair@QEAVIsolate@v8@@V?$queue@PEAVTask@v8@@V?$deque@PEAVTask@v8@@V?$allocator@PEAVTask@v8@@@std@@@std@@@std@@@1@PEAU?$_Tree_node@U?$pair@QEAVIsolate@v8@@V?$queue@PEAVTask@v8@@V?$deque@PEAVTask@v8@@V?$allocator@PEAVTask@v8@@@std@@@std@@@std@@@std@@PEAX@1@@Z 000000018000c760 f i v8_libplatform:default-platform.obj
 0001:0000b980       ?_Destroy_if_not_nil@?$_Tree@V?$_Tmap_traits@PEAVIsolate@v8@@V?$queue@PEAVTask@v8@@V?$deque@PEAVTask@v8@@V?$allocator@PEAVTask@v8@@@std@@@std@@@std@@U?$less@PEAVIsolate@v8@@@4@V?$allocator@U?$pair@QEAVIsolate@v8@@V?$queue@PEAVTask@v8@@V?$deque@PEAVTask@v8@@V?$allocator@PEAVTask@v8@@@std@@@std@@@std@@@std@@@4@$0A@@std@@@std@@IEAAXPEAU?$_Tree_node@U?$pair@QEAVIsolate@v8@@V?$queue@PEAVTask@v8@@V?$deque@PEAVTask@v8@@V?$allocator@PEAVTask@v8@@@std@@@std@@@std@@@std@@PEAX@2@@Z 000000018000c980 f i v8_libplatform:default-platform.obj
 0001:0000b9c0       ?_Buynode0@?$_Tree_buy@U?$pair@QEAVIsolate@v8@@V?$queue@PEAVTask@v8@@V?$deque@PEAVTask@v8@@V?$allocator@PEAVTask@v8@@@std@@@std@@@std@@@std@@V?$allocator@U?$pair@QEAVIsolate@v8@@V?$queue@PEAVTask@v8@@V?$deque@PEAVTask@v8@@V?$allocator@PEAVTask@v8@@@std@@@std@@@std@@@std@@@2@@std@@QEAAPEAU?$_Tree_node@U?$pair@QEAVIsolate@v8@@V?$queue@PEAVTask@v8@@V?$deque@PEAVTask@v8@@V?$allocator@PEAVTask@v8@@@std@@@std@@@std@@@std@@PEAX@2@XZ 000000018000c9c0 f i v8_libplatform:default-platform.obj
 0001:0000ba20       ??$_Insert_at@AEAU?$pair@QEAVIsolate@v8@@V?$queue@PEAVTask@v8@@V?$deque@PEAVTask@v8@@V?$allocator@PEAVTask@v8@@@std@@@std@@@std@@@std@@PEAU?$_Tree_node@U?$pair@QEAVIsolate@v8@@V?$queue@PEAVTask@v8@@V?$deque@PEAVTask@v8@@V?$allocator@PEAVTask@v8@@@std@@@std@@@std@@@std@@PEAX@2@@?$_Tree@V?$_Tmap_traits@PEAVIsolate@v8@@V?$queue@PEAVTask@v8@@V?$deque@PEAVTask@v8@@V?$allocator@PEAVTask@v8@@@std@@@std@@@std@@U?$less@PEAVIsolate@v8@@@4@V?$allocator@U?$pair@QEAVIsolate@v8@@V?$queue@PEAVTask@v8@@V?$deque@PEAVTask@v8@@V?$allocator@PEAVTask@v8@@@std@@@std@@@std@@@std@@@4@$0A@@std@@@std@@IEAA?AV?$_Tree_iterator@V?$_Tree_val@U?$_Tree_simple_types@U?$pair@QEAVIsolate@v8@@V?$queue@PEAVTask@v8@@V?$deque@PEAVTask@v8@@V?$allocator@PEAVTask@v8@@@std@@@std@@@std@@@std@@@std@@@std@@@1@_NPEAU?$_Tree_node@U?$pair@QEAVIsolate@v8@@V?$queue@PEAVTask@v8@@V?$deque@PEAVTask@v8@@V?$allocator@PEAVTask@v8@@@std@@@std@@@std@@@std@@PEAX@1@AEAU?$pair@QEAVIsolate@v8@@V?$queue@PEAVTask@v8@@V?$deque@PEAVTask@v8@@V?$allocator@PEAVTask@v8@@@std@@@std@@@std@@@1@1@Z 000000018000ca20 f i v8_libplatform:default-platform.obj
 0001:0000bcf0       ??$_Insert_nohint@AEAU?$pair@QEAVIsolate@v8@@V?$queue@PEAVTask@v8@@V?$deque@PEAVTask@v8@@V?$allocator@PEAVTask@v8@@@std@@@std@@@std@@@std@@PEAU?$_Tree_node@U?$pair@QEAVIsolate@v8@@V?$queue@PEAVTask@v8@@V?$deque@PEAVTask@v8@@V?$allocator@PEAVTask@v8@@@std@@@std@@@std@@@std@@PEAX@2@@?$_Tree@V?$_Tmap_traits@PEAVIsolate@v8@@V?$queue@PEAVTask@v8@@V?$deque@PEAVTask@v8@@V?$allocator@PEAVTask@v8@@@std@@@std@@@std@@U?$less@PEAVIsolate@v8@@@4@V?$allocator@U?$pair@QEAVIsolate@v8@@V?$queue@PEAVTask@v8@@V?$deque@PEAVTask@v8@@V?$allocator@PEAVTask@v8@@@std@@@std@@@std@@@std@@@4@$0A@@std@@@std@@IEAA?AU?$pair@V?$_Tree_iterator@V?$_Tree_val@U?$_Tree_simple_types@U?$pair@QEAVIsolate@v8@@V?$queue@PEAVTask@v8@@V?$deque@PEAVTask@v8@@V?$allocator@PEAVTask@v8@@@std@@@std@@@std@@@std@@@std@@@std@@@std@@_N@1@_NAEAU?$pair@QEAVIsolate@v8@@V?$queue@PEAVTask@v8@@V?$deque@PEAVTask@v8@@V?$allocator@PEAVTask@v8@@@std@@@std@@@std@@@1@PEAU?$_Tree_node@U?$pair@QEAVIsolate@v8@@V?$queue@PEAVTask@v8@@V?$deque@PEAVTask@v8@@V?$allocator@PEAVTask@v8@@@std@@@std@@@std@@@std@@PEAX@1@@Z 000000018000ccf0 f i v8_libplatform:default-platform.obj
 0001:0000be70       ??1?$pair@QEAVIsolate@v8@@V?$queue@PEAVTask@v8@@V?$deque@PEAVTask@v8@@V?$allocator@PEAVTask@v8@@@std@@@std@@@std@@@std@@QEAA@XZ 000000018000ce70 f i v8_libplatform:default-platform.obj
 0001:0000bea0       ??1?$deque@PEAVTask@v8@@V?$allocator@PEAVTask@v8@@@std@@@std@@QEAA@XZ 000000018000cea0 f i v8_libplatform:default-platform.obj
 0001:0000bea0       ??1?$queue@PEAVTask@v8@@V?$deque@PEAVTask@v8@@V?$allocator@PEAVTask@v8@@@std@@@std@@@std@@QEAA@XZ 000000018000cea0 f i v8_libplatform:default-platform.obj
 0001:0000bed0       ?_Tidy@?$deque@PEAVTask@v8@@V?$allocator@PEAVTask@v8@@@std@@@std@@IEAAXXZ 000000018000ced0 f i v8_libplatform:default-platform.obj
 0001:0000bf60       ??1?$_Deque_alloc@$0A@U?$_Deque_base_types@PEAVTask@v8@@V?$allocator@PEAVTask@v8@@@std@@@std@@@std@@QEAA@XZ 000000018000cf60 f i v8_libplatform:default-platform.obj
 0001:0000bf80       ??0TaskQueue@platform@v8@@QEAA@XZ 000000018000cf80 f   v8_libplatform:task-queue.obj
 0001:0000c020       ??1TaskQueue@platform@v8@@QEAA@XZ 000000018000d020 f   v8_libplatform:task-queue.obj
 0001:0000c080       ??0WorkerThread@platform@v8@@QEAA@PEAVTaskQueue@12@@Z 000000018000d080 f   v8_libplatform:worker-thread.obj
 0001:0000c130       ??_GWorkerThread@platform@v8@@UEAAPEAXI@Z 000000018000d130 f i v8_libplatform:worker-thread.obj
 0001:0000c130       ??_EWorkerThread@platform@v8@@UEAAPEAXI@Z 000000018000d130 f i * CIL library *:* CIL module *
 0001:0000c1c0       ?Run@WorkerThread@platform@v8@@UEAAXXZ 000000018000d1c0 f   v8_libplatform:worker-thread.obj
 0001:0000c2d0       ??1Mutex@base@v8@@QEAA@XZ  000000018000d2d0 f   v8_libbase:mutex.obj
 0001:0000c2e0       ??1Semaphore@base@v8@@QEAA@XZ 000000018000d2e0 f   v8_libbase:semaphore.obj
 0001:0000c330       ??_EThread@base@v8@@UEAAPEAXI@Z 000000018000d330 f i * CIL library *:* CIL module *
 0001:0000c330       ??_GThread@base@v8@@UEAAPEAXI@Z 000000018000d330 f i v8_libbase:platform-win32.obj
 0001:0000c384       ??_U@YAPEAX_K@Z            000000018000d384 f   msvcprt:newaop_s.obj
 0001:0000c3a0       __security_check_cookie    000000018000d3a0 f   MSVCRT:amdsecgs.obj
 0001:0000c3c0       ??1exception@std@@UEAA@XZ  000000018000d3c0 f   MSVCRT:MSVCR120.dll
 0001:0000c3c6       ??0exception@std@@QEAA@AEBV01@@Z 000000018000d3c6 f   MSVCRT:MSVCR120.dll
 0001:0000c3cc       ??3@YAXPEAX@Z              000000018000d3cc f   MSVCRT:MSVCR120.dll
 0001:0000c3d4       ??_Etype_info@@UEAAPEAXI@Z 000000018000d3d4 f i MSVCRT:ti_inst.obj
 0001:0000c43e       ??2@YAPEAX_K@Z             000000018000d43e f   MSVCRT:MSVCR120.dll
 0001:0000c444       __atonexitinit             000000018000d444 f   MSVCRT:atonexit.obj
 0001:0000c494       _onexit                    000000018000d494 f   MSVCRT:atonexit.obj
 0001:0000c544       atexit                     000000018000d544 f   MSVCRT:atonexit.obj
 0001:0000c5bc       _CRT_INIT                  000000018000d5bc f   MSVCRT:crtdll.obj
 0001:0000c808       _DllMainCRTStartup         000000018000d808 f   MSVCRT:crtdll.obj
 0001:0000c97e       _purecall                  000000018000d97e f   MSVCRT:MSVCR120.dll
 0001:0000c984       __raise_securityfailure    000000018000d984 f   MSVCRT:gs_report.obj
 0001:0000c9d0       __report_gsfailure         000000018000d9d0 f   MSVCRT:gs_report.obj
 0001:0000caa4       ??_M@YAXPEAX_KHP6AX0@Z@Z   000000018000daa4 f   MSVCRT:ehvecdtr.obj
 0001:0000cb04       ?__ArrayUnwind@@YAXPEAX_KHP6AX0@Z@Z 000000018000db04 f   MSVCRT:ehvecdtr.obj
 0001:0000cb4e       _lock                      000000018000db4e f   MSVCRT:MSVCR120.dll
 0001:0000cb54       _unlock                    000000018000db54 f   MSVCRT:MSVCR120.dll
 0001:0000cb5a       __dllonexit                000000018000db5a f   MSVCRT:MSVCR120.dll
 0001:0000cb60       __C_specific_handler       000000018000db60 f   MSVCRT:MSVCR120.dll
 0001:0000cb66       __CppXcptFilter            000000018000db66 f   MSVCRT:MSVCR120.dll
 0001:0000cb6c       _amsg_exit                 000000018000db6c f   MSVCRT:MSVCR120.dll
 0001:0000cb80       _FindPESection             000000018000db80 f   MSVCRT:pesect.obj
 0001:0000cbd0       _IsNonwritableInCurrentImage 000000018000dbd0 f   MSVCRT:pesect.obj
 0001:0000cc20       _ValidateImageBase         000000018000dc20 f   MSVCRT:pesect.obj
 0001:0000cc50       __security_init_cookie     000000018000dc50 f   MSVCRT:gs_support.obj
 0001:0000ccfc       DllMain                    000000018000dcfc f   MSVCRT:dllmain.obj
 0001:0000cd20       _RTC_Initialize            000000018000dd20 f   MSVCRT:initsect.obj
 0001:0000cd58       _RTC_Terminate             000000018000dd58 f   MSVCRT:initsect.obj
 0001:0000cd90       _initterm                  000000018000dd90 f   MSVCRT:MSVCR120.dll
 0001:0000cd96       _initterm_e                000000018000dd96 f   MSVCRT:MSVCR120.dll
 0001:0000cd9c       __clean_type_info_names    000000018000dd9c f   MSVCRT:tncleanup.obj
 0001:0000cda8       __crt_debugger_hook        000000018000dda8 f   MSVCRT:MSVCR120.dll
 0001:0000cdae       __crtUnhandledException    000000018000ddae f   MSVCRT:MSVCR120.dll
 0001:0000cdb4       __crtTerminateProcess      000000018000ddb4 f   MSVCRT:MSVCR120.dll
 0001:0000cdba       __crtCapturePreviousContext 000000018000ddba f   MSVCRT:MSVCR120.dll
 0001:0000cdc0       ?terminate@@YAXXZ          000000018000ddc0 f   MSVCRT:MSVCR120.dll
 0001:0000cdc6       ?_type_info_dtor_internal_method@type_info@@QEAAXXZ 000000018000ddc6 f   MSVCRT:MSVCR120.dll
 0001:0000cdc6       ??1type_info@@UEAA@XZ      000000018000ddc6 f   MSVCRT:MSVCR120.dll
 0001:0000cdcc       __clean_type_info_names_internal 000000018000ddcc f   MSVCRT:MSVCR120.dll
 0001:0000cdd2       IsProcessorFeaturePresent  000000018000ddd2 f   kernel32:KERNEL32.dll
 0001:0000cdd8       _CxxThrowException         000000018000ddd8 f   MSVCRT:MSVCR120.dll
 0001:0000cdde       __CxxFrameHandler3         000000018000ddde f   MSVCRT:MSVCR120.dll
 0001:0000cde4       memcpy                     000000018000dde4 f   MSVCRT:MSVCR120.dll
 0001:0000cdea       memset                     000000018000ddea f   MSVCRT:MSVCR120.dll
 0002:00000000       __imp_GetSystemTimeAsFileTime 0000000180010000     kernel32:KERNEL32.dll
 0002:00000008       __imp_GlobalFree           0000000180010008     kernel32:KERNEL32.dll
 0002:00000010       __imp_GlobalReAlloc        0000000180010010     kernel32:KERNEL32.dll
 0002:00000018       __imp_EncodePointer        0000000180010018     kernel32:KERNEL32.dll
 0002:00000020       __imp_DecodePointer        0000000180010020     kernel32:KERNEL32.dll
 0002:00000028       __imp_IsDebuggerPresent    0000000180010028     kernel32:KERNEL32.dll
 0002:00000030       __imp_IsProcessorFeaturePresent 0000000180010030     kernel32:KERNEL32.dll
 0002:00000038       __imp_QueryPerformanceCounter 0000000180010038     kernel32:KERNEL32.dll
 0002:00000040       __imp_GetCurrentProcessId  0000000180010040     kernel32:KERNEL32.dll
 0002:00000048       __imp_GetCurrentThreadId   0000000180010048     kernel32:KERNEL32.dll
 0002:00000050       __imp_GlobalAlloc          0000000180010050     kernel32:KERNEL32.dll
 0002:00000058       __imp_DisableThreadLibraryCalls 0000000180010058     kernel32:KERNEL32.dll
 0002:00000060       __imp_GetNativeSystemInfo  0000000180010060     kernel32:KERNEL32.dll
 0002:00000068       __imp_CloseHandle          0000000180010068     kernel32:KERNEL32.dll
 0002:00000070       __imp_ReleaseSemaphore     0000000180010070     kernel32:KERNEL32.dll
 0002:00000078       __imp_CreateSemaphoreA     0000000180010078     kernel32:KERNEL32.dll
 0002:00000080       __imp_WaitForSingleObject  0000000180010080     kernel32:KERNEL32.dll
 0002:00000088       __imp_DeleteCriticalSection 0000000180010088     kernel32:KERNEL32.dll
 0002:00000090       __imp_EnterCriticalSection 0000000180010090     kernel32:KERNEL32.dll
 0002:00000098       __imp_LeaveCriticalSection 0000000180010098     kernel32:KERNEL32.dll
 0002:000000a0       __imp_InitializeCriticalSection 00000001800100a0     kernel32:KERNEL32.dll
 0002:000000a8       \177KERNEL32_NULL_THUNK_DATA 00000001800100a8     kernel32:KERNEL32.dll
 0002:000000b0       __imp__Mtx_unlock          00000001800100b0     msvcprt:MSVCP120.dll
 0002:000000b8       __imp__Mtx_lock            00000001800100b8     msvcprt:MSVCP120.dll
 0002:000000c0       __imp_?_Xbad_alloc@std@@YAXXZ 00000001800100c0     msvcprt:MSVCP120.dll
 0002:000000c8       __imp_?_Xout_of_range@std@@YAXPEBD@Z 00000001800100c8     msvcprt:MSVCP120.dll
 0002:000000d0       __imp_?_Xlength_error@std@@YAXPEBD@Z 00000001800100d0     msvcprt:MSVCP120.dll
 0002:000000d8       __imp__Mtx_destroy         00000001800100d8     msvcprt:MSVCP120.dll
 0002:000000e0       __imp__Mtx_init            00000001800100e0     msvcprt:MSVCP120.dll
 0002:000000e8       __imp_?_Winerror_map@std@@YAPEBDH@Z 00000001800100e8     msvcprt:MSVCP120.dll
 0002:000000f0       __imp_?_Syserror_map@std@@YAPEBDH@Z 00000001800100f0     msvcprt:MSVCP120.dll
 0002:000000f8       __imp_?_Throw_C_error@std@@YAXH@Z 00000001800100f8     msvcprt:MSVCP120.dll
 0002:00000100       \177MSVCP120_NULL_THUNK_DATA 0000000180010100     msvcprt:MSVCP120.dll
 0002:00000108       __imp___crtTerminateProcess 0000000180010108     MSVCRT:MSVCR120.dll
 0002:00000110       __imp___crtUnhandledException 0000000180010110     MSVCRT:MSVCR120.dll
 0002:00000118       __imp___crt_debugger_hook  0000000180010118     MSVCRT:MSVCR120.dll
 0002:00000120       __imp__initterm_e          0000000180010120     MSVCRT:MSVCR120.dll
 0002:00000128       __imp__initterm            0000000180010128     MSVCRT:MSVCR120.dll
 0002:00000130       __imp__malloc_crt          0000000180010130     MSVCRT:MSVCR120.dll
 0002:00000138       __imp_free                 0000000180010138     MSVCRT:MSVCR120.dll
 0002:00000140       __imp__amsg_exit           0000000180010140     MSVCRT:MSVCR120.dll
 0002:00000148       __imp___CppXcptFilter      0000000180010148     MSVCRT:MSVCR120.dll
 0002:00000150       __imp__onexit              0000000180010150     MSVCRT:MSVCR120.dll
 0002:00000158       __imp___C_specific_handler 0000000180010158     MSVCRT:MSVCR120.dll
 0002:00000160       __imp___crtCapturePreviousContext 0000000180010160     MSVCRT:MSVCR120.dll
 0002:00000168       __imp__calloc_crt          0000000180010168     MSVCRT:MSVCR120.dll
 0002:00000170       __imp__unlock              0000000180010170     MSVCRT:MSVCR120.dll
 0002:00000178       __imp__lock                0000000180010178     MSVCRT:MSVCR120.dll
 0002:00000180       __imp__purecall            0000000180010180     MSVCRT:MSVCR120.dll
 0002:00000188       __imp_memmove              0000000180010188     MSVCRT:MSVCR120.dll
 0002:00000190       __imp_?what@exception@std@@UEBAPEBDXZ 0000000180010190     MSVCRT:MSVCR120.dll
 0002:00000198       __imp_??2@YAPEAX_K@Z       0000000180010198     MSVCRT:MSVCR120.dll
 0002:000001a0       __imp_??3@YAXPEAX@Z        00000001800101a0     MSVCRT:MSVCR120.dll
 0002:000001a8       __imp_??_V@YAXPEAX@Z       00000001800101a8     MSVCRT:MSVCR120.dll
 0002:000001b0       __imp_??0exception@std@@QEAA@AEBV01@@Z 00000001800101b0     MSVCRT:MSVCR120.dll
 0002:000001b8       __imp_??0exception@std@@QEAA@AEBQEBD@Z 00000001800101b8     MSVCRT:MSVCR120.dll
 0002:000001c0       __imp_??1exception@std@@UEAA@XZ 00000001800101c0     MSVCRT:MSVCR120.dll
 0002:000001c8       __imp_?terminate@@YAXXZ    00000001800101c8     MSVCRT:MSVCR120.dll
 0002:000001d0       __imp_?_type_info_dtor_internal_method@type_info@@QEAAXXZ 00000001800101d0     MSVCRT:MSVCR120.dll
 0002:000001d8       __imp___clean_type_info_names_internal 00000001800101d8     MSVCRT:MSVCR120.dll
 0002:000001e0       __imp_strncpy_s            00000001800101e0     MSVCRT:MSVCR120.dll
 0002:000001e8       __imp__beginthreadex       00000001800101e8     MSVCRT:MSVCR120.dll
 0002:000001f0       __imp___dllonexit          00000001800101f0     MSVCRT:MSVCR120.dll
 0002:000001f8       __imp__CxxThrowException   00000001800101f8     MSVCRT:MSVCR120.dll
 0002:00000200       __imp___CxxFrameHandler3   0000000180010200     MSVCRT:MSVCR120.dll
 0002:00000208       __imp_memset               0000000180010208     MSVCRT:MSVCR120.dll
 0002:00000210       __imp_memcpy               0000000180010210     MSVCRT:MSVCR120.dll
 0002:00000218       \177MSVCR120_NULL_THUNK_DATA 0000000180010218     MSVCRT:MSVCR120.dll
 0002:00000220       __imp_?Dispose@Isolate@v8@@QEAAXXZ 0000000180010220     v8-x64:v8-x64.dll
 0002:00000228       __imp_?Call@Function@v8@@QEAA?AV?$Local@VValue@v8@@@2@V?$Handle@VValue@v8@@@2@HQEAV42@@Z 0000000180010228     v8-x64:v8-x64.dll
 0002:00000230       __imp_?New@Object@v8@@SA?AV?$Local@VObject@v8@@@2@PEAVIsolate@2@@Z 0000000180010230     v8-x64:v8-x64.dll
 0002:00000238       __imp_?New@Number@v8@@SA?AV?$Local@VNumber@v8@@@2@PEAVIsolate@2@N@Z 0000000180010238     v8-x64:v8-x64.dll
 0002:00000240       __imp_?Length@String@v8@@QEBAHXZ 0000000180010240     v8-x64:v8-x64.dll
 0002:00000248       __imp_?Write@String@v8@@QEBAHPEAGHHH@Z 0000000180010248     v8-x64:v8-x64.dll
 0002:00000250       __imp_?Concat@String@v8@@SA?AV?$Local@VString@v8@@@2@V?$Handle@VString@v8@@@2@0@Z 0000000180010250     v8-x64:v8-x64.dll
 0002:00000258       __imp_?ToObject@Value@v8@@QEBA?AV?$Local@VObject@v8@@@2@XZ 0000000180010258     v8-x64:v8-x64.dll
 0002:00000260       __imp_?Equals@Value@v8@@QEBA_NV?$Handle@VValue@v8@@@2@@Z 0000000180010260     v8-x64:v8-x64.dll
 0002:00000268       __imp_?Initialize@V8@v8@@SA_NXZ 0000000180010268     v8-x64:v8-x64.dll
 0002:00000270       __imp_?InitializeICU@V8@v8@@SA_NPEBD@Z 0000000180010270     v8-x64:v8-x64.dll
 0002:00000278       __imp_?InitializePlatform@V8@v8@@SAXPEAVPlatform@2@@Z 0000000180010278     v8-x64:v8-x64.dll
 0002:00000280       __imp_?Compile@Script@v8@@SA?AV?$Local@VScript@v8@@@2@V?$Handle@VString@v8@@@2@0@Z 0000000180010280     v8-x64:v8-x64.dll
 0002:00000288       __imp_?Run@Script@v8@@QEAA?AV?$Local@VValue@v8@@@2@XZ 0000000180010288     v8-x64:v8-x64.dll
 0002:00000290       __imp_?New@Date@v8@@SA?AV?$Local@VValue@v8@@@2@PEAVIsolate@2@N@Z 0000000180010290     v8-x64:v8-x64.dll
 0002:00000298       __imp_?Global@Context@v8@@QEAA?AV?$Local@VObject@v8@@@2@XZ 0000000180010298     v8-x64:v8-x64.dll
 0002:000002a0       __imp_?New@Context@v8@@SA?AV?$Local@VContext@v8@@@2@PEAVIsolate@2@PEAVExtensionConfiguration@2@V?$Handle@VObjectTemplate@v8@@@2@V?$Handle@VValue@v8@@@2@@Z 00000001800102a0     v8-x64:v8-x64.dll
 0002:000002a8       __imp_?GetLineNumber@Message@v8@@QEBAHXZ 00000001800102a8     v8-x64:v8-x64.dll
 0002:000002b0       __imp_?GetStartColumn@Message@v8@@QEBAHXZ 00000001800102b0     v8-x64:v8-x64.dll
 0002:000002b8       __imp_??0TryCatch@v8@@QEAA@XZ 00000001800102b8     v8-x64:v8-x64.dll
 0002:000002c0       __imp_??1TryCatch@v8@@QEAA@XZ 00000001800102c0     v8-x64:v8-x64.dll
 0002:000002c8       __imp_?HasCaught@TryCatch@v8@@QEBA_NXZ 00000001800102c8     v8-x64:v8-x64.dll
 0002:000002d0       __imp_?Exception@TryCatch@v8@@QEBA?AV?$Local@VValue@v8@@@2@XZ 00000001800102d0     v8-x64:v8-x64.dll
 0002:000002d8       __imp_?StackTrace@TryCatch@v8@@QEBA?AV?$Local@VValue@v8@@@2@XZ 00000001800102d8     v8-x64:v8-x64.dll
 0002:000002e0       __imp_?Message@TryCatch@v8@@QEBA?AV?$Local@VMessage@v8@@@2@XZ 00000001800102e0     v8-x64:v8-x64.dll
 0002:000002e8       __imp_?New@ObjectTemplate@v8@@SA?AV?$Local@VObjectTemplate@v8@@@2@PEAVIsolate@2@@Z 00000001800102e8     v8-x64:v8-x64.dll
 0002:000002f0       __imp_?NewInstance@ObjectTemplate@v8@@QEAA?AV?$Local@VObject@v8@@@2@XZ 00000001800102f0     v8-x64:v8-x64.dll
 0002:000002f8       __imp_?SetAccessor@ObjectTemplate@v8@@QEAAXV?$Handle@VString@v8@@@2@P6AXV?$Local@VString@v8@@@2@AEBV?$PropertyCallbackInfo@VValue@v8@@@2@@ZP6AX1V?$Local@VValue@v8@@@2@AEBV?$PropertyCallbackInfo@X@2@@ZV?$Handle@VValue@v8@@@2@W4AccessControl@2@W4PropertyAttribute@2@V?$Handle@VAccessorSignature@v8@@@2@@Z 00000001800102f8     v8-x64:v8-x64.dll
 0002:00000300       __imp_?SetNamedPropertyHandler@ObjectTemplate@v8@@QEAAXP6AXV?$Local@VString@v8@@@2@AEBV?$PropertyCallbackInfo@VValue@v8@@@2@@ZP6AX0V?$Local@VValue@v8@@@2@1@ZP6AX0AEBV?$PropertyCallbackInfo@VInteger@v8@@@2@@ZP6AX0AEBV?$PropertyCallbackInfo@VBoolean@v8@@@2@@ZP6AXAEBV?$PropertyCallbackInfo@VArray@v8@@@2@@ZV?$Handle@VValue@v8@@@2@@Z 0000000180010300     v8-x64:v8-x64.dll
 0002:00000308       __imp_?SetIndexedPropertyHandler@ObjectTemplate@v8@@QEAAXP6AXIAEBV?$PropertyCallbackInfo@VValue@v8@@@2@@ZP6AXIV?$Local@VValue@v8@@@2@0@ZP6AXIAEBV?$PropertyCallbackInfo@VInteger@v8@@@2@@ZP6AXIAEBV?$PropertyCallbackInfo@VBoolean@v8@@@2@@ZP6AXAEBV?$PropertyCallbackInfo@VArray@v8@@@2@@ZV?$Handle@VValue@v8@@@2@@Z 0000000180010308     v8-x64:v8-x64.dll
 0002:00000310       __imp_?SetCallAsFunctionHandler@ObjectTemplate@v8@@QEAAXP6AXAEBV?$FunctionCallbackInfo@VValue@v8@@@2@@ZV?$Handle@VValue@v8@@@2@@Z 0000000180010310     v8-x64:v8-x64.dll
 0002:00000318       __imp_?SetInternalFieldCount@ObjectTemplate@v8@@QEAAXH@Z 0000000180010318     v8-x64:v8-x64.dll
 0002:00000320       __imp_?SlowGetAlignedPointerFromInternalField@Object@v8@@AEAAPEAXH@Z 0000000180010320     v8-x64:v8-x64.dll
 0002:00000328       __imp_?Has@Object@v8@@QEAA_NV?$Handle@VValue@v8@@@2@@Z 0000000180010328     v8-x64:v8-x64.dll
 0002:00000330       __imp_?GetHiddenValue@Object@v8@@QEAA?AV?$Local@VValue@v8@@@2@V?$Handle@VString@v8@@@2@@Z 0000000180010330     v8-x64:v8-x64.dll
 0002:00000338       __imp_?SlowGetInternalField@Object@v8@@AEAA?AV?$Local@VValue@v8@@@2@H@Z 0000000180010338     v8-x64:v8-x64.dll
 0002:00000340       __imp_?CreateHandle@HandleScope@v8@@CAPEAPEAVObject@internal@2@PEAVHeapObject@42@PEAV342@@Z 0000000180010340     v8-x64:v8-x64.dll
 0002:00000348       __imp_?IsTrue@Value@v8@@QEBA_NXZ 0000000180010348     v8-x64:v8-x64.dll
 0002:00000350       __imp_?IsFunction@Value@v8@@QEBA_NXZ 0000000180010350     v8-x64:v8-x64.dll
 0002:00000358       __imp_?IsBoolean@Value@v8@@QEBA_NXZ 0000000180010358     v8-x64:v8-x64.dll
 0002:00000360       __imp_?IsNumber@Value@v8@@QEBA_NXZ 0000000180010360     v8-x64:v8-x64.dll
 0002:00000368       __imp_?IsExternal@Value@v8@@QEBA_NXZ 0000000180010368     v8-x64:v8-x64.dll
 0002:00000370       __imp_?IsInt32@Value@v8@@QEBA_NXZ 0000000180010370     v8-x64:v8-x64.dll
 0002:00000378       __imp_?IsDate@Value@v8@@QEBA_NXZ 0000000180010378     v8-x64:v8-x64.dll
 0002:00000380       __imp_?IsBooleanObject@Value@v8@@QEBA_NXZ 0000000180010380     v8-x64:v8-x64.dll
 0002:00000388       __imp_?IsNumberObject@Value@v8@@QEBA_NXZ 0000000180010388     v8-x64:v8-x64.dll
 0002:00000390       __imp_?IsStringObject@Value@v8@@QEBA_NXZ 0000000180010390     v8-x64:v8-x64.dll
 0002:00000398       __imp_?IsNativeError@Value@v8@@QEBA_NXZ 0000000180010398     v8-x64:v8-x64.dll
 0002:000003a0       __imp_?IsRegExp@Value@v8@@QEBA_NXZ 00000001800103a0     v8-x64:v8-x64.dll
 0002:000003a8       __imp_?BooleanValue@Value@v8@@QEBA_NXZ 00000001800103a8     v8-x64:v8-x64.dll
 0002:000003b0       __imp_?NumberValue@Value@v8@@QEBANXZ 00000001800103b0     v8-x64:v8-x64.dll
 0002:000003b8       __imp_?Int32Value@Value@v8@@QEBAHXZ 00000001800103b8     v8-x64:v8-x64.dll
 0002:000003c0       __imp_?MakeWeak@V8@v8@@CAXPEAPEAVObject@internal@2@PEAXP6AXAEBV?$WeakCallbackData@VValue@v8@@X@2@@Z@Z 00000001800103c0     v8-x64:v8-x64.dll
 0002:000003c8       __imp_?ClearWeak@V8@v8@@CAPEAXPEAPEAVObject@internal@2@@Z 00000001800103c8     v8-x64:v8-x64.dll
 0002:000003d0       __imp_?Value@External@v8@@QEBAPEAXXZ 00000001800103d0     v8-x64:v8-x64.dll
 0002:000003d8       __imp_?ThrowException@Isolate@v8@@QEAA?AV?$Local@VValue@v8@@@2@V32@@Z 00000001800103d8     v8-x64:v8-x64.dll
 0002:000003e0       __imp_?NewInstance@Function@v8@@QEBA?AV?$Local@VObject@v8@@@2@HQEAV?$Handle@VValue@v8@@@2@@Z 00000001800103e0     v8-x64:v8-x64.dll
 0002:000003e8       __imp_?Set@Template@v8@@QEAAXV?$Handle@VName@v8@@@2@V?$Handle@VData@v8@@@2@W4PropertyAttribute@2@@Z 00000001800103e8     v8-x64:v8-x64.dll
 0002:000003f0       __imp_?CreateHandle@HandleScope@v8@@KAPEAPEAVObject@internal@2@PEAVIsolate@42@PEAV342@@Z 00000001800103f0     v8-x64:v8-x64.dll
 0002:000003f8       __imp_?Error@Exception@v8@@SA?AV?$Local@VValue@v8@@@2@V?$Handle@VString@v8@@@2@@Z 00000001800103f8     v8-x64:v8-x64.dll
 0002:00000400       __imp_?New@FunctionTemplate@v8@@SA?AV?$Local@VFunctionTemplate@v8@@@2@PEAVIsolate@2@P6AXAEBV?$FunctionCallbackInfo@VValue@v8@@@2@@ZV?$Handle@VValue@v8@@@2@V?$Handle@VSignature@v8@@@2@H@Z 0000000180010400     v8-x64:v8-x64.dll
 0002:00000408       __imp_?GetFunction@FunctionTemplate@v8@@QEAA?AV?$Local@VFunction@v8@@@2@XZ 0000000180010408     v8-x64:v8-x64.dll
 0002:00000410       __imp_?InstanceTemplate@FunctionTemplate@v8@@QEAA?AV?$Local@VObjectTemplate@v8@@@2@XZ 0000000180010410     v8-x64:v8-x64.dll
 0002:00000418       __imp_?PrototypeTemplate@FunctionTemplate@v8@@QEAA?AV?$Local@VObjectTemplate@v8@@@2@XZ 0000000180010418     v8-x64:v8-x64.dll
 0002:00000420       __imp_?SetClassName@FunctionTemplate@v8@@QEAAXV?$Handle@VString@v8@@@2@@Z 0000000180010420     v8-x64:v8-x64.dll
 0002:00000428       __imp_?ToString@Value@v8@@QEBA?AV?$Local@VString@v8@@@2@XZ 0000000180010428     v8-x64:v8-x64.dll
 0002:00000430       __imp_?GlobalizeReference@V8@v8@@CAPEAPEAVObject@internal@2@PEAVIsolate@42@PEAPEAV342@@Z 0000000180010430     v8-x64:v8-x64.dll
 0002:00000438       __imp_?CopyPersistent@V8@v8@@CAPEAPEAVObject@internal@2@PEAPEAV342@@Z 0000000180010438     v8-x64:v8-x64.dll
 0002:00000440       __imp_?DisposeGlobal@V8@v8@@CAXPEAPEAVObject@internal@2@@Z 0000000180010440     v8-x64:v8-x64.dll
 0002:00000448       __imp_??0Scope@Isolate@v8@@QEAA@PEAV12@@Z 0000000180010448     v8-x64:v8-x64.dll
 0002:00000450       __imp_??1Scope@Isolate@v8@@QEAA@XZ 0000000180010450     v8-x64:v8-x64.dll
 0002:00000458       __imp_?New@External@v8@@SA?AV?$Local@VExternal@v8@@@2@PEAVIsolate@2@PEAX@Z 0000000180010458     v8-x64:v8-x64.dll
 0002:00000460       __imp_?GetCurrent@Isolate@v8@@SAPEAV12@XZ 0000000180010460     v8-x64:v8-x64.dll
 0002:00000468       __imp_?New@Integer@v8@@SA?AV?$Local@VInteger@v8@@@2@PEAVIsolate@2@H@Z 0000000180010468     v8-x64:v8-x64.dll
 0002:00000470       __imp_?Set@Object@v8@@QEAA_NIV?$Handle@VValue@v8@@@2@@Z 0000000180010470     v8-x64:v8-x64.dll
 0002:00000478       __imp_?ForceSet@Object@v8@@QEAA_NV?$Handle@VValue@v8@@@2@0W4PropertyAttribute@2@@Z 0000000180010478     v8-x64:v8-x64.dll
 0002:00000480       __imp_?Get@Object@v8@@QEAA?AV?$Local@VValue@v8@@@2@I@Z 0000000180010480     v8-x64:v8-x64.dll
 0002:00000488       __imp_?Get@Object@v8@@QEAA?AV?$Local@VValue@v8@@@2@V?$Handle@VValue@v8@@@2@@Z 0000000180010488     v8-x64:v8-x64.dll
 0002:00000490       __imp_?GetPropertyAttributes@Object@v8@@QEAA?AW4PropertyAttribute@2@V?$Handle@VValue@v8@@@2@@Z 0000000180010490     v8-x64:v8-x64.dll
 0002:00000498       __imp_?Delete@Object@v8@@QEAA_NI@Z 0000000180010498     v8-x64:v8-x64.dll
 0002:000004a0       __imp_?Delete@Object@v8@@QEAA_NV?$Handle@VValue@v8@@@2@@Z 00000001800104a0     v8-x64:v8-x64.dll
 0002:000004a8       __imp_?SetAccessor@Object@v8@@QEAA_NV?$Handle@VString@v8@@@2@P6AXV?$Local@VString@v8@@@2@AEBV?$PropertyCallbackInfo@VValue@v8@@@2@@ZP6AX1V?$Local@VValue@v8@@@2@AEBV?$PropertyCallbackInfo@X@2@@ZV?$Handle@VValue@v8@@@2@W4AccessControl@2@W4PropertyAttribute@2@@Z 00000001800104a8     v8-x64:v8-x64.dll
 0002:000004b0       __imp_?GetPropertyNames@Object@v8@@QEAA?AV?$Local@VArray@v8@@@2@XZ 00000001800104b0     v8-x64:v8-x64.dll
 0002:000004b8       __imp_?GetOwnPropertyNames@Object@v8@@QEAA?AV?$Local@VArray@v8@@@2@XZ 00000001800104b8     v8-x64:v8-x64.dll
 0002:000004c0       __imp_?GetPrototype@Object@v8@@QEAA?AV?$Local@VValue@v8@@@2@XZ 00000001800104c0     v8-x64:v8-x64.dll
 0002:000004c8       __imp_?InternalFieldCount@Object@v8@@QEAAHXZ 00000001800104c8     v8-x64:v8-x64.dll
 0002:000004d0       __imp_?IsFalse@Value@v8@@QEBA_NXZ 00000001800104d0     v8-x64:v8-x64.dll
 0002:000004d8       __imp_?New@Isolate@v8@@SAPEAV12@XZ 00000001800104d8     v8-x64:v8-x64.dll
 0002:000004e0       __imp_?SetInternalField@Object@v8@@QEAAXHV?$Handle@VValue@v8@@@2@@Z 00000001800104e0     v8-x64:v8-x64.dll
 0002:000004e8       __imp_?SetAlignedPointerInInternalField@Object@v8@@QEAAXHPEAX@Z 00000001800104e8     v8-x64:v8-x64.dll
 0002:000004f0       __imp_?SetHiddenValue@Object@v8@@QEAA_NV?$Handle@VString@v8@@@2@V?$Handle@VValue@v8@@@2@@Z 00000001800104f0     v8-x64:v8-x64.dll
 0002:000004f8       __imp_??0HandleScope@v8@@QEAA@PEAVIsolate@1@@Z 00000001800104f8     v8-x64:v8-x64.dll
 0002:00000500       __imp_??1HandleScope@v8@@QEAA@XZ 0000000180010500     v8-x64:v8-x64.dll
 0002:00000508       __imp_?Length@Array@v8@@QEBAIXZ 0000000180010508     v8-x64:v8-x64.dll
 0002:00000510       __imp_?New@Array@v8@@SA?AV?$Local@VArray@v8@@@2@PEAVIsolate@2@H@Z 0000000180010510     v8-x64:v8-x64.dll
 0002:00000518       __imp_?NewFromUtf8@String@v8@@SA?AV?$Local@VString@v8@@@2@PEAVIsolate@2@PEBDW4NewStringType@12@H@Z 0000000180010518     v8-x64:v8-x64.dll
 0002:00000520       __imp_?NewFromTwoByte@String@v8@@SA?AV?$Local@VString@v8@@@2@PEAVIsolate@2@PEBGW4NewStringType@12@H@Z 0000000180010520     v8-x64:v8-x64.dll
 0002:00000528       __imp_?IsArray@Value@v8@@QEBA_NXZ 0000000180010528     v8-x64:v8-x64.dll
 0002:00000530       __imp_?IsObject@Value@v8@@QEBA_NXZ 0000000180010530     v8-x64:v8-x64.dll
 0002:00000538       __imp_?Enter@Context@v8@@QEAAXXZ 0000000180010538     v8-x64:v8-x64.dll
 0002:00000540       __imp_?Exit@Context@v8@@QEAAXXZ 0000000180010540     v8-x64:v8-x64.dll
 0002:00000548       __imp_??1Locker@v8@@QEAA@XZ 0000000180010548     v8-x64:v8-x64.dll
 0002:00000550       __imp_?Initialize@Locker@v8@@AEAAXPEAVIsolate@2@@Z 0000000180010550     v8-x64:v8-x64.dll
 0002:00000558       \177v8-x64_NULL_THUNK_DATA 0000000180010558     v8-x64:v8-x64.dll
 0002:00000560       __xc_a                     0000000180010560     MSVCRT:cinitexe.obj
 0002:00000588       __xc_z                     0000000180010588     MSVCRT:cinitexe.obj
 0002:00000590       __xi_a                     0000000180010590     MSVCRT:cinitexe.obj
 0002:000005a8       __xi_z                     00000001800105a8     MSVCRT:cinitexe.obj
 0002:000005f0       ??_7type_info@@6B@         00000001800105f0     MSVCRT:ti_inst.obj
 0002:000005f8       _pRawDllMain               00000001800105f8     MSVCRT:crtdll.obj
 0002:000005f8       _pDefaultRawDllMain        00000001800105f8     MSVCRT:crtdll.obj
 0002:00000610       ??_C@_0BL@OFLPLJAM@Not?5a?5valid?5script?5handle?4?$AA@ 0000000180010610     Exports.obj
 0002:00000630       ??_C@_0BA@MLFILMMN@ManagedObjectID?$AA@ 0000000180010630     Exports.obj
 0002:00000640       ??_C@_0CJ@MCOIAANP@The?5handle?5does?5not?5represent?5an@ 0000000180010640     Exports.obj
 0002:00000670       ??_C@_0CP@MICEEFHB@The?5handle?5does?5not?5represent?5an@ 0000000180010670     Exports.obj
 0002:000006a0       ??_C@_0EE@OBNIJAJP@?8Data?8?5points?5to?5an?5invalid?5obje@ 00000001800106a0     Exports.obj
 0002:000006e8       ??_C@_0CB@PFDHPICG@?8args?4Data?$CI?$CJ?8?5is?5not?5recognized?4@ 00000001800106e8     FunctionTemplateProxy.obj
 0002:00000710       ??_C@_09JOONBBPD@$__TypeID?$AA@ 0000000180010710     HandleProxy.obj
 0002:00000720       ??_C@_08NKLFIIDP@$__Value?$AA@ 0000000180010720     HandleProxy.obj
 0002:0000072c       ??_C@_02PCIJFNDE@?$AN?6?$AA@ 000000018001072c     V8EngineProxy.obj
 0002:00000730       ??_C@_08FIKDMAMC@?5?5Line?3?5?$AA@ 0000000180010730     V8EngineProxy.obj
 0002:00000740       ??_C@_0L@KCLHICAK@?5?5Column?3?5?$AA@ 0000000180010740     V8EngineProxy.obj
 0002:00000750       ??_C@_09FPDCPDGD@?5?5Stack?3?5?$AA@ 0000000180010750     V8EngineProxy.obj
 0002:0000075c       ??_C@_11LOCGONAA@?$AA?$AA@ 000000018001075c     V8EngineProxy.obj
 0002:00000760       ??_C@_0EI@NBCEMGHA@Call?3?5The?5target?5instance?5handle@ 0000000180010760     V8EngineProxy.obj
 0002:000007a8       ??_C@_0DH@GEIHKHBI@Call?3?5The?5subject?5handle?5does?5no@ 00000001800107a8     V8EngineProxy.obj
 0002:000007e0       ??_C@_0DM@EFLNDFCL@Call?3?5The?5specified?5property?5doe@ 00000001800107e0     V8EngineProxy.obj
 0002:00000820       ??_C@_0DI@IBPEFPGB@Call?3?5The?5subject?5handle?5does?5no@ 0000000180010820     V8EngineProxy.obj
 0002:00000858       ??_C@_0BE@HBKMHPCH@Invalid?5error?5type?4?$AA@ 0000000180010858     V8EngineProxy.obj
 0002:00000870       ??_C@_0BM@NMJKDPPO@invalid?5vector?$DMT?$DO?5subscript?$AA@ 0000000180010870     V8EngineProxy.obj
 0002:00000890       ??_C@_0BG@EOMJEIFA@vector?$DMbool?$DO?5too?5long?$AA@ 0000000180010890     V8EngineProxy.obj
 0002:000008a8       ??_C@_0BD@OLBABOEK@vector?$DMT?$DO?5too?5long?$AA@ 00000001800108a8     V8EngineProxy.obj
 0002:000008c0       ??_C@_07DCLBNMLN@generic?$AA@ 00000001800108c0     v8_libplatform:default-platform.obj
 0002:000008c8       ??_C@_0O@BFJCFAAK@unknown?5error?$AA@ 00000001800108c8     v8_libplatform:default-platform.obj
 0002:000008d8       ??_C@_08LLGCOLLL@iostream?$AA@ 00000001800108d8     v8_libplatform:default-platform.obj
 0002:000008e8       ??_C@_0BG@PADBLCHM@iostream?5stream?5error?$AA@ 00000001800108e8     v8_libplatform:default-platform.obj
 0002:00000900       ??_C@_06FHFOAHML@system?$AA@ 0000000180010900     v8_libplatform:default-platform.obj
 0002:00000908       ??_C@_0BA@JFNIOLAK@string?5too?5long?$AA@ 0000000180010908     v8_libplatform:default-platform.obj
 0002:00000918       ??_C@_0BI@CFPLBAOH@invalid?5string?5position?$AA@ 0000000180010918     v8_libplatform:default-platform.obj
 0002:00000930       ??_C@_0BC@KBDMBKEH@deque?$DMT?$DO?5too?5long?$AA@ 0000000180010930     v8_libplatform:default-platform.obj
 0002:00000948       ??_C@_0BE@JONHPENG@map?1set?$DMT?$DO?5too?5long?$AA@ 0000000180010948     v8_libplatform:default-platform.obj
 0002:00000960       ??_7_Generic_error_category@std@@6B@ 0000000180010960     v8_libplatform:default-platform.obj
 0002:00000990       ?kMaxThreadPoolSize@DefaultPlatform@platform@v8@@0HB 0000000180010990     v8_libplatform:default-platform.obj
 0002:00000998       ??_7_System_error_category@std@@6B@ 0000000180010998     v8_libplatform:default-platform.obj
 0002:000009c8       ??_7_Iostream_error_category@std@@6B@ 00000001800109c8     v8_libplatform:default-platform.obj
 0002:000009f8       ??_7DefaultPlatform@platform@v8@@6B@ 00000001800109f8     v8_libplatform:default-platform.obj
 0002:00000a10       ??_7error_category@std@@6B@ 0000000180010a10     v8_libplatform:default-platform.obj
 0002:00000a40       ??_7Platform@v8@@6B@       0000000180010a40     v8_libplatform:default-platform.obj
 0002:00000a58       ??_C@_0BA@OLGCHPPO@V8?5WorkerThread?$AA@ 0000000180010a58     v8_libplatform:worker-thread.obj
 0002:00000a68       ??_7WorkerThread@platform@v8@@6B@ 0000000180010a68     v8_libplatform:worker-thread.obj
 0002:00000a78       ??_7Thread@base@v8@@6B@    0000000180010a78     v8_libbase:platform-win32.obj
 0002:00001ad0       _load_config_used          0000000180011ad0     MSVCRT:loadcfg.obj
 0002:00001bc0       ??_R4type_info@@6B@        0000000180011bc0     MSVCRT:ti_inst.obj
 0002:00001be8       ??_R3type_info@@8          0000000180011be8     MSVCRT:ti_inst.obj
 0002:00001c00       ??_R2type_info@@8          0000000180011c00     MSVCRT:ti_inst.obj
 0002:00001c10       ??_R1A@?0A@EA@type_info@@8 0000000180011c10     MSVCRT:ti_inst.obj
 0002:00001c38       __rtc_iaa                  0000000180011c38     MSVCRT:initsect.obj
 0002:00001c40       __rtc_izz                  0000000180011c40     MSVCRT:initsect.obj
 0002:00001c48       __rtc_taa                  0000000180011c48     MSVCRT:initsect.obj
 0002:00001c50       __rtc_tzz                  0000000180011c50     MSVCRT:initsect.obj
 0002:00005540       _CT??_R0?AVexception@std@@@8??0exception@std@@QEAA@AEBV01@@Z24 0000000180015540     Exports.obj
 0002:00005568       _TI1?AVexception@std@@     0000000180015568     Exports.obj
 0002:00005588       _CTA1?AVexception@std@@    0000000180015588     Exports.obj
 0002:00005d20       __IMPORT_DESCRIPTOR_v8-x64 0000000180015d20     v8-x64:v8-x64.dll
 0002:00005d34       __IMPORT_DESCRIPTOR_KERNEL32 0000000180015d34     kernel32:KERNEL32.dll
 0002:00005d48       __IMPORT_DESCRIPTOR_MSVCP120 0000000180015d48     msvcprt:MSVCP120.dll
 0002:00005d5c       __IMPORT_DESCRIPTOR_MSVCR120 0000000180015d5c     MSVCRT:MSVCR120.dll
 0002:00005d70       __NULL_IMPORT_DESCRIPTOR   0000000180015d70     v8-x64:v8-x64.dll
 0003:00000000       __security_cookie          0000000180019000     MSVCRT:gs_cookie.obj
 0003:00000008       __security_cookie_complement 0000000180019008     MSVCRT:gs_cookie.obj
 0003:00000010       __native_dllmain_reason    0000000180019010     MSVCRT:natstart.obj
 0003:00000018       ?_System_object@?$_Error_objects@H@std@@2V_System_error_category@2@A 0000000180019018     v8_libplatform:default-platform.obj
 0003:00000020       ?_Iostream_object@?$_Error_objects@H@std@@2V_Iostream_error_category@2@A 0000000180019020     v8_libplatform:default-platform.obj
 0003:00000028       ?_Generic_object@?$_Error_objects@H@std@@2V_Generic_error_category@2@A 0000000180019028     v8_libplatform:default-platform.obj
 0003:00000030       _fltused                   0000000180019030     MSVCRT:dllsupp.obj
 0003:00000038       ??_R0?AVtype_info@@@8      0000000180019038     MSVCRT:ti_inst.obj
 0003:00000058       ??_R0?AVexception@std@@@8  0000000180019058     Exports.obj
 0003:00000608       ?__type_info_root_node@@3U__type_info_node@@A 0000000180019608     MSVCRT:tncleanup.obj
 0003:00000624       ?_NextEngineID@V8EngineProxy@@1HA 0000000180019624     V8EngineProxy.obj
 0003:00000628       ?_SymSetOptions@base@v8@@3P6AKK@ZEA 0000000180019628     v8_libbase:platform-win32.obj
 0003:00000630       ?_SymFunctionTableAccess64@base@v8@@3P6APEAXPEAX_K@ZEA 0000000180019630     v8_libbase:platform-win32.obj
 0003:00000638       ?_SymGetLineFromAddr64@base@v8@@3P6AHPEAX_KPEAKPEAU_IMAGEHLP_LINE64@@@ZEA 0000000180019638     v8_libbase:platform-win32.obj
 0003:00000640       ?_SymGetOptions@base@v8@@3P6AKXZEA 0000000180019640     v8_libbase:platform-win32.obj
 0003:00000648       ?_StackWalk64@base@v8@@3P6AHKPEAX0PEAU_tagSTACKFRAME64@@0P6AH0_K0KPEAK@ZP6APEAX02@ZP6A_K02@ZP6A_K00PEAU_tagADDRESS64@@@Z@ZEA 0000000180019648     v8_libbase:platform-win32.obj
 0003:00000650       ?_Module32NextW@base@v8@@3P6AHPEAXPEAUtagMODULEENTRY32W@@@ZEA 0000000180019650     v8_libbase:platform-win32.obj
 0003:00000658       ?_SymLoadModule64@base@v8@@3P6A_KPEAX0PEAD1_KK@ZEA 0000000180019658     v8_libbase:platform-win32.obj
 0003:00000688       ?_CreateToolhelp32Snapshot@base@v8@@3P6APEAXKK@ZEA 0000000180019688     v8_libbase:platform-win32.obj
 0003:00000690       ?_SymGetModuleBase64@base@v8@@3P6A_KPEAX_K@ZEA 0000000180019690     v8_libbase:platform-win32.obj
 0003:00000698       ?_Module32FirstW@base@v8@@3P6AHPEAXPEAUtagMODULEENTRY32W@@@ZEA 0000000180019698     v8_libbase:platform-win32.obj
 0003:000006a0       ?_SymInitialize@base@v8@@3P6AHPEAXPEADH@ZEA 00000001800196a0     v8_libbase:platform-win32.obj
 0003:000006a8       ?_SymGetSymFromAddr64@base@v8@@3P6AHPEAX_KPEA_KPEAU_IMAGEHLP_SYMBOL64@@@ZEA 00000001800196a8     v8_libbase:platform-win32.obj
 0003:000006b0       ?_SymGetSearchPath@base@v8@@3P6AHPEAXPEADK@ZEA 00000001800196b0     v8_libbase:platform-win32.obj
 0003:000007c8       ?_DisposedEngines@V8EngineProxy@@1V?$vector@_NV?$allocator@_N@std@@@std@@A 00000001800197c8     V8EngineProxy.obj
 0003:00000800       ?id@?$num_put@_WV?$back_insert_iterator@V?$basic_string@_WU?$char_traits@_W@std@@V?$allocator@_W@2@@std@@@std@@@std@@2V0locale@2@A 0000000180019800     v8_libplatform:default-platform.obj
 0003:00000808       ?id@?$num_put@DV?$back_insert_iterator@V?$basic_string@DU?$char_traits@D@std@@V?$allocator@D@2@@std@@@std@@@std@@2V0locale@2@A 0000000180019808     v8_libplatform:default-platform.obj
 0003:00000810       __native_startup_lock      0000000180019810     <common>
 0003:00000818       __native_startup_state     0000000180019818     <common>
 0003:00000820       __dyn_tls_init_callback    0000000180019820     <common>
 0003:00000828       __onexitend                0000000180019828     <common>
 0003:00000830       __onexitbegin              0000000180019830     <common>

 entry point at        0001:0000c808

 Static symbols

 0000:fffe3000       .debug$S                   0000000180000000     MSVCRT:MSVCR120.dll
 0000:fffe3000       .debug$S                   0000000180000000     MSVCRT:MSVCR120.dll
 0000:fffe3000       .debug$S                   0000000180000000     MSVCRT:MSVCR120.dll
 0000:fffe3000       .debug$S                   0000000180000000     MSVCRT:MSVCR120.dll
 0000:fffe3000       .debug$S                   0000000180000000     MSVCRT:MSVCR120.dll
 0000:fffe3000       .debug$S                   0000000180000000     MSVCRT:MSVCR120.dll
 0000:fffe3000       .debug$S                   0000000180000000     MSVCRT:MSVCR120.dll
 0000:fffe3000       .debug$S                   0000000180000000     MSVCRT:MSVCR120.dll
 0000:fffe3000       .debug$S                   0000000180000000     v8-x64:v8-x64.dll
 0000:fffe3000       .debug$S                   0000000180000000     v8-x64:v8-x64.dll
 0000:fffe3000       .debug$S                   0000000180000000     v8-x64:v8-x64.dll
 0000:fffe3000       .debug$S                   0000000180000000     v8-x64:v8-x64.dll
 0000:fffe3000       .debug$S                   0000000180000000     v8-x64:v8-x64.dll
 0000:fffe3000       .debug$S                   0000000180000000     v8-x64:v8-x64.dll
 0000:fffe3000       .debug$S                   0000000180000000     v8-x64:v8-x64.dll
 0000:fffe3000       .debug$S                   0000000180000000     v8-x64:v8-x64.dll
 0000:fffe3000       .debug$S                   0000000180000000     v8-x64:v8-x64.dll
 0000:fffe3000       .debug$S                   0000000180000000     v8-x64:v8-x64.dll
 0000:fffe3000       .debug$S                   0000000180000000     v8-x64:v8-x64.dll
 0000:fffe3000       .debug$S                   0000000180000000     v8-x64:v8-x64.dll
 0000:fffe3000       .debug$S                   0000000180000000     v8-x64:v8-x64.dll
 0000:fffe3000       .debug$S                   0000000180000000     v8-x64:v8-x64.dll
 0000:fffe3000       .debug$S                   0000000180000000     v8-x64:v8-x64.dll
 0000:fffe3000       .debug$S                   0000000180000000     v8-x64:v8-x64.dll
 0000:fffe3000       .debug$S                   0000000180000000     v8-x64:v8-x64.dll
 0000:fffe3000       .debug$S                   0000000180000000     v8-x64:v8-x64.dll
 0000:fffe3000       .debug$S                   0000000180000000     v8-x64:v8-x64.dll
 0000:fffe3000       .debug$S                   0000000180000000     v8-x64:v8-x64.dll
 0000:fffe3000       .debug$S                   0000000180000000     v8-x64:v8-x64.dll
 0000:fffe3000       .debug$S                   0000000180000000     v8-x64:v8-x64.dll
 0000:fffe3000       .debug$S                   0000000180000000     v8-x64:v8-x64.dll
 0000:fffe3000       .debug$S                   0000000180000000     v8-x64:v8-x64.dll
 0000:fffe3000       .debug$S                   0000000180000000     v8-x64:v8-x64.dll
 0000:fffe3000       .debug$S                   0000000180000000     v8-x64:v8-x64.dll
 0000:fffe3000       .debug$S                   0000000180000000     v8-x64:v8-x64.dll
 0000:fffe3000       .debug$S                   0000000180000000     v8-x64:v8-x64.dll
 0000:fffe3000       .debug$S                   0000000180000000     v8-x64:v8-x64.dll
 0000:fffe3000       .debug$S                   0000000180000000     v8-x64:v8-x64.dll
 0000:fffe3000       .debug$S                   0000000180000000     v8-x64:v8-x64.dll
 0000:fffe3000       .debug$S                   0000000180000000     v8-x64:v8-x64.dll
 0000:fffe3000       .debug$S                   0000000180000000     v8-x64:v8-x64.dll
 0000:fffe3000       .debug$S                   0000000180000000     v8-x64:v8-x64.dll
 0000:fffe3000       .debug$S                   0000000180000000     v8-x64:v8-x64.dll
 0000:fffe3000       .debug$S                   0000000180000000     v8-x64:v8-x64.dll
 0000:fffe3000       .debug$S                   0000000180000000     v8-x64:v8-x64.dll
 0000:fffe3000       .debug$S                   0000000180000000     v8-x64:v8-x64.dll
 0000:fffe3000       .debug$S                   0000000180000000     v8-x64:v8-x64.dll
 0000:fffe3000       .debug$S                   0000000180000000     v8-x64:v8-x64.dll
 0000:fffe3000       .debug$S                   0000000180000000     v8-x64:v8-x64.dll
 0000:fffe3000       .debug$S                   0000000180000000     v8-x64:v8-x64.dll
 0000:fffe3000       .debug$S                   0000000180000000     v8-x64:v8-x64.dll
 0000:fffe3000       .debug$S                   0000000180000000     v8-x64:v8-x64.dll
 0000:fffe3000       .debug$S                   0000000180000000     v8-x64:v8-x64.dll
 0000:fffe3000       .debug$S                   0000000180000000     v8-x64:v8-x64.dll
 0000:fffe3000       .debug$S                   0000000180000000     v8-x64:v8-x64.dll
 0000:fffe3000       .debug$S                   0000000180000000     v8-x64:v8-x64.dll
 0000:fffe3000       .debug$S                   0000000180000000     v8-x64:v8-x64.dll
 0000:fffe3000       .debug$S                   0000000180000000     v8-x64:v8-x64.dll
 0000:fffe3000       .debug$S                   0000000180000000     v8-x64:v8-x64.dll
 0000:fffe3000       .debug$S                   0000000180000000     v8-x64:v8-x64.dll
 0000:fffe3000       .debug$S                   0000000180000000     v8-x64:v8-x64.dll
 0000:fffe3000       .debug$S                   0000000180000000     v8-x64:v8-x64.dll
 0000:fffe3000       .debug$S                   0000000180000000     v8-x64:v8-x64.dll
 0000:fffe3000       .debug$S                   0000000180000000     v8-x64:v8-x64.dll
 0000:fffe3000       .debug$S                   0000000180000000     v8-x64:v8-x64.dll
 0000:fffe3000       .debug$S                   0000000180000000     v8-x64:v8-x64.dll
 0000:fffe3000       .debug$S                   0000000180000000     v8-x64:v8-x64.dll
 0000:fffe3000       .debug$S                   0000000180000000     v8-x64:v8-x64.dll
 0000:fffe3000       .debug$S                   0000000180000000     v8-x64:v8-x64.dll
 0000:fffe3000       .debug$S                   0000000180000000     v8-x64:v8-x64.dll
 0000:fffe3000       .debug$S                   0000000180000000     v8-x64:v8-x64.dll
 0000:fffe3000       .debug$S                   0000000180000000     v8-x64:v8-x64.dll
 0000:fffe3000       .debug$S                   0000000180000000     v8-x64:v8-x64.dll
 0000:fffe3000       .debug$S                   0000000180000000     v8-x64:v8-x64.dll
 0000:fffe3000       .debug$S                   0000000180000000     v8-x64:v8-x64.dll
 0000:fffe3000       .debug$S                   0000000180000000     v8-x64:v8-x64.dll
 0000:fffe3000       .debug$S                   0000000180000000     v8-x64:v8-x64.dll
 0000:fffe3000       .debug$S                   0000000180000000     v8-x64:v8-x64.dll
 0000:fffe3000       .debug$S                   0000000180000000     v8-x64:v8-x64.dll
 0000:fffe3000       .debug$S                   0000000180000000     v8-x64:v8-x64.dll
 0000:fffe3000       .debug$S                   0000000180000000     v8-x64:v8-x64.dll
 0000:fffe3000       .debug$S                   0000000180000000     v8-x64:v8-x64.dll
 0000:fffe3000       .debug$S                   0000000180000000     v8-x64:v8-x64.dll
 0000:fffe3000       .debug$S                   0000000180000000     v8-x64:v8-x64.dll
 0000:fffe3000       .debug$S                   0000000180000000     v8-x64:v8-x64.dll
 0000:fffe3000       .debug$S                   0000000180000000     v8-x64:v8-x64.dll
 0000:fffe3000       .debug$S                   0000000180000000     v8-x64:v8-x64.dll
 0000:fffe3000       .debug$S                   0000000180000000     v8-x64:v8-x64.dll
 0000:fffe3000       .debug$S                   0000000180000000     v8-x64:v8-x64.dll
 0000:fffe3000       .debug$S                   0000000180000000     v8-x64:v8-x64.dll
 0000:fffe3000       .debug$S                   0000000180000000     v8-x64:v8-x64.dll
 0000:fffe3000       .debug$S                   0000000180000000     v8-x64:v8-x64.dll
 0000:fffe3000       .debug$S                   0000000180000000     v8-x64:v8-x64.dll
 0000:fffe3000       .debug$S                   0000000180000000     v8-x64:v8-x64.dll
 0000:fffe3000       .debug$S                   0000000180000000     v8-x64:v8-x64.dll
 0000:fffe3000       .debug$S                   0000000180000000     v8-x64:v8-x64.dll
 0000:fffe3000       .debug$S                   0000000180000000     v8-x64:v8-x64.dll
 0000:fffe3000       .debug$S                   0000000180000000     v8-x64:v8-x64.dll
 0000:fffe3000       .debug$S                   0000000180000000     v8-x64:v8-x64.dll
 0000:fffe3000       .debug$S                   0000000180000000     v8-x64:v8-x64.dll
 0000:fffe3000       .debug$S                   0000000180000000     v8-x64:v8-x64.dll
 0000:fffe3000       .debug$S                   0000000180000000     v8-x64:v8-x64.dll
 0000:fffe3000       .debug$S                   0000000180000000     v8-x64:v8-x64.dll
 0000:fffe3000       .debug$S                   0000000180000000     v8-x64:v8-x64.dll
 0000:fffe3000       .debug$S                   0000000180000000     v8-x64:v8-x64.dll
 0000:fffe3000       .debug$S                   0000000180000000     v8-x64:v8-x64.dll
 0000:fffe3000       .debug$S                   0000000180000000     v8-x64:v8-x64.dll
 0000:fffe3000       .debug$S                   0000000180000000     v8-x64:v8-x64.dll
 0000:fffe3000       .debug$S                   0000000180000000     v8-x64:v8-x64.dll
 0000:fffe3000       .debug$S                   0000000180000000     v8-x64:v8-x64.dll
 0000:fffe3000       .debug$S                   0000000180000000     v8-x64:v8-x64.dll
 0000:fffe3000       .debug$S                   0000000180000000     v8-x64:v8-x64.dll
 0000:fffe3000       .debug$S                   0000000180000000     v8-x64:v8-x64.dll
 0000:fffe3000       .debug$S                   0000000180000000     v8-x64:v8-x64.dll
 0000:fffe3000       .debug$S                   0000000180000000     v8-x64:v8-x64.dll
 0000:fffe3000       .debug$S                   0000000180000000     v8-x64:v8-x64.dll
 0000:fffe3000       .debug$S                   0000000180000000     v8-x64:v8-x64.dll
 0000:fffe3000       .debug$S                   0000000180000000     v8-x64:v8-x64.dll
 0000:fffe3000       .debug$S                   0000000180000000     v8-x64:v8-x64.dll
 0000:fffe3000       .debug$S                   0000000180000000     v8-x64:v8-x64.dll
 0000:fffe3000       .debug$S                   0000000180000000     v8-x64:v8-x64.dll
 0000:fffe3000       .debug$S                   0000000180000000     v8-x64:v8-x64.dll
 0000:fffe3000       .debug$S                   0000000180000000     v8-x64:v8-x64.dll
 0000:fffe3000       .debug$S                   0000000180000000     v8-x64:v8-x64.dll
 0000:fffe3000       .debug$S                   0000000180000000     v8-x64:v8-x64.dll
 0000:fffe3000       .debug$S                   0000000180000000     v8-x64:v8-x64.dll
 0000:fffe3000       .debug$S                   0000000180000000     v8-x64:v8-x64.dll
 0000:fffe3000       .debug$S                   0000000180000000     v8-x64:v8-x64.dll
 0000:fffe3000       .debug$S                   0000000180000000     v8-x64:v8-x64.dll
 0000:fffe3000       .debug$S                   0000000180000000     kernel32:KERNEL32.dll
 0000:fffe3000       .debug$S                   0000000180000000     kernel32:KERNEL32.dll
 0000:fffe3000       .debug$S                   0000000180000000     kernel32:KERNEL32.dll
 0000:fffe3000       .debug$S                   0000000180000000     kernel32:KERNEL32.dll
 0000:fffe3000       .debug$S                   0000000180000000     kernel32:KERNEL32.dll
 0000:fffe3000       .debug$S                   0000000180000000     kernel32:KERNEL32.dll
 0000:fffe3000       .debug$S                   0000000180000000     kernel32:KERNEL32.dll
 0000:fffe3000       .debug$S                   0000000180000000     kernel32:KERNEL32.dll
 0000:fffe3000       .debug$S                   0000000180000000     kernel32:KERNEL32.dll
 0000:fffe3000       .debug$S                   0000000180000000     kernel32:KERNEL32.dll
 0000:fffe3000       .debug$S                   0000000180000000     kernel32:KERNEL32.dll
 0000:fffe3000       .debug$S                   0000000180000000     kernel32:KERNEL32.dll
 0000:fffe3000       .debug$S                   0000000180000000     kernel32:KERNEL32.dll
 0000:fffe3000       .debug$S                   0000000180000000     kernel32:KERNEL32.dll
 0000:fffe3000       .debug$S                   0000000180000000     kernel32:KERNEL32.dll
 0000:fffe3000       .debug$S                   0000000180000000     kernel32:KERNEL32.dll
 0000:fffe3000       .debug$S                   0000000180000000     kernel32:KERNEL32.dll
 0000:fffe3000       .debug$S                   0000000180000000     kernel32:KERNEL32.dll
 0000:fffe3000       .debug$S                   0000000180000000     kernel32:KERNEL32.dll
 0000:fffe3000       .debug$S                   0000000180000000     kernel32:KERNEL32.dll
 0000:fffe3000       .debug$S                   0000000180000000     kernel32:KERNEL32.dll
 0000:fffe3000       .debug$S                   0000000180000000     kernel32:KERNEL32.dll
 0000:fffe3000       .debug$S                   0000000180000000     kernel32:KERNEL32.dll
 0000:fffe3000       .debug$S                   0000000180000000     kernel32:KERNEL32.dll
 0000:fffe3000       .debug$S                   0000000180000000     kernel32:KERNEL32.dll
 0000:fffe3000       .debug$S                   0000000180000000     kernel32:KERNEL32.dll
 0000:fffe3000       .debug$S                   0000000180000000     kernel32:KERNEL32.dll
 0000:fffe3000       .debug$S                   0000000180000000     kernel32:KERNEL32.dll
 0000:fffe3000       .debug$S                   0000000180000000     kernel32:KERNEL32.dll
 0000:fffe3000       .debug$S                   0000000180000000     kernel32:KERNEL32.dll
 0000:fffe3000       .debug$S                   0000000180000000     kernel32:KERNEL32.dll
 0000:fffe3000       .debug$S                   0000000180000000     kernel32:KERNEL32.dll
 0000:fffe3000       .debug$S                   0000000180000000     kernel32:KERNEL32.dll
 0000:fffe3000       .debug$S                   0000000180000000     kernel32:KERNEL32.dll
 0000:fffe3000       .debug$S                   0000000180000000     kernel32:KERNEL32.dll
 0000:fffe3000       .debug$S                   0000000180000000     kernel32:KERNEL32.dll
 0000:fffe3000       .debug$S                   0000000180000000     kernel32:KERNEL32.dll
 0000:fffe3000       .debug$S                   0000000180000000     kernel32:KERNEL32.dll
 0000:fffe3000       .debug$S                   0000000180000000     kernel32:KERNEL32.dll
 0000:fffe3000       .debug$S                   0000000180000000     kernel32:KERNEL32.dll
 0000:fffe3000       .debug$S                   0000000180000000     kernel32:KERNEL32.dll
 0000:fffe3000       .debug$S                   0000000180000000     kernel32:KERNEL32.dll
 0000:fffe3000       .debug$S                   0000000180000000     kernel32:KERNEL32.dll
 0000:fffe3000       .debug$S                   0000000180000000     kernel32:KERNEL32.dll
 0000:fffe3000       .debug$S                   0000000180000000     kernel32:KERNEL32.dll
 0000:fffe3000       .debug$S                   0000000180000000     kernel32:KERNEL32.dll
 0000:fffe3000       .debug$S                   0000000180000000     kernel32:KERNEL32.dll
 0000:fffe3000       .debug$S                   0000000180000000     kernel32:KERNEL32.dll
 0000:fffe3000       .debug$S                   0000000180000000     kernel32:KERNEL32.dll
 0000:fffe3000       .debug$S                   0000000180000000     kernel32:KERNEL32.dll
 0000:fffe3000       .debug$S                   0000000180000000     kernel32:KERNEL32.dll
 0000:fffe3000       .debug$S                   0000000180000000     kernel32:KERNEL32.dll
 0000:fffe3000       .debug$S                   0000000180000000     kernel32:KERNEL32.dll
 0000:fffe3000       .debug$S                   0000000180000000     msvcprt:MSVCP120.dll
 0000:fffe3000       .debug$S                   0000000180000000     msvcprt:MSVCP120.dll
 0000:fffe3000       .debug$S                   0000000180000000     msvcprt:MSVCP120.dll
 0000:fffe3000       .debug$S                   0000000180000000     msvcprt:MSVCP120.dll
 0000:fffe3000       .debug$S                   0000000180000000     msvcprt:MSVCP120.dll
 0000:fffe3000       .debug$S                   0000000180000000     msvcprt:MSVCP120.dll
 0000:fffe3000       .debug$S                   0000000180000000     msvcprt:MSVCP120.dll
 0000:fffe3000       .debug$S                   0000000180000000     msvcprt:MSVCP120.dll
 0000:fffe3000       .debug$S                   0000000180000000     msvcprt:MSVCP120.dll
 0000:fffe3000       .debug$S                   0000000180000000     msvcprt:MSVCP120.dll
 0000:fffe3000       .debug$S                   0000000180000000     msvcprt:MSVCP120.dll
 0000:fffe3000       .debug$S                   0000000180000000     msvcprt:MSVCP120.dll
 0000:fffe3000       .debug$S                   0000000180000000     msvcprt:MSVCP120.dll
 0000:fffe3000       .debug$S                   0000000180000000     msvcprt:MSVCP120.dll
 0000:fffe3000       .debug$S                   0000000180000000     msvcprt:MSVCP120.dll
 0000:fffe3000       .debug$S                   0000000180000000     msvcprt:MSVCP120.dll
 0000:fffe3000       .debug$S                   0000000180000000     winmm:WINMM.dll
 0002:ffff0000       .idata$6                   0000000180000000     winmm:WINMM.dll
 0000:fffe3000       .debug$S                   0000000180000000     MSVCRT:MSVCR120.dll
 0000:fffe3000       .debug$S                   0000000180000000     MSVCRT:MSVCR120.dll
 0000:fffe3000       .debug$S                   0000000180000000     MSVCRT:MSVCR120.dll
 0000:fffe3000       .debug$S                   0000000180000000     MSVCRT:MSVCR120.dll
 0000:fffe3000       .debug$S                   0000000180000000     MSVCRT:MSVCR120.dll
 0000:fffe3000       .debug$S                   0000000180000000     MSVCRT:MSVCR120.dll
 0000:fffe3000       .debug$S                   0000000180000000     MSVCRT:MSVCR120.dll
 0000:fffe3000       .debug$S                   0000000180000000     MSVCRT:MSVCR120.dll
 0000:fffe3000       .debug$S                   0000000180000000     MSVCRT:MSVCR120.dll
 0000:fffe3000       .debug$S                   0000000180000000     MSVCRT:MSVCR120.dll
 0000:fffe3000       .debug$S                   0000000180000000     MSVCRT:MSVCR120.dll
 0000:fffe3000       .debug$S                   0000000180000000     MSVCRT:MSVCR120.dll
 0000:fffe3000       .debug$S                   0000000180000000     MSVCRT:MSVCR120.dll
 0000:fffe3000       .debug$S                   0000000180000000     MSVCRT:MSVCR120.dll
 0000:fffe3000       .debug$S                   0000000180000000     MSVCRT:MSVCR120.dll
 0000:fffe3000       .debug$S                   0000000180000000     MSVCRT:MSVCR120.dll
 0000:fffe3000       .debug$S                   0000000180000000     MSVCRT:MSVCR120.dll
 0000:fffe3000       .debug$S                   0000000180000000     MSVCRT:MSVCR120.dll
 0000:fffe3000       .debug$S                   0000000180000000     MSVCRT:MSVCR120.dll
 0000:fffe3000       .debug$S                   0000000180000000     MSVCRT:MSVCR120.dll
 0000:fffe3000       .debug$S                   0000000180000000     MSVCRT:MSVCR120.dll
 0000:fffe3000       .debug$S                   0000000180000000     MSVCRT:MSVCR120.dll
 0000:fffe3000       .debug$S                   0000000180000000     MSVCRT:MSVCR120.dll
 0000:fffe3000       .debug$S                   0000000180000000     MSVCRT:MSVCR120.dll
 0000:fffe3000       .debug$S                   0000000180000000     MSVCRT:MSVCR120.dll
 0000:fffe3000       .debug$S                   0000000180000000     MSVCRT:MSVCR120.dll
 0000:fffe3000       .debug$S                   0000000180000000     MSVCRT:MSVCR120.dll
 0000:fffe3000       .debug$S                   0000000180000000     MSVCRT:MSVCR120.dll
 0000:fffe3000       .debug$S                   0000000180000000     MSVCRT:MSVCR120.dll
 0000:fffe3000       .debug$S                   0000000180000000     MSVCRT:MSVCR120.dll
 0000:fffe3000       .debug$S                   0000000180000000     MSVCRT:MSVCR120.dll
 0000:fffe3000       .debug$S                   0000000180000000     MSVCRT:MSVCR120.dll
 0000:fffe3000       .debug$S                   0000000180000000     MSVCRT:MSVCR120.dll
 0000:fffe3000       .debug$S                   0000000180000000     MSVCRT:MSVCR120.dll
 0000:fffe3000       .debug$S                   0000000180000000     MSVCRT:MSVCR120.dll
 0000:fffe3000       .debug$S                   0000000180000000     MSVCRT:MSVCR120.dll
 0000:fffe3000       .debug$S                   0000000180000000     MSVCRT:MSVCR120.dll
 0000:fffe3000       .debug$S                   0000000180000000     MSVCRT:MSVCR120.dll
 0001:00000000       ??__E?_DisposedEngines@V8EngineProxy@@1V?$vector@_NV?$allocator@_N@std@@@std@@A@@YAXXZ 0000000180001000 f   V8EngineProxy.obj
 0001:00000050       ??__E?_Generic_object@?$_Error_objects@H@std@@2V_Generic_error_category@2@A@@YAXXZ 0000000180001050 f   v8_libplatform:default-platform.obj
 0001:00000060       ??__E?_Iostream_object@?$_Error_objects@H@std@@2V_Iostream_error_category@2@A@@YAXXZ 0000000180001060 f   v8_libplatform:default-platform.obj
 0001:00000070       ??__E?_System_object@?$_Error_objects@H@std@@2V_System_error_category@2@A@@YAXXZ 0000000180001070 f   v8_libplatform:default-platform.obj
 0001:00004d7c       $LN154                     0000000180005d7c     HandleProxy.obj
 0001:0000c2f0       ?ThreadEntry@base@v8@@YAIPEAX@Z 000000018000d2f0 f   v8_libbase:platform-win32.obj
 0001:0000c390       $$000000                   000000018000d390     MSVCRT:amdsecgs.obj
 0001:0000c55c       pre_c_init                 000000018000d55c f   MSVCRT:crtdll.obj
 0001:0000c848       __DllMainCRTStartup        000000018000d848 f   MSVCRT:crtdll.obj
 0001:0000cdf0       CreateV8EngineProxy$dtor$0 000000018000ddf0 f   Exports.obj
 0001:0000ce00       MakeStrongHandle$dtor$0    000000018000de00 f   Exports.obj
 0001:0000ce00       GetHandleManagedObjectID$dtor$0 000000018000de00 f   Exports.obj
 0001:0000ce00       GetFunctionPrototypeTemplateProxy$dtor$0 000000018000de00 f   Exports.obj
 0001:0000ce00       GetFunctionInstanceTemplateProxy$dtor$0 000000018000de00 f   Exports.obj
 0001:0000ce00       RegisterGCCallback$dtor$0  000000018000de00 f   Exports.obj
 0001:0000ce00       UpdateHandleValue$dtor$0   000000018000de00 f   Exports.obj
 0001:0000ce00       CreateNullValue$dtor$0     000000018000de00 f   Exports.obj
 0001:0000ce00       DisposeHandleProxy$dtor$0  000000018000de00 f   Exports.obj
 0001:0000ce00       MakeWeakHandle$dtor$0      000000018000de00 f   Exports.obj
 0001:0000ce0e       RegisterGCCallback$dtor$1  000000018000de0e f   Exports.obj
 0001:0000ce0e       MakeWeakHandle$dtor$1      000000018000de0e f   Exports.obj
 0001:0000ce0e       MakeStrongHandle$dtor$1    000000018000de0e f   Exports.obj
 0001:0000ce0e       CreateNullValue$dtor$1     000000018000de0e f   Exports.obj
 0001:0000ce0e       UpdateHandleValue$dtor$1   000000018000de0e f   Exports.obj
 0001:0000ce0e       GetHandleManagedObjectID$dtor$1 000000018000de0e f   Exports.obj
 0001:0000ce0e       GetFunctionPrototypeTemplateProxy$dtor$1 000000018000de0e f   Exports.obj
 0001:0000ce0e       GetFunctionInstanceTemplateProxy$dtor$1 000000018000de0e f   Exports.obj
 0001:0000ce0e       DisposeHandleProxy$dtor$1  000000018000de0e f   Exports.obj
 0001:0000ce1c       UpdateHandleValue$dtor$2   000000018000de1c f   Exports.obj
 0001:0000ce1c       GetFunctionInstanceTemplateProxy$dtor$2 000000018000de1c f   Exports.obj
 0001:0000ce1c       CreateNullValue$dtor$2     000000018000de1c f   Exports.obj
 0001:0000ce1c       GetHandleManagedObjectID$dtor$2 000000018000de1c f   Exports.obj
 0001:0000ce1c       RegisterGCCallback$dtor$2  000000018000de1c f   Exports.obj
 0001:0000ce1c       DisposeHandleProxy$dtor$2  000000018000de1c f   Exports.obj
 0001:0000ce1c       GetFunctionPrototypeTemplateProxy$dtor$2 000000018000de1c f   Exports.obj
 0001:0000ce1c       MakeStrongHandle$dtor$2    000000018000de1c f   Exports.obj
 0001:0000ce1c       MakeWeakHandle$dtor$2      000000018000de1c f   Exports.obj
 0001:0000ce2a       MakeStrongHandle$dtor$3    000000018000de2a f   Exports.obj
 0001:0000ce2a       GetFunctionInstanceTemplateProxy$dtor$3 000000018000de2a f   Exports.obj
 0001:0000ce2a       MakeWeakHandle$dtor$3      000000018000de2a f   Exports.obj
 0001:0000ce2a       CreateNullValue$dtor$3     000000018000de2a f   Exports.obj
 0001:0000ce2a       DisposeHandleProxy$dtor$3  000000018000de2a f   Exports.obj
 0001:0000ce2a       GetFunctionPrototypeTemplateProxy$dtor$3 000000018000de2a f   Exports.obj
 0001:0000ce2a       UpdateHandleValue$dtor$3   000000018000de2a f   Exports.obj
 0001:0000ce2a       GetHandleManagedObjectID$dtor$3 000000018000de2a f   Exports.obj
 0001:0000ce2a       RegisterGCCallback$dtor$3  000000018000de2a f   Exports.obj
 0001:0000ce40       SetGlobalObjectTemplate$dtor$0 000000018000de40 f   Exports.obj
 0001:0000ce40       DeleteObjectTemplateProxy$dtor$0 000000018000de40 f   Exports.obj
 0001:0000ce40       RegisterInvokeHandler$dtor$0 000000018000de40 f   Exports.obj
 0001:0000ce40       ForceGC$dtor$0             000000018000de40 f   Exports.obj
 0001:0000ce40       DeleteFunctionTemplateProxy$dtor$0 000000018000de40 f   Exports.obj
 0001:0000ce4e       ForceGC$dtor$1             000000018000de4e f   Exports.obj
 0001:0000ce4e       DeleteFunctionTemplateProxy$dtor$1 000000018000de4e f   Exports.obj
 0001:0000ce4e       DeleteObjectTemplateProxy$dtor$1 000000018000de4e f   Exports.obj
 0001:0000ce4e       RegisterInvokeHandler$dtor$1 000000018000de4e f   Exports.obj
 0001:0000ce4e       SetGlobalObjectTemplate$dtor$1 000000018000de4e f   Exports.obj
 0001:0000ce5c       DeleteObjectTemplateProxy$dtor$2 000000018000de5c f   Exports.obj
 0001:0000ce5c       SetGlobalObjectTemplate$dtor$2 000000018000de5c f   Exports.obj
 0001:0000ce5c       RegisterInvokeHandler$dtor$2 000000018000de5c f   Exports.obj
 0001:0000ce5c       ForceGC$dtor$2             000000018000de5c f   Exports.obj
 0001:0000ce5c       DeleteFunctionTemplateProxy$dtor$2 000000018000de5c f   Exports.obj
 0001:0000ce70       V8Compile$dtor$0           000000018000de70 f   Exports.obj
 0001:0000ce70       CreateArray$dtor$0         000000018000de70 f   Exports.obj
 0001:0000ce70       CreateError$dtor$0         000000018000de70 f   Exports.obj
 0001:0000ce70       CreateStringArray$dtor$0   000000018000de70 f   Exports.obj
 0001:0000ce70       V8Execute$dtor$0           000000018000de70 f   Exports.obj
 0001:0000ce7e       CreateError$dtor$1         000000018000de7e f   Exports.obj
 0001:0000ce7e       V8Compile$dtor$1           000000018000de7e f   Exports.obj
 0001:0000ce7e       V8Execute$dtor$1           000000018000de7e f   Exports.obj
 0001:0000ce7e       CreateArray$dtor$1         000000018000de7e f   Exports.obj
 0001:0000ce7e       CreateStringArray$dtor$1   000000018000de7e f   Exports.obj
 0001:0000ce8c       CreateStringArray$dtor$2   000000018000de8c f   Exports.obj
 0001:0000ce8c       CreateArray$dtor$2         000000018000de8c f   Exports.obj
 0001:0000ce8c       CreateError$dtor$2         000000018000de8c f   Exports.obj
 0001:0000ce8c       V8Execute$dtor$2           000000018000de8c f   Exports.obj
 0001:0000ce8c       V8Compile$dtor$2           000000018000de8c f   Exports.obj
 0001:0000ce9a       V8Compile$dtor$3           000000018000de9a f   Exports.obj
 0001:0000ce9a       CreateError$dtor$3         000000018000de9a f   Exports.obj
 0001:0000ce9a       CreateArray$dtor$3         000000018000de9a f   Exports.obj
 0001:0000ce9a       CreateStringArray$dtor$3   000000018000de9a f   Exports.obj
 0001:0000ce9a       V8Execute$dtor$3           000000018000de9a f   Exports.obj
 0001:0000ceb0       V8ExecuteCompiledScript$dtor$0 000000018000deb0 f   Exports.obj
 0001:0000cebe       V8ExecuteCompiledScript$dtor$1 000000018000debe f   Exports.obj
 0001:0000cecc       V8ExecuteCompiledScript$dtor$2 000000018000decc f   Exports.obj
 0001:0000ceda       V8ExecuteCompiledScript$dtor$3 000000018000deda f   Exports.obj
 0001:0000cef0       CreateObjectTemplateProxy$dtor$0 000000018000def0 f   Exports.obj
 0001:0000cefe       CreateObjectTemplateProxy$dtor$1 000000018000defe f   Exports.obj
 0001:0000cf0c       CreateObjectTemplateProxy$dtor$2 000000018000df0c f   Exports.obj
 0001:0000cf1a       CreateObjectTemplateProxy$dtor$3 000000018000df1a f   Exports.obj
 0001:0000cf30       RegisterNamedPropertyHandlers$dtor$0 000000018000df30 f   Exports.obj
 0001:0000cf30       RegisterIndexedPropertyHandlers$dtor$0 000000018000df30 f   Exports.obj
 0001:0000cf3e       RegisterNamedPropertyHandlers$dtor$1 000000018000df3e f   Exports.obj
 0001:0000cf3e       RegisterIndexedPropertyHandlers$dtor$1 000000018000df3e f   Exports.obj
 0001:0000cf4c       RegisterNamedPropertyHandlers$dtor$2 000000018000df4c f   Exports.obj
 0001:0000cf4c       RegisterIndexedPropertyHandlers$dtor$2 000000018000df4c f   Exports.obj
 0001:0000cf60       UnregisterNamedPropertyHandlers$dtor$0 000000018000df60 f   Exports.obj
 0001:0000cf60       UnregisterIndexedPropertyHandlers$dtor$0 000000018000df60 f   Exports.obj
 0001:0000cf6e       UnregisterNamedPropertyHandlers$dtor$1 000000018000df6e f   Exports.obj
 0001:0000cf6e       UnregisterIndexedPropertyHandlers$dtor$1 000000018000df6e f   Exports.obj
 0001:0000cf7c       UnregisterIndexedPropertyHandlers$dtor$2 000000018000df7c f   Exports.obj
 0001:0000cf7c       UnregisterNamedPropertyHandlers$dtor$2 000000018000df7c f   Exports.obj
 0001:0000cf90       CreateObjectFromTemplate$dtor$0 000000018000df90 f   Exports.obj
 0001:0000cf9e       CreateObjectFromTemplate$dtor$1 000000018000df9e f   Exports.obj
 0001:0000cfac       CreateObjectFromTemplate$dtor$2 000000018000dfac f   Exports.obj
 0001:0000cfba       CreateObjectFromTemplate$dtor$3 000000018000dfba f   Exports.obj
 0001:0000cfd0       ConnectObject$dtor$0       000000018000dfd0 f   Exports.obj
 0001:0000cfde       ConnectObject$dtor$1       000000018000dfde f   Exports.obj
 0001:0000cfec       ConnectObject$dtor$2       000000018000dfec f   Exports.obj
 0001:0000cffa       ConnectObject$dtor$3       000000018000dffa f   Exports.obj
 0001:0000d010       GetObjectPrototype$dtor$0  000000018000e010 f   Exports.obj
 0001:0000d01e       GetObjectPrototype$dtor$1  000000018000e01e f   Exports.obj
 0001:0000d02c       GetObjectPrototype$dtor$2  000000018000e02c f   Exports.obj
 0001:0000d03a       GetObjectPrototype$dtor$3  000000018000e03a f   Exports.obj
 0001:0000d050       Call$dtor$0                000000018000e050 f   Exports.obj
 0001:0000d05e       Call$dtor$1                000000018000e05e f   Exports.obj
 0001:0000d06c       Call$dtor$2                000000018000e06c f   Exports.obj
 0001:0000d07a       Call$dtor$3                000000018000e07a f   Exports.obj
 0001:0000d090       SetObjectPropertyByName$dtor$0 000000018000e090 f   Exports.obj
 0001:0000d09e       SetObjectPropertyByName$dtor$1 000000018000e09e f   Exports.obj
 0001:0000d0ac       SetObjectPropertyByName$dtor$2 000000018000e0ac f   Exports.obj
 0001:0000d0ba       SetObjectPropertyByName$dtor$3 000000018000e0ba f   Exports.obj
 0001:0000d0d0       SetObjectPropertyByIndex$dtor$0 000000018000e0d0 f   Exports.obj
 0001:0000d0de       SetObjectPropertyByIndex$dtor$1 000000018000e0de f   Exports.obj
 0001:0000d0ec       SetObjectPropertyByIndex$dtor$2 000000018000e0ec f   Exports.obj
 0001:0000d0fa       SetObjectPropertyByIndex$dtor$3 000000018000e0fa f   Exports.obj
 0001:0000d110       GetObjectPropertyByName$dtor$0 000000018000e110 f   Exports.obj
 0001:0000d11e       GetObjectPropertyByName$dtor$1 000000018000e11e f   Exports.obj
 0001:0000d12c       GetObjectPropertyByName$dtor$2 000000018000e12c f   Exports.obj
 0001:0000d13a       GetObjectPropertyByName$dtor$3 000000018000e13a f   Exports.obj
 0001:0000d150       GetObjectPropertyByIndex$dtor$0 000000018000e150 f   Exports.obj
 0001:0000d150       DeleteObjectPropertyByIndex$dtor$0 000000018000e150 f   Exports.obj
 0001:0000d15e       GetObjectPropertyByIndex$dtor$1 000000018000e15e f   Exports.obj
 0001:0000d15e       DeleteObjectPropertyByIndex$dtor$1 000000018000e15e f   Exports.obj
 0001:0000d16c       DeleteObjectPropertyByIndex$dtor$2 000000018000e16c f   Exports.obj
 0001:0000d16c       GetObjectPropertyByIndex$dtor$2 000000018000e16c f   Exports.obj
 0001:0000d17a       GetObjectPropertyByIndex$dtor$3 000000018000e17a f   Exports.obj
 0001:0000d17a       DeleteObjectPropertyByIndex$dtor$3 000000018000e17a f   Exports.obj
 0001:0000d190       DeleteObjectPropertyByName$dtor$0 000000018000e190 f   Exports.obj
 0001:0000d190       GetPropertyAttributes$dtor$0 000000018000e190 f   Exports.obj
 0001:0000d19e       GetPropertyAttributes$dtor$1 000000018000e19e f   Exports.obj
 0001:0000d19e       DeleteObjectPropertyByName$dtor$1 000000018000e19e f   Exports.obj
 0001:0000d1ac       GetPropertyAttributes$dtor$2 000000018000e1ac f   Exports.obj
 0001:0000d1ac       DeleteObjectPropertyByName$dtor$2 000000018000e1ac f   Exports.obj
 0001:0000d1ba       DeleteObjectPropertyByName$dtor$3 000000018000e1ba f   Exports.obj
 0001:0000d1ba       GetPropertyAttributes$dtor$3 000000018000e1ba f   Exports.obj
 0001:0000d1d0       SetObjectAccessor$dtor$0   000000018000e1d0 f   Exports.obj
 0001:0000d1de       SetObjectAccessor$dtor$1   000000018000e1de f   Exports.obj
 0001:0000d1ec       SetObjectAccessor$dtor$2   000000018000e1ec f   Exports.obj
 0001:0000d1fa       SetObjectAccessor$dtor$3   000000018000e1fa f   Exports.obj
 0001:0000d210       SetObjectTemplateAccessor$dtor$0 000000018000e210 f   Exports.obj
 0001:0000d21e       SetObjectTemplateAccessor$dtor$1 000000018000e21e f   Exports.obj
 0001:0000d22c       SetObjectTemplateAccessor$dtor$2 000000018000e22c f   Exports.obj
 0001:0000d23a       SetObjectTemplateAccessor$dtor$3 000000018000e23a f   Exports.obj
 0001:0000d250       SetObjectTemplateProperty$dtor$0 000000018000e250 f   Exports.obj
 0001:0000d250       SetFunctionTemplateProperty$dtor$0 000000018000e250 f   Exports.obj
 0001:0000d250       CreateFunctionInstance$dtor$0 000000018000e250 f   Exports.obj
 0001:0000d25e       SetFunctionTemplateProperty$dtor$1 000000018000e25e f   Exports.obj
 0001:0000d25e       SetObjectTemplateProperty$dtor$1 000000018000e25e f   Exports.obj
 0001:0000d25e       CreateFunctionInstance$dtor$1 000000018000e25e f   Exports.obj
 0001:0000d26c       CreateFunctionInstance$dtor$2 000000018000e26c f   Exports.obj
 0001:0000d26c       SetObjectTemplateProperty$dtor$2 000000018000e26c f   Exports.obj
 0001:0000d26c       SetFunctionTemplateProperty$dtor$2 000000018000e26c f   Exports.obj
 0001:0000d27a       SetObjectTemplateProperty$dtor$3 000000018000e27a f   Exports.obj
 0001:0000d27a       CreateFunctionInstance$dtor$3 000000018000e27a f   Exports.obj
 0001:0000d27a       SetFunctionTemplateProperty$dtor$3 000000018000e27a f   Exports.obj
 0001:0000d290       GetPropertyNames$dtor$0    000000018000e290 f   Exports.obj
 0001:0000d290       GetOwnPropertyNames$dtor$0 000000018000e290 f   Exports.obj
 0001:0000d29e       GetPropertyNames$dtor$1    000000018000e29e f   Exports.obj
 0001:0000d29e       GetOwnPropertyNames$dtor$1 000000018000e29e f   Exports.obj
 0001:0000d2ac       GetPropertyNames$dtor$2    000000018000e2ac f   Exports.obj
 0001:0000d2ac       GetOwnPropertyNames$dtor$2 000000018000e2ac f   Exports.obj
 0001:0000d2ba       GetOwnPropertyNames$dtor$3 000000018000e2ba f   Exports.obj
 0001:0000d2ba       GetPropertyNames$dtor$3    000000018000e2ba f   Exports.obj
 0001:0000d2d0       GetArrayLength$dtor$0      000000018000e2d0 f   Exports.obj
 0001:0000d2de       GetArrayLength$dtor$1      000000018000e2de f   Exports.obj
 0001:0000d2ec       GetArrayLength$dtor$2      000000018000e2ec f   Exports.obj
 0001:0000d2fa       GetArrayLength$dtor$3      000000018000e2fa f   Exports.obj
 0001:0000d310       CreateFunctionTemplateProxy$dtor$0 000000018000e310 f   Exports.obj
 0001:0000d31e       CreateFunctionTemplateProxy$dtor$1 000000018000e31e f   Exports.obj
 0001:0000d32c       CreateFunctionTemplateProxy$dtor$2 000000018000e32c f   Exports.obj
 0001:0000d33a       CreateFunctionTemplateProxy$dtor$3 000000018000e33a f   Exports.obj
 0001:0000d350       GetFunction$dtor$0         000000018000e350 f   Exports.obj
 0001:0000d35e       GetFunction$dtor$1         000000018000e35e f   Exports.obj
 0001:0000d36c       GetFunction$dtor$2         000000018000e36c f   Exports.obj
 0001:0000d37a       GetFunction$dtor$3         000000018000e37a f   Exports.obj
 0001:0000d390       CreateBoolean$dtor$0       000000018000e390 f   Exports.obj
 0001:0000d39e       CreateBoolean$dtor$1       000000018000e39e f   Exports.obj
 0001:0000d3ac       CreateBoolean$dtor$2       000000018000e3ac f   Exports.obj
 0001:0000d3ba       CreateBoolean$dtor$3       000000018000e3ba f   Exports.obj
 0001:0000d3d0       CreateDate$dtor$0          000000018000e3d0 f   Exports.obj
 0001:0000d3d0       CreateObject$dtor$0        000000018000e3d0 f   Exports.obj
 0001:0000d3d0       CreateNumber$dtor$0        000000018000e3d0 f   Exports.obj
 0001:0000d3d0       CreateInteger$dtor$0       000000018000e3d0 f   Exports.obj
 0001:0000d3de       CreateNumber$dtor$1        000000018000e3de f   Exports.obj
 0001:0000d3de       CreateDate$dtor$1          000000018000e3de f   Exports.obj
 0001:0000d3de       CreateInteger$dtor$1       000000018000e3de f   Exports.obj
 0001:0000d3de       CreateObject$dtor$1        000000018000e3de f   Exports.obj
 0001:0000d3ec       CreateInteger$dtor$2       000000018000e3ec f   Exports.obj
 0001:0000d3ec       CreateNumber$dtor$2        000000018000e3ec f   Exports.obj
 0001:0000d3ec       CreateObject$dtor$2        000000018000e3ec f   Exports.obj
 0001:0000d3ec       CreateDate$dtor$2          000000018000e3ec f   Exports.obj
 0001:0000d3fa       CreateDate$dtor$3          000000018000e3fa f   Exports.obj
 0001:0000d3fa       CreateInteger$dtor$3       000000018000e3fa f   Exports.obj
 0001:0000d3fa       CreateObject$dtor$3        000000018000e3fa f   Exports.obj
 0001:0000d3fa       CreateNumber$dtor$3        000000018000e3fa f   Exports.obj
 0001:0000d410       CreateString$dtor$0        000000018000e410 f   Exports.obj
 0001:0000d41e       CreateString$dtor$1        000000018000e41e f   Exports.obj
 0001:0000d42c       CreateString$dtor$2        000000018000e42c f   Exports.obj
 0001:0000d43a       CreateString$dtor$3        000000018000e43a f   Exports.obj
 0001:0000d450       ?dtor$4@?0???0FunctionTemplateProxy@@QEAA@PEAVV8EngineProxy@@PEAGP6APEAUHandleProxy@@H_NPEAU2@PEAPEAU2@I@Z@Z@4HA 000000018000e450 f   FunctionTemplateProxy.obj
 0001:0000d45c       ?dtor$0@?0???0FunctionTemplateProxy@@QEAA@PEAVV8EngineProxy@@PEAGP6APEAUHandleProxy@@H_NPEAU2@PEAPEAU2@I@Z@Z@4HA 000000018000e45c f   FunctionTemplateProxy.obj
 0001:0000d46c       ?dtor$5@?0???0FunctionTemplateProxy@@QEAA@PEAVV8EngineProxy@@PEAGP6APEAUHandleProxy@@H_NPEAU2@PEAPEAU2@I@Z@Z@4HA 000000018000e46c f   FunctionTemplateProxy.obj
 0001:0000d478       ?dtor$6@?0???0FunctionTemplateProxy@@QEAA@PEAVV8EngineProxy@@PEAGP6APEAUHandleProxy@@H_NPEAU2@PEAPEAU2@I@Z@Z@4HA 000000018000e478 f   FunctionTemplateProxy.obj
 0001:0000d484       ?dtor$1@?0???0FunctionTemplateProxy@@QEAA@PEAVV8EngineProxy@@PEAGP6APEAUHandleProxy@@H_NPEAU2@PEAPEAU2@I@Z@Z@4HA 000000018000e484 f   FunctionTemplateProxy.obj
 0001:0000d490       ?dtor$7@?0???0FunctionTemplateProxy@@QEAA@PEAVV8EngineProxy@@PEAGP6APEAUHandleProxy@@H_NPEAU2@PEAPEAU2@I@Z@Z@4HA 000000018000e490 f   FunctionTemplateProxy.obj
 0001:0000d49c       ?dtor$2@?0???0FunctionTemplateProxy@@QEAA@PEAVV8EngineProxy@@PEAGP6APEAUHandleProxy@@H_NPEAU2@PEAPEAU2@I@Z@Z@4HA 000000018000e49c f   FunctionTemplateProxy.obj
 0001:0000d4aa       ?dtor$3@?0???0FunctionTemplateProxy@@QEAA@PEAVV8EngineProxy@@PEAGP6APEAUHandleProxy@@H_NPEAU2@PEAPEAU2@I@Z@Z@4HA 000000018000e4aa f   FunctionTemplateProxy.obj
 0001:0000d4c0       ?dtor$0@?0???1FunctionTemplateProxy@@QEAA@XZ@4HA 000000018000e4c0 f   FunctionTemplateProxy.obj
 0001:0000d4d0       ?dtor$1@?0???1FunctionTemplateProxy@@QEAA@XZ@4HA 000000018000e4d0 f   FunctionTemplateProxy.obj
 0001:0000d4de       ?dtor$2@?0???1FunctionTemplateProxy@@QEAA@XZ@4HA 000000018000e4de f   FunctionTemplateProxy.obj
 0001:0000d4ec       ?dtor$3@?0???1FunctionTemplateProxy@@QEAA@XZ@4HA 000000018000e4ec f   FunctionTemplateProxy.obj
 0001:0000d4fa       ?dtor$4@?0???1FunctionTemplateProxy@@QEAA@XZ@4HA 000000018000e4fa f   FunctionTemplateProxy.obj
 0001:0000d506       ?dtor$5@?0???1FunctionTemplateProxy@@QEAA@XZ@4HA 000000018000e506 f   FunctionTemplateProxy.obj
 0001:0000d520       ?dtor$0@?0??CreateInstance@FunctionTemplateProxy@@QEAAPEAUHandleProxy@@HHPEAPEAU2@@Z@4HA 000000018000e520 f   FunctionTemplateProxy.obj
 0001:0000d530       ?dtor$0@?0???1?$CopyablePersistent@VFunctionTemplate@v8@@@@QEAA@XZ@4HA 000000018000e530 f   FunctionTemplateProxy.obj
 0001:0000d530       ?dtor$0@?0???1?$CopyablePersistent@VScript@v8@@@@QEAA@XZ@4HA 000000018000e530 f   HandleProxy.obj
 0001:0000d530       ?dtor$0@?0???1?$CopyablePersistent@VObject@v8@@@@QEAA@XZ@4HA 000000018000e530 f   V8EngineProxy.obj
 0001:0000d530       ?dtor$0@?0???1?$CopyablePersistent@VValue@v8@@@@QEAA@XZ@4HA 000000018000e530 f   HandleProxy.obj
 0001:0000d530       ?dtor$0@?0???1?$CopyablePersistent@VContext@v8@@@@QEAA@XZ@4HA 000000018000e530 f   V8EngineProxy.obj
 0001:0000d530       ?dtor$0@?0???1?$CopyablePersistent@VObjectTemplate@v8@@@@QEAA@XZ@4HA 000000018000e530 f   ObjectTemplateProxy.obj
 0001:0000d540       ?dtor$0@?0???1HandleProxy@@IEAA@XZ@4HA 000000018000e540 f   HandleProxy.obj
 0001:0000d550       ?dtor$1@?0???1HandleProxy@@IEAA@XZ@4HA 000000018000e550 f   HandleProxy.obj
 0001:0000d560       ?dtor$2@?0???1HandleProxy@@IEAA@XZ@4HA 000000018000e560 f   HandleProxy.obj
 0001:0000d570       ?dtor$3@?0???1HandleProxy@@IEAA@XZ@4HA 000000018000e570 f   HandleProxy.obj
 0001:0000d57c       ?dtor$4@?0???1HandleProxy@@IEAA@XZ@4HA 000000018000e57c f   HandleProxy.obj
 0001:0000d590       ?dtor$1@?0??SetHandle@HandleProxy@@IEAAPEAU1@V?$Handle@VScript@v8@@@v8@@@Z@4HA 000000018000e590 f   HandleProxy.obj
 0001:0000d59c       ?dtor$2@?0??SetHandle@HandleProxy@@IEAAPEAU1@V?$Handle@VScript@v8@@@v8@@@Z@4HA 000000018000e59c f   HandleProxy.obj
 0001:0000d5a8       ?dtor$0@?0??SetHandle@HandleProxy@@IEAAPEAU1@V?$Handle@VScript@v8@@@v8@@@Z@4HA 000000018000e5a8 f   HandleProxy.obj
 0001:0000d5b4       ?dtor$3@?0??SetHandle@HandleProxy@@IEAAPEAU1@V?$Handle@VScript@v8@@@v8@@@Z@4HA 000000018000e5b4 f   HandleProxy.obj
 0001:0000d5c0       ?dtor$1@?0??SetHandle@HandleProxy@@IEAAPEAU1@V?$Handle@VValue@v8@@@v8@@@Z@4HA 000000018000e5c0 f   HandleProxy.obj
 0001:0000d5cc       ?dtor$2@?0??SetHandle@HandleProxy@@IEAAPEAU1@V?$Handle@VValue@v8@@@v8@@@Z@4HA 000000018000e5cc f   HandleProxy.obj
 0001:0000d5d8       ?dtor$0@?0??SetHandle@HandleProxy@@IEAAPEAU1@V?$Handle@VValue@v8@@@v8@@@Z@4HA 000000018000e5d8 f   HandleProxy.obj
 0001:0000d5e4       ?dtor$3@?0??SetHandle@HandleProxy@@IEAAPEAU1@V?$Handle@VValue@v8@@@v8@@@Z@4HA 000000018000e5e4 f   HandleProxy.obj
 0001:0000d5f0       ?dtor$2@?0???0ObjectTemplateProxy@@QEAA@PEAVV8EngineProxy@@V?$Local@VObjectTemplate@v8@@@v8@@@Z@4HA 000000018000e5f0 f   ObjectTemplateProxy.obj
 0001:0000d5f0       ?dtor$2@?0???0ObjectTemplateProxy@@QEAA@PEAVV8EngineProxy@@@Z@4HA 000000018000e5f0 f   ObjectTemplateProxy.obj
 0001:0000d5fc       ?dtor$0@?0???0ObjectTemplateProxy@@QEAA@PEAVV8EngineProxy@@V?$Local@VObjectTemplate@v8@@@v8@@@Z@4HA 000000018000e5fc f   ObjectTemplateProxy.obj
 0001:0000d5fc       ?dtor$0@?0???0ObjectTemplateProxy@@QEAA@PEAVV8EngineProxy@@@Z@4HA 000000018000e5fc f   ObjectTemplateProxy.obj
 0001:0000d60c       ?dtor$3@?0???0ObjectTemplateProxy@@QEAA@PEAVV8EngineProxy@@@Z@4HA 000000018000e60c f   ObjectTemplateProxy.obj
 0001:0000d60c       ?dtor$3@?0???0ObjectTemplateProxy@@QEAA@PEAVV8EngineProxy@@V?$Local@VObjectTemplate@v8@@@v8@@@Z@4HA 000000018000e60c f   ObjectTemplateProxy.obj
 0001:0000d618       ?dtor$4@?0???0ObjectTemplateProxy@@QEAA@PEAVV8EngineProxy@@V?$Local@VObjectTemplate@v8@@@v8@@@Z@4HA 000000018000e618 f   ObjectTemplateProxy.obj
 0001:0000d618       ?dtor$4@?0???0ObjectTemplateProxy@@QEAA@PEAVV8EngineProxy@@@Z@4HA 000000018000e618 f   ObjectTemplateProxy.obj
 0001:0000d624       ?dtor$1@?0???0ObjectTemplateProxy@@QEAA@PEAVV8EngineProxy@@V?$Local@VObjectTemplate@v8@@@v8@@@Z@4HA 000000018000e624 f   ObjectTemplateProxy.obj
 0001:0000d624       ?dtor$1@?0???0ObjectTemplateProxy@@QEAA@PEAVV8EngineProxy@@@Z@4HA 000000018000e624 f   ObjectTemplateProxy.obj
 0001:0000d630       ?dtor$5@?0???0ObjectTemplateProxy@@QEAA@PEAVV8EngineProxy@@V?$Local@VObjectTemplate@v8@@@v8@@@Z@4HA 000000018000e630 f   ObjectTemplateProxy.obj
 0001:0000d630       ?dtor$5@?0???0ObjectTemplateProxy@@QEAA@PEAVV8EngineProxy@@@Z@4HA 000000018000e630 f   ObjectTemplateProxy.obj
 0001:0000d640       ?dtor$0@?0???1ObjectTemplateProxy@@QEAA@XZ@4HA 000000018000e640 f   ObjectTemplateProxy.obj
 0001:0000d650       ?dtor$1@?0???1ObjectTemplateProxy@@QEAA@XZ@4HA 000000018000e650 f   ObjectTemplateProxy.obj
 0001:0000d65e       ?dtor$2@?0???1ObjectTemplateProxy@@QEAA@XZ@4HA 000000018000e65e f   ObjectTemplateProxy.obj
 0001:0000d66c       ?dtor$3@?0???1ObjectTemplateProxy@@QEAA@XZ@4HA 000000018000e66c f   ObjectTemplateProxy.obj
 0001:0000d67a       ?dtor$4@?0???1ObjectTemplateProxy@@QEAA@XZ@4HA 000000018000e67a f   ObjectTemplateProxy.obj
 0001:0000d686       ?dtor$5@?0???1ObjectTemplateProxy@@QEAA@XZ@4HA 000000018000e686 f   ObjectTemplateProxy.obj
 0001:0000d6a0       ?dtor$1@?0???__E?_DisposedEngines@V8EngineProxy@@1V?$vector@_NV?$allocator@_N@std@@@std@@A@@YAXXZ@4HA 000000018000e6a0 f   V8EngineProxy.obj
 0001:0000d6ac       ?dtor$0@?0???__E?_DisposedEngines@V8EngineProxy@@1V?$vector@_NV?$allocator@_N@std@@@std@@A@@YAXXZ@4HA 000000018000e6ac f   V8EngineProxy.obj
 0001:0000d6c0       ?dtor$0@?0???__F?_DisposedEngines@V8EngineProxy@@1V?$vector@_NV?$allocator@_N@std@@@std@@A@@YAXXZ@4HA 000000018000e6c0 f   V8EngineProxy.obj
 0001:0000d6cc       ?dtor$1@?0???__F?_DisposedEngines@V8EngineProxy@@1V?$vector@_NV?$allocator@_N@std@@@std@@A@@YAXXZ@4HA 000000018000e6cc f   V8EngineProxy.obj
 0001:0000d6e0       ?dtor$9@?0???0V8EngineProxy@@QEAA@_NP6AXXZH@Z@4HA 000000018000e6e0 f   V8EngineProxy.obj
 0001:0000d6ec       ?dtor$0@?0???0V8EngineProxy@@QEAA@_NP6AXXZH@Z@4HA 000000018000e6ec f   V8EngineProxy.obj
 0001:0000d6fc       ?dtor$10@?0???0V8EngineProxy@@QEAA@_NP6AXXZH@Z@4HA 000000018000e6fc f   V8EngineProxy.obj
 0001:0000d708       ?dtor$1@?0???0V8EngineProxy@@QEAA@_NP6AXXZH@Z@4HA 000000018000e708 f   V8EngineProxy.obj
 0001:0000d718       ?dtor$2@?0???0V8EngineProxy@@QEAA@_NP6AXXZH@Z@4HA 000000018000e718 f   V8EngineProxy.obj
 0001:0000d728       ?dtor$3@?0???0V8EngineProxy@@QEAA@_NP6AXXZH@Z@4HA 000000018000e728 f   V8EngineProxy.obj
 0001:0000d738       ?dtor$4@?0???0V8EngineProxy@@QEAA@_NP6AXXZH@Z@4HA 000000018000e738 f   V8EngineProxy.obj
 0001:0000d748       ?dtor$11@?0???0V8EngineProxy@@QEAA@_NP6AXXZH@Z@4HA 000000018000e748 f   V8EngineProxy.obj
 0001:0000d754       ?dtor$5@?0???0V8EngineProxy@@QEAA@_NP6AXXZH@Z@4HA 000000018000e754 f   V8EngineProxy.obj
 0001:0000d767       ?dtor$6@?0???0V8EngineProxy@@QEAA@_NP6AXXZH@Z@4HA 000000018000e767 f   V8EngineProxy.obj
 0001:0000d775       ?dtor$7@?0???0V8EngineProxy@@QEAA@_NP6AXXZH@Z@4HA 000000018000e775 f   V8EngineProxy.obj
 0001:0000d783       ?dtor$8@?0???0V8EngineProxy@@QEAA@_NP6AXXZH@Z@4HA 000000018000e783 f   V8EngineProxy.obj
 0001:0000d7a0       ?dtor$0@?0???1recursive_mutex@std@@QEAA@XZ@4HA 000000018000e7a0 f   V8EngineProxy.obj
 0001:0000d7b0       ?dtor$0@?0???1V8EngineProxy@@QEAA@XZ@4HA 000000018000e7b0 f   V8EngineProxy.obj
 0001:0000d7c0       ?dtor$1@?0???1V8EngineProxy@@QEAA@XZ@4HA 000000018000e7c0 f   V8EngineProxy.obj
 0001:0000d7d0       ?dtor$2@?0???1V8EngineProxy@@QEAA@XZ@4HA 000000018000e7d0 f   V8EngineProxy.obj
 0001:0000d7e0       ?dtor$3@?0???1V8EngineProxy@@QEAA@XZ@4HA 000000018000e7e0 f   V8EngineProxy.obj
 0001:0000d7f0       ?dtor$4@?0???1V8EngineProxy@@QEAA@XZ@4HA 000000018000e7f0 f   V8EngineProxy.obj
 0001:0000d800       ?dtor$5@?0???1V8EngineProxy@@QEAA@XZ@4HA 000000018000e800 f   V8EngineProxy.obj
 0001:0000d813       ?dtor$6@?0???1V8EngineProxy@@QEAA@XZ@4HA 000000018000e813 f   V8EngineProxy.obj
 0001:0000d81f       ?dtor$7@?0???1V8EngineProxy@@QEAA@XZ@4HA 000000018000e81f f   V8EngineProxy.obj
 0001:0000d82d       ?dtor$8@?0???1V8EngineProxy@@QEAA@XZ@4HA 000000018000e82d f   V8EngineProxy.obj
 0001:0000d83b       ?dtor$9@?0???1V8EngineProxy@@QEAA@XZ@4HA 000000018000e83b f   V8EngineProxy.obj
 0001:0000d849       ?dtor$10@?0???1V8EngineProxy@@QEAA@XZ@4HA 000000018000e849 f   V8EngineProxy.obj
 0001:0000d855       ?dtor$11@?0???1V8EngineProxy@@QEAA@XZ@4HA 000000018000e855 f   V8EngineProxy.obj
 0001:0000d861       ?dtor$12@?0???1V8EngineProxy@@QEAA@XZ@4HA 000000018000e861 f   V8EngineProxy.obj
 0001:0000d870       ?dtor$0@?0??GetHandleProxy@V8EngineProxy@@QEAAPEAUHandleProxy@@V?$Handle@VValue@v8@@@v8@@@Z@4HA 000000018000e870 f   V8EngineProxy.obj
 0001:0000d87c       ?dtor$1@?0??GetHandleProxy@V8EngineProxy@@QEAAPEAUHandleProxy@@V?$Handle@VValue@v8@@@v8@@@Z@4HA 000000018000e87c f   V8EngineProxy.obj
 0001:0000d88a       ?dtor$2@?0??GetHandleProxy@V8EngineProxy@@QEAAPEAUHandleProxy@@V?$Handle@VValue@v8@@@v8@@@Z@4HA 000000018000e88a f   V8EngineProxy.obj
 0001:0000d89a       ?dtor$5@?0??GetHandleProxy@V8EngineProxy@@QEAAPEAUHandleProxy@@V?$Handle@VValue@v8@@@v8@@@Z@4HA 000000018000e89a f   V8EngineProxy.obj
 0001:0000d8a6       ?dtor$3@?0??GetHandleProxy@V8EngineProxy@@QEAAPEAUHandleProxy@@V?$Handle@VValue@v8@@@v8@@@Z@4HA 000000018000e8a6 f   V8EngineProxy.obj
 0001:0000d8b6       ?dtor$6@?0??GetHandleProxy@V8EngineProxy@@QEAAPEAUHandleProxy@@V?$Handle@VValue@v8@@@v8@@@Z@4HA 000000018000e8b6 f   V8EngineProxy.obj
 0001:0000d8c2       ?dtor$4@?0??GetHandleProxy@V8EngineProxy@@QEAAPEAUHandleProxy@@V?$Handle@VValue@v8@@@v8@@@Z@4HA 000000018000e8c2 f   V8EngineProxy.obj
 0001:0000d8d2       ?dtor$7@?0??GetHandleProxy@V8EngineProxy@@QEAAPEAUHandleProxy@@V?$Handle@VValue@v8@@@v8@@@Z@4HA 000000018000e8d2 f   V8EngineProxy.obj
 0001:0000d8f0       ?dtor$0@?0??DisposeHandleProxy@V8EngineProxy@@QEAAXPEAUHandleProxy@@@Z@4HA 000000018000e8f0 f   V8EngineProxy.obj
 0001:0000d900       ?dtor$0@?0??SetGlobalObjectTemplate@V8EngineProxy@@QEAAPEAUHandleProxy@@PEAVObjectTemplateProxy@@@Z@4HA 000000018000e900 f   V8EngineProxy.obj
 0001:0000d90c       ?dtor$1@?0??SetGlobalObjectTemplate@V8EngineProxy@@QEAAPEAUHandleProxy@@PEAVObjectTemplateProxy@@@Z@4HA 000000018000e90c f   V8EngineProxy.obj
 0001:0000d920       ?dtor$0@?0??Execute@V8EngineProxy@@QEAAPEAUHandleProxy@@PEBGPEAG@Z@4HA 000000018000e920 f   V8EngineProxy.obj
 0001:0000d92e       ?catch$0@?0??Execute@V8EngineProxy@@QEAAPEAUHandleProxy@@PEBGPEAG@Z@4HA 000000018000e92e f   V8EngineProxy.obj
 0001:0000d93c       __catch$?Execute@V8EngineProxy@@QEAAPEAUHandleProxy@@PEBGPEAG@Z$0 000000018000e93c f   V8EngineProxy.obj
 0001:0000d9a1       ?dtor$1@?0??Execute@V8EngineProxy@@QEAAPEAUHandleProxy@@PEBGPEAG@Z@4HA 000000018000e9a1 f   V8EngineProxy.obj
 0001:0000d9b0       ?dtor$0@?0??Execute@V8EngineProxy@@QEAAPEAUHandleProxy@@V?$Handle@VScript@v8@@@v8@@@Z@4HA 000000018000e9b0 f   V8EngineProxy.obj
 0001:0000d9be       ?catch$0@?0??Execute@V8EngineProxy@@QEAAPEAUHandleProxy@@V?$Handle@VScript@v8@@@v8@@@Z@4HA 000000018000e9be f   V8EngineProxy.obj
 0001:0000d9cc       __catch$?Execute@V8EngineProxy@@QEAAPEAUHandleProxy@@V?$Handle@VScript@v8@@@v8@@@Z$0 000000018000e9cc f   V8EngineProxy.obj
 0001:0000da31       ?dtor$1@?0??Execute@V8EngineProxy@@QEAAPEAUHandleProxy@@V?$Handle@VScript@v8@@@v8@@@Z@4HA 000000018000ea31 f   V8EngineProxy.obj
 0001:0000da40       ?dtor$0@?0??Compile@V8EngineProxy@@QEAAPEAUHandleProxy@@PEBGPEAG@Z@4HA 000000018000ea40 f   V8EngineProxy.obj
 0001:0000da4e       ?catch$0@?0??Compile@V8EngineProxy@@QEAAPEAUHandleProxy@@PEBGPEAG@Z@4HA 000000018000ea4e f   V8EngineProxy.obj
 0001:0000da5c       __catch$?Compile@V8EngineProxy@@QEAAPEAUHandleProxy@@PEBGPEAG@Z$0 000000018000ea5c f   V8EngineProxy.obj
 0001:0000dac1       ?dtor$1@?0??Compile@V8EngineProxy@@QEAAPEAUHandleProxy@@PEBGPEAG@Z@4HA 000000018000eac1 f   V8EngineProxy.obj
 0001:0000dad0       ?dtor$0@?0??Call@V8EngineProxy@@QEAAPEAUHandleProxy@@PEAU2@PEBG0GPEAPEAU2@@Z@4HA 000000018000ead0 f   V8EngineProxy.obj
 0001:0000dade       ?dtor$1@?0??Call@V8EngineProxy@@QEAAPEAUHandleProxy@@PEAU2@PEBG0GPEAPEAU2@@Z@4HA 000000018000eade f   V8EngineProxy.obj
 0001:0000daf0       ?dtor$0@?0??CreateArray@V8EngineProxy@@QEAAPEAUHandleProxy@@PEAPEAGG@Z@4HA 000000018000eaf0 f   V8EngineProxy.obj
 0001:0000dafc       ?dtor$1@?0??CreateArray@V8EngineProxy@@QEAAPEAUHandleProxy@@PEAPEAGG@Z@4HA 000000018000eafc f   V8EngineProxy.obj
 0001:0000db0a       ?dtor$2@?0??CreateArray@V8EngineProxy@@QEAAPEAUHandleProxy@@PEAPEAGG@Z@4HA 000000018000eb0a f   V8EngineProxy.obj
 0001:0000db1a       ?dtor$5@?0??CreateArray@V8EngineProxy@@QEAAPEAUHandleProxy@@PEAPEAGG@Z@4HA 000000018000eb1a f   V8EngineProxy.obj
 0001:0000db26       ?dtor$3@?0??CreateArray@V8EngineProxy@@QEAAPEAUHandleProxy@@PEAPEAGG@Z@4HA 000000018000eb26 f   V8EngineProxy.obj
 0001:0000db36       ?dtor$6@?0??CreateArray@V8EngineProxy@@QEAAPEAUHandleProxy@@PEAPEAGG@Z@4HA 000000018000eb36 f   V8EngineProxy.obj
 0001:0000db42       ?dtor$4@?0??CreateArray@V8EngineProxy@@QEAAPEAUHandleProxy@@PEAPEAGG@Z@4HA 000000018000eb42 f   V8EngineProxy.obj
 0001:0000db52       ?dtor$7@?0??CreateArray@V8EngineProxy@@QEAAPEAUHandleProxy@@PEAPEAGG@Z@4HA 000000018000eb52 f   V8EngineProxy.obj
 0001:0000db70       ?dtor$0@?0??push_back@?$vector@HV?$allocator@H@std@@@std@@QEAAXAEBH@Z@4HA 000000018000eb70 f   V8EngineProxy.obj
 0001:0000db70       ?dtor$0@?0??push_back@?$vector@U_StringItem@@V?$allocator@U_StringItem@@@std@@@std@@QEAAXAEBU_StringItem@@@Z@4HA 000000018000eb70 f   V8EngineProxy.obj
 0001:0000db90       ?dtor$0@?0???1?$_Vb_val@V?$allocator@_N@std@@@std@@QEAA@XZ@4HA 000000018000eb90 f   V8EngineProxy.obj
 0001:0000dba0       ?catch$0@?0??_Construct_n@?$vector@U_StringItem@@V?$allocator@U_StringItem@@@std@@@std@@QEAAX_KPEBU_StringItem@@@Z@4HA 000000018000eba0 f   V8EngineProxy.obj
 0001:0000dbae       __catch$?_Construct_n@?$vector@U_StringItem@@V?$allocator@U_StringItem@@@std@@@std@@QEAAX_KPEBU_StringItem@@@Z$0 000000018000ebae f   V8EngineProxy.obj
 0001:0000dbf0       ?catch$0@?0??_Construct_n@?$vector@PEAUHandleProxy@@V?$allocator@PEAUHandleProxy@@@std@@@std@@QEAAX_KPEBQEAUHandleProxy@@@Z@4HA 000000018000ebf0 f   V8EngineProxy.obj
 0001:0000dbfe       __catch$?_Construct_n@?$vector@PEAUHandleProxy@@V?$allocator@PEAUHandleProxy@@@std@@@std@@QEAAX_KPEBQEAUHandleProxy@@@Z$0 000000018000ebfe f   V8EngineProxy.obj
 0001:0000dc40       ?catch$0@?0??_Construct_n@?$vector@HV?$allocator@H@std@@@std@@QEAAX_KPEBH@Z@4HA 000000018000ec40 f   V8EngineProxy.obj
 0001:0000dc4e       __catch$?_Construct_n@?$vector@HV?$allocator@H@std@@@std@@QEAAX_KPEBH@Z$0 000000018000ec4e f   V8EngineProxy.obj
 0001:0000dc90       ?catch$0@?0??_Reallocate@?$vector@U_StringItem@@V?$allocator@U_StringItem@@@std@@@std@@IEAAX_K@Z@4HA 000000018000ec90 f   V8EngineProxy.obj
 0001:0000dc9d       __catch$?_Reallocate@?$vector@U_StringItem@@V?$allocator@U_StringItem@@@std@@@std@@IEAAX_K@Z$0 000000018000ec9d f   V8EngineProxy.obj
 0001:0000dcc0       ?catch$0@?0??_Reallocate@?$vector@PEAUHandleProxy@@V?$allocator@PEAUHandleProxy@@@std@@@std@@IEAAX_K@Z@4HA 000000018000ecc0 f   V8EngineProxy.obj
 0001:0000dccd       __catch$?_Reallocate@?$vector@PEAUHandleProxy@@V?$allocator@PEAUHandleProxy@@@std@@@std@@IEAAX_K@Z$0 000000018000eccd f   V8EngineProxy.obj
 0001:0000dcf0       ?catch$0@?0??_Reallocate@?$vector@HV?$allocator@H@std@@@std@@IEAAX_K@Z@4HA 000000018000ecf0 f   V8EngineProxy.obj
 0001:0000dcfd       __catch$?_Reallocate@?$vector@HV?$allocator@H@std@@@std@@IEAAX_K@Z$0 000000018000ecfd f   V8EngineProxy.obj
 0001:0000dd20       ?catch$0@?0??_Construct_n@?$vector@IV?$allocator@_N@std@@@std@@QEAAX_KPEBI@Z@4HA 000000018000ed20 f   V8EngineProxy.obj
 0001:0000dd2d       __catch$?_Construct_n@?$vector@IV?$allocator@_N@std@@@std@@QEAAX_KPEBI@Z$0 000000018000ed2d f   V8EngineProxy.obj
 0001:0000dd40       ?catch$0@?0??resize@?$vector@IV?$allocator@_N@std@@@std@@QEAAX_KAEBI@Z@4HA 000000018000ed40 f   V8EngineProxy.obj
 0001:0000dd4d       __catch$?resize@?$vector@IV?$allocator@_N@std@@@std@@QEAAX_KAEBI@Z$0 000000018000ed4d f   V8EngineProxy.obj
 0001:0000dd60       ?catch$0@?0??_Reallocate@?$vector@IV?$allocator@_N@std@@@std@@IEAAX_K@Z@4HA 000000018000ed60 f   V8EngineProxy.obj
 0001:0000dd6d       __catch$?_Reallocate@?$vector@IV?$allocator@_N@std@@@std@@IEAAX_K@Z$0 000000018000ed6d f   V8EngineProxy.obj
 0001:0000dd90       ?catch$0@?0???$_Uninit_fill_n@PEAU_StringItem@@_KU1@V?$allocator@U_StringItem@@@std@@U1@@std@@YAXPEAU_StringItem@@_KPEBU1@AEAU?$_Wrap_alloc@V?$allocator@U_StringItem@@@std@@@0@0U_Nonscalar_ptr_iterator_tag@0@@Z@4HA 000000018000ed90 f   V8EngineProxy.obj
 0001:0000dd9d       __catch$??$_Uninit_fill_n@PEAU_StringItem@@_KU1@V?$allocator@U_StringItem@@@std@@U1@@std@@YAXPEAU_StringItem@@_KPEBU1@AEAU?$_Wrap_alloc@V?$allocator@U_StringItem@@@std@@@0@0U_Nonscalar_ptr_iterator_tag@0@@Z$0 000000018000ed9d f   V8EngineProxy.obj
 0001:0000ddb0       ?dtor$0@?0???$_Uninit_move@PEAU_StringItem@@PEAU1@V?$allocator@U_StringItem@@@std@@U1@@std@@YAPEAU_StringItem@@PEAU1@00AEAU?$_Wrap_alloc@V?$allocator@U_StringItem@@@std@@@0@0U_Nonscalar_ptr_iterator_tag@0@@Z@4HA 000000018000edb0 f   V8EngineProxy.obj
 0001:0000ddcc       ?catch$0@?0???$_Uninit_move@PEAU_StringItem@@PEAU1@V?$allocator@U_StringItem@@@std@@U1@@std@@YAPEAU_StringItem@@PEAU1@00AEAU?$_Wrap_alloc@V?$allocator@U_StringItem@@@std@@@0@0U_Nonscalar_ptr_iterator_tag@0@@Z@4HA 000000018000edcc f   V8EngineProxy.obj
 0001:0000ddd9       __catch$??$_Uninit_move@PEAU_StringItem@@PEAU1@V?$allocator@U_StringItem@@@std@@U1@@std@@YAPEAU_StringItem@@PEAU1@00AEAU?$_Wrap_alloc@V?$allocator@U_StringItem@@@std@@@0@0U_Nonscalar_ptr_iterator_tag@0@@Z$0 000000018000edd9 f   V8EngineProxy.obj
 0001:0000ddf0       ?dtor$0@?0??CreateDefaultPlatform@platform@v8@@YAPEAVPlatform@2@H@Z@4HA 000000018000edf0 f   v8_libplatform:default-platform.obj
 0001:0000de00       ?dtor$0@?0???0DefaultPlatform@platform@v8@@QEAA@XZ@4HA 000000018000ee00 f   v8_libplatform:default-platform.obj
 0001:0000de0c       ?dtor$1@?0???0DefaultPlatform@platform@v8@@QEAA@XZ@4HA 000000018000ee0c f   v8_libplatform:default-platform.obj
 0001:0000de1c       ?dtor$2@?0???0DefaultPlatform@platform@v8@@QEAA@XZ@4HA 000000018000ee1c f   v8_libplatform:default-platform.obj
 0001:0000de2c       ?dtor$3@?0???0DefaultPlatform@platform@v8@@QEAA@XZ@4HA 000000018000ee2c f   v8_libplatform:default-platform.obj
 0001:0000de40       ?dtor$0@?0???1DefaultPlatform@platform@v8@@UEAA@XZ@4HA 000000018000ee40 f   v8_libplatform:default-platform.obj
 0001:0000de4c       ?dtor$1@?0???1DefaultPlatform@platform@v8@@UEAA@XZ@4HA 000000018000ee4c f   v8_libplatform:default-platform.obj
 0001:0000de5c       ?dtor$2@?0???1DefaultPlatform@platform@v8@@UEAA@XZ@4HA 000000018000ee5c f   v8_libplatform:default-platform.obj
 0001:0000de6c       ?dtor$3@?0???1DefaultPlatform@platform@v8@@UEAA@XZ@4HA 000000018000ee6c f   v8_libplatform:default-platform.obj
 0001:0000de7c       ?dtor$4@?0???1DefaultPlatform@platform@v8@@UEAA@XZ@4HA 000000018000ee7c f   v8_libplatform:default-platform.obj
 0001:0000de8f       ?dtor$5@?0???1DefaultPlatform@platform@v8@@UEAA@XZ@4HA 000000018000ee8f f   v8_libplatform:default-platform.obj
 0001:0000dea0       ?dtor$0@?0??EnsureInitialized@DefaultPlatform@platform@v8@@QEAAXXZ@4HA 000000018000eea0 f   v8_libplatform:default-platform.obj
 0001:0000deac       ?dtor$1@?0??EnsureInitialized@DefaultPlatform@platform@v8@@QEAAXXZ@4HA 000000018000eeac f   v8_libplatform:default-platform.obj
 0001:0000dec0       ?dtor$0@?0??CallOnBackgroundThread@DefaultPlatform@platform@v8@@UEAAXPEAVTask@3@W4ExpectedRuntime@Platform@3@@Z@4HA 000000018000eec0 f   v8_libplatform:default-platform.obj
 0001:0000ded0       ?dtor$0@?0??CallOnForegroundThread@DefaultPlatform@platform@v8@@UEAAXPEAVIsolate@3@PEAVTask@3@@Z@4HA 000000018000eed0 f   v8_libplatform:default-platform.obj
 0001:0000dee0       ?catch$0@?0??_Reallocate@?$vector@PEAVWorkerThread@platform@v8@@V?$allocator@PEAVWorkerThread@platform@v8@@@std@@@std@@IEAAX_K@Z@4HA 000000018000eee0 f   v8_libplatform:default-platform.obj
 0001:0000deed       __catch$?_Reallocate@?$vector@PEAVWorkerThread@platform@v8@@V?$allocator@PEAVWorkerThread@platform@v8@@@std@@@std@@IEAAX_K@Z$0 000000018000eeed f   v8_libplatform:default-platform.obj
 0001:0000df10       ?catch$1@?0??_Copy@?$basic_string@DU?$char_traits@D@std@@V?$allocator@D@2@@std@@QEAAX_K0@Z@4HA 000000018000ef10 f   v8_libplatform:default-platform.obj
 0001:0000df1d       __catch$?_Copy@?$basic_string@DU?$char_traits@D@std@@V?$allocator@D@2@@std@@QEAAX_K0@Z$0 000000018000ef1d f   v8_libplatform:default-platform.obj
 0001:0000df5a       ?catch$0@?0??_Copy@?$basic_string@DU?$char_traits@D@std@@V?$allocator@D@2@@std@@QEAAX_K0@Z@4HA 000000018000ef5a f   v8_libplatform:default-platform.obj
 0001:0000df68       __catch$?_Copy@?$basic_string@DU?$char_traits@D@std@@V?$allocator@D@2@@std@@QEAAX_K0@Z$1 000000018000ef68 f   v8_libplatform:default-platform.obj
 0001:0000dfa0       ?catch$0@?0??_Buyheadnode@?$_Tree_alloc@$0A@U?$_Tree_base_types@U?$pair@QEAVIsolate@v8@@V?$queue@PEAVTask@v8@@V?$deque@PEAVTask@v8@@V?$allocator@PEAVTask@v8@@@std@@@std@@@std@@@std@@V?$allocator@U?$pair@QEAVIsolate@v8@@V?$queue@PEAVTask@v8@@V?$deque@PEAVTask@v8@@V?$allocator@PEAVTask@v8@@@std@@@std@@@std@@@std@@@2@@std@@@std@@QEAAPEAU?$_Tree_node@U?$pair@QEAVIsolate@v8@@V?$queue@PEAVTask@v8@@V?$deque@PEAVTask@v8@@V?$allocator@PEAVTask@v8@@@std@@@std@@@std@@@std@@PEAX@2@XZ@4HA 000000018000efa0 f   v8_libplatform:default-platform.obj
 0001:0000dfad       __catch$?_Buyheadnode@?$_Tree_alloc@$0A@U?$_Tree_base_types@U?$pair@QEAVIsolate@v8@@V?$queue@PEAVTask@v8@@V?$deque@PEAVTask@v8@@V?$allocator@PEAVTask@v8@@@std@@@std@@@std@@@std@@V?$allocator@U?$pair@QEAVIsolate@v8@@V?$queue@PEAVTask@v8@@V?$deque@PEAVTask@v8@@V?$allocator@PEAVTask@v8@@@std@@@std@@@std@@@std@@@2@@std@@@std@@QEAAPEAU?$_Tree_node@U?$pair@QEAVIsolate@v8@@V?$queue@PEAVTask@v8@@V?$deque@PEAVTask@v8@@V?$allocator@PEAVTask@v8@@@std@@@std@@@std@@@std@@PEAX@2@XZ$0 000000018000efad f   v8_libplatform:default-platform.obj
 0001:0000dfd0       ?dtor$0@?0???$_Buynode@AEBUpiecewise_construct_t@std@@V?$tuple@AEBQEAVIsolate@v8@@@2@V?$tuple@$$$V@2@@?$_Tree_buy@U?$pair@QEAVIsolate@v8@@V?$queue@PEAVTask@v8@@V?$deque@PEAVTask@v8@@V?$allocator@PEAVTask@v8@@@std@@@std@@@std@@@std@@V?$allocator@U?$pair@QEAVIsolate@v8@@V?$queue@PEAVTask@v8@@V?$deque@PEAVTask@v8@@V?$allocator@PEAVTask@v8@@@std@@@std@@@std@@@std@@@2@@std@@QEAAPEAU?$_Tree_node@U?$pair@QEAVIsolate@v8@@V?$queue@PEAVTask@v8@@V?$deque@PEAVTask@v8@@V?$allocator@PEAVTask@v8@@@std@@@std@@@std@@@std@@PEAX@1@AEBUpiecewise_construct_t@1@$$QEAV?$tuple@AEBQEAVIsolate@v8@@@1@$$QEAV?$tuple@$$$V@1@@Z@4HA 000000018000efd0 f   v8_libplatform:default-platform.obj
 0001:0000dfec       ?dtor$4@?0???$_Buynode@AEBUpiecewise_construct_t@std@@V?$tuple@AEBQEAVIsolate@v8@@@2@V?$tuple@$$$V@2@@?$_Tree_buy@U?$pair@QEAVIsolate@v8@@V?$queue@PEAVTask@v8@@V?$deque@PEAVTask@v8@@V?$allocator@PEAVTask@v8@@@std@@@std@@@std@@@std@@V?$allocator@U?$pair@QEAVIsolate@v8@@V?$queue@PEAVTask@v8@@V?$deque@PEAVTask@v8@@V?$allocator@PEAVTask@v8@@@std@@@std@@@std@@@std@@@2@@std@@QEAAPEAU?$_Tree_node@U?$pair@QEAVIsolate@v8@@V?$queue@PEAVTask@v8@@V?$deque@PEAVTask@v8@@V?$allocator@PEAVTask@v8@@@std@@@std@@@std@@@std@@PEAX@1@AEBUpiecewise_construct_t@1@$$QEAV?$tuple@AEBQEAVIsolate@v8@@@1@$$QEAV?$tuple@$$$V@1@@Z@4HA 000000018000efec f   v8_libplatform:default-platform.obj
 0001:0000dff8       ?dtor$3@?0???$_Buynode@AEBUpiecewise_construct_t@std@@V?$tuple@AEBQEAVIsolate@v8@@@2@V?$tuple@$$$V@2@@?$_Tree_buy@U?$pair@QEAVIsolate@v8@@V?$queue@PEAVTask@v8@@V?$deque@PEAVTask@v8@@V?$allocator@PEAVTask@v8@@@std@@@std@@@std@@@std@@V?$allocator@U?$pair@QEAVIsolate@v8@@V?$queue@PEAVTask@v8@@V?$deque@PEAVTask@v8@@V?$allocator@PEAVTask@v8@@@std@@@std@@@std@@@std@@@2@@std@@QEAAPEAU?$_Tree_node@U?$pair@QEAVIsolate@v8@@V?$queue@PEAVTask@v8@@V?$deque@PEAVTask@v8@@V?$allocator@PEAVTask@v8@@@std@@@std@@@std@@@std@@PEAX@1@AEBUpiecewise_construct_t@1@$$QEAV?$tuple@AEBQEAVIsolate@v8@@@1@$$QEAV?$tuple@$$$V@1@@Z@4HA 000000018000eff8 f   v8_libplatform:default-platform.obj
 0001:0000e004       ?dtor$2@?0???$_Buynode@AEBUpiecewise_construct_t@std@@V?$tuple@AEBQEAVIsolate@v8@@@2@V?$tuple@$$$V@2@@?$_Tree_buy@U?$pair@QEAVIsolate@v8@@V?$queue@PEAVTask@v8@@V?$deque@PEAVTask@v8@@V?$allocator@PEAVTask@v8@@@std@@@std@@@std@@@std@@V?$allocator@U?$pair@QEAVIsolate@v8@@V?$queue@PEAVTask@v8@@V?$deque@PEAVTask@v8@@V?$allocator@PEAVTask@v8@@@std@@@std@@@std@@@std@@@2@@std@@QEAAPEAU?$_Tree_node@U?$pair@QEAVIsolate@v8@@V?$queue@PEAVTask@v8@@V?$deque@PEAVTask@v8@@V?$allocator@PEAVTask@v8@@@std@@@std@@@std@@@std@@PEAX@1@AEBUpiecewise_construct_t@1@$$QEAV?$tuple@AEBQEAVIsolate@v8@@@1@$$QEAV?$tuple@$$$V@1@@Z@4HA 000000018000f004 f   v8_libplatform:default-platform.obj
 0001:0000e014       ?dtor$1@?0???$_Buynode@AEBUpiecewise_construct_t@std@@V?$tuple@AEBQEAVIsolate@v8@@@2@V?$tuple@$$$V@2@@?$_Tree_buy@U?$pair@QEAVIsolate@v8@@V?$queue@PEAVTask@v8@@V?$deque@PEAVTask@v8@@V?$allocator@PEAVTask@v8@@@std@@@std@@@std@@@std@@V?$allocator@U?$pair@QEAVIsolate@v8@@V?$queue@PEAVTask@v8@@V?$deque@PEAVTask@v8@@V?$allocator@PEAVTask@v8@@@std@@@std@@@std@@@std@@@2@@std@@QEAAPEAU?$_Tree_node@U?$pair@QEAVIsolate@v8@@V?$queue@PEAVTask@v8@@V?$deque@PEAVTask@v8@@V?$allocator@PEAVTask@v8@@@std@@@std@@@std@@@std@@PEAX@1@AEBUpiecewise_construct_t@1@$$QEAV?$tuple@AEBQEAVIsolate@v8@@@1@$$QEAV?$tuple@$$$V@1@@Z@4HA 000000018000f014 f   v8_libplatform:default-platform.obj
 0001:0000e020       ?catch$0@?0???$_Buynode@AEBUpiecewise_construct_t@std@@V?$tuple@AEBQEAVIsolate@v8@@@2@V?$tuple@$$$V@2@@?$_Tree_buy@U?$pair@QEAVIsolate@v8@@V?$queue@PEAVTask@v8@@V?$deque@PEAVTask@v8@@V?$allocator@PEAVTask@v8@@@std@@@std@@@std@@@std@@V?$allocator@U?$pair@QEAVIsolate@v8@@V?$queue@PEAVTask@v8@@V?$deque@PEAVTask@v8@@V?$allocator@PEAVTask@v8@@@std@@@std@@@std@@@std@@@2@@std@@QEAAPEAU?$_Tree_node@U?$pair@QEAVIsolate@v8@@V?$queue@PEAVTask@v8@@V?$deque@PEAVTask@v8@@V?$allocator@PEAVTask@v8@@@std@@@std@@@std@@@std@@PEAX@1@AEBUpiecewise_construct_t@1@$$QEAV?$tuple@AEBQEAVIsolate@v8@@@1@$$QEAV?$tuple@$$$V@1@@Z@4HA 000000018000f020 f   v8_libplatform:default-platform.obj
 0001:0000e02d       __catch$??$_Buynode@AEBUpiecewise_construct_t@std@@V?$tuple@AEBQEAVIsolate@v8@@@2@V?$tuple@$$$V@2@@?$_Tree_buy@U?$pair@QEAVIsolate@v8@@V?$queue@PEAVTask@v8@@V?$deque@PEAVTask@v8@@V?$allocator@PEAVTask@v8@@@std@@@std@@@std@@@std@@V?$allocator@U?$pair@QEAVIsolate@v8@@V?$queue@PEAVTask@v8@@V?$deque@PEAVTask@v8@@V?$allocator@PEAVTask@v8@@@std@@@std@@@std@@@std@@@2@@std@@QEAAPEAU?$_Tree_node@U?$pair@QEAVIsolate@v8@@V?$queue@PEAVTask@v8@@V?$deque@PEAVTask@v8@@V?$allocator@PEAVTask@v8@@@std@@@std@@@std@@@std@@PEAX@1@AEBUpiecewise_construct_t@1@$$QEAV?$tuple@AEBQEAVIsolate@v8@@@1@$$QEAV?$tuple@$$$V@1@@Z$0 000000018000f02d f   v8_libplatform:default-platform.obj
 0001:0000e050       ?catch$0@?0???$_Insert_hint@AEAU?$pair@QEAVIsolate@v8@@V?$queue@PEAVTask@v8@@V?$deque@PEAVTask@v8@@V?$allocator@PEAVTask@v8@@@std@@@std@@@std@@@std@@PEAU?$_Tree_node@U?$pair@QEAVIsolate@v8@@V?$queue@PEAVTask@v8@@V?$deque@PEAVTask@v8@@V?$allocator@PEAVTask@v8@@@std@@@std@@@std@@@std@@PEAX@2@@?$_Tree@V?$_Tmap_traits@PEAVIsolate@v8@@V?$queue@PEAVTask@v8@@V?$deque@PEAVTask@v8@@V?$allocator@PEAVTask@v8@@@std@@@std@@@std@@U?$less@PEAVIsolate@v8@@@4@V?$allocator@U?$pair@QEAVIsolate@v8@@V?$queue@PEAVTask@v8@@V?$deque@PEAVTask@v8@@V?$allocator@PEAVTask@v8@@@std@@@std@@@std@@@std@@@4@$0A@@std@@@std@@IEAA?AV?$_Tree_iterator@V?$_Tree_val@U?$_Tree_simple_types@U?$pair@QEAVIsolate@v8@@V?$queue@PEAVTask@v8@@V?$deque@PEAVTask@v8@@V?$allocator@PEAVTask@v8@@@std@@@std@@@std@@@std@@@std@@@std@@@1@V?$_Tree_const_iterator@V?$_Tree_val@U?$_Tree_simple_types@U?$pair@QEAVIsolate@v8@@V?$queue@PEAVTask@v8@@V?$deque@PEAVTask@v8@@V?$allocator@PEAVTask@v8@@@std@@@std@@@std@@@std@@@std@@@std@@@1@AEAU?$pair@QEAVIsolate@v8@@V?$queue@PEAVTask@v8@@V?$deque@PEAVTask@v8@@V?$allocator@PEAVTask@v8@@@std@@@std@@@std@@@1@PEAU?$_Tree_node@U?$pair@QEAVIsolate@v8@@V?$queue@PEAVTask@v8@@V?$deque@PEAVTask@v8@@V?$allocator@PEAVTask@v8@@@std@@@std@@@std@@@std@@PEAX@1@@Z@4HA 000000018000f050 f   v8_libplatform:default-platform.obj
 0001:0000e05d       __catch$??$_Insert_hint@AEAU?$pair@QEAVIsolate@v8@@V?$queue@PEAVTask@v8@@V?$deque@PEAVTask@v8@@V?$allocator@PEAVTask@v8@@@std@@@std@@@std@@@std@@PEAU?$_Tree_node@U?$pair@QEAVIsolate@v8@@V?$queue@PEAVTask@v8@@V?$deque@PEAVTask@v8@@V?$allocator@PEAVTask@v8@@@std@@@std@@@std@@@std@@PEAX@2@@?$_Tree@V?$_Tmap_traits@PEAVIsolate@v8@@V?$queue@PEAVTask@v8@@V?$deque@PEAVTask@v8@@V?$allocator@PEAVTask@v8@@@std@@@std@@@std@@U?$less@PEAVIsolate@v8@@@4@V?$allocator@U?$pair@QEAVIsolate@v8@@V?$queue@PEAVTask@v8@@V?$deque@PEAVTask@v8@@V?$allocator@PEAVTask@v8@@@std@@@std@@@std@@@std@@@4@$0A@@std@@@std@@IEAA?AV?$_Tree_iterator@V?$_Tree_val@U?$_Tree_simple_types@U?$pair@QEAVIsolate@v8@@V?$queue@PEAVTask@v8@@V?$deque@PEAVTask@v8@@V?$allocator@PEAVTask@v8@@@std@@@std@@@std@@@std@@@std@@@std@@@1@V?$_Tree_const_iterator@V?$_Tree_val@U?$_Tree_simple_types@U?$pair@QEAVIsolate@v8@@V?$queue@PEAVTask@v8@@V?$deque@PEAVTask@v8@@V?$allocator@PEAVTask@v8@@@std@@@std@@@std@@@std@@@std@@@std@@@1@AEAU?$pair@QEAVIsolate@v8@@V?$queue@PEAVTask@v8@@V?$deque@PEAVTask@v8@@V?$allocator@PEAVTask@v8@@@std@@@std@@@std@@@1@PEAU?$_Tree_node@U?$pair@QEAVIsolate@v8@@V?$queue@PEAVTask@v8@@V?$deque@PEAVTask@v8@@V?$allocator@PEAVTask@v8@@@std@@@std@@@std@@@std@@PEAX@1@@Z$0 000000018000f05d f   v8_libplatform:default-platform.obj
 0001:0000e080       ?catch$0@?0??_Buynode0@?$_Tree_buy@U?$pair@QEAVIsolate@v8@@V?$queue@PEAVTask@v8@@V?$deque@PEAVTask@v8@@V?$allocator@PEAVTask@v8@@@std@@@std@@@std@@@std@@V?$allocator@U?$pair@QEAVIsolate@v8@@V?$queue@PEAVTask@v8@@V?$deque@PEAVTask@v8@@V?$allocator@PEAVTask@v8@@@std@@@std@@@std@@@std@@@2@@std@@QEAAPEAU?$_Tree_node@U?$pair@QEAVIsolate@v8@@V?$queue@PEAVTask@v8@@V?$deque@PEAVTask@v8@@V?$allocator@PEAVTask@v8@@@std@@@std@@@std@@@std@@PEAX@2@XZ@4HA 000000018000f080 f   v8_libplatform:default-platform.obj
 0001:0000e08d       __catch$?_Buynode0@?$_Tree_buy@U?$pair@QEAVIsolate@v8@@V?$queue@PEAVTask@v8@@V?$deque@PEAVTask@v8@@V?$allocator@PEAVTask@v8@@@std@@@std@@@std@@@std@@V?$allocator@U?$pair@QEAVIsolate@v8@@V?$queue@PEAVTask@v8@@V?$deque@PEAVTask@v8@@V?$allocator@PEAVTask@v8@@@std@@@std@@@std@@@std@@@2@@std@@QEAAPEAU?$_Tree_node@U?$pair@QEAVIsolate@v8@@V?$queue@PEAVTask@v8@@V?$deque@PEAVTask@v8@@V?$allocator@PEAVTask@v8@@@std@@@std@@@std@@@std@@PEAX@2@XZ$0 000000018000f08d f   v8_libplatform:default-platform.obj
 0001:0000e0b0       ?catch$0@?0???$_Insert_nohint@AEAU?$pair@QEAVIsolate@v8@@V?$queue@PEAVTask@v8@@V?$deque@PEAVTask@v8@@V?$allocator@PEAVTask@v8@@@std@@@std@@@std@@@std@@PEAU?$_Tree_node@U?$pair@QEAVIsolate@v8@@V?$queue@PEAVTask@v8@@V?$deque@PEAVTask@v8@@V?$allocator@PEAVTask@v8@@@std@@@std@@@std@@@std@@PEAX@2@@?$_Tree@V?$_Tmap_traits@PEAVIsolate@v8@@V?$queue@PEAVTask@v8@@V?$deque@PEAVTask@v8@@V?$allocator@PEAVTask@v8@@@std@@@std@@@std@@U?$less@PEAVIsolate@v8@@@4@V?$allocator@U?$pair@QEAVIsolate@v8@@V?$queue@PEAVTask@v8@@V?$deque@PEAVTask@v8@@V?$allocator@PEAVTask@v8@@@std@@@std@@@std@@@std@@@4@$0A@@std@@@std@@IEAA?AU?$pair@V?$_Tree_iterator@V?$_Tree_val@U?$_Tree_simple_types@U?$pair@QEAVIsolate@v8@@V?$queue@PEAVTask@v8@@V?$deque@PEAVTask@v8@@V?$allocator@PEAVTask@v8@@@std@@@std@@@std@@@std@@@std@@@std@@@std@@_N@1@_NAEAU?$pair@QEAVIsolate@v8@@V?$queue@PEAVTask@v8@@V?$deque@PEAVTask@v8@@V?$allocator@PEAVTask@v8@@@std@@@std@@@std@@@1@PEAU?$_Tree_node@U?$pair@QEAVIsolate@v8@@V?$queue@PEAVTask@v8@@V?$deque@PEAVTask@v8@@V?$allocator@PEAVTask@v8@@@std@@@std@@@std@@@std@@PEAX@1@@Z@4HA 000000018000f0b0 f   v8_libplatform:default-platform.obj
 0001:0000e0bd       __catch$??$_Insert_nohint@AEAU?$pair@QEAVIsolate@v8@@V?$queue@PEAVTask@v8@@V?$deque@PEAVTask@v8@@V?$allocator@PEAVTask@v8@@@std@@@std@@@std@@@std@@PEAU?$_Tree_node@U?$pair@QEAVIsolate@v8@@V?$queue@PEAVTask@v8@@V?$deque@PEAVTask@v8@@V?$allocator@PEAVTask@v8@@@std@@@std@@@std@@@std@@PEAX@2@@?$_Tree@V?$_Tmap_traits@PEAVIsolate@v8@@V?$queue@PEAVTask@v8@@V?$deque@PEAVTask@v8@@V?$allocator@PEAVTask@v8@@@std@@@std@@@std@@U?$less@PEAVIsolate@v8@@@4@V?$allocator@U?$pair@QEAVIsolate@v8@@V?$queue@PEAVTask@v8@@V?$deque@PEAVTask@v8@@V?$allocator@PEAVTask@v8@@@std@@@std@@@std@@@std@@@4@$0A@@std@@@std@@IEAA?AU?$pair@V?$_Tree_iterator@V?$_Tree_val@U?$_Tree_simple_types@U?$pair@QEAVIsolate@v8@@V?$queue@PEAVTask@v8@@V?$deque@PEAVTask@v8@@V?$allocator@PEAVTask@v8@@@std@@@std@@@std@@@std@@@std@@@std@@@std@@_N@1@_NAEAU?$pair@QEAVIsolate@v8@@V?$queue@PEAVTask@v8@@V?$deque@PEAVTask@v8@@V?$allocator@PEAVTask@v8@@@std@@@std@@@std@@@1@PEAU?$_Tree_node@U?$pair@QEAVIsolate@v8@@V?$queue@PEAVTask@v8@@V?$deque@PEAVTask@v8@@V?$allocator@PEAVTask@v8@@@std@@@std@@@std@@@std@@PEAX@1@@Z$0 000000018000f0bd f   v8_libplatform:default-platform.obj
 0001:0000e0e0       ?dtor$0@?0???0TaskQueue@platform@v8@@QEAA@XZ@4HA 000000018000f0e0 f   v8_libplatform:task-queue.obj
 0001:0000e0ec       ?dtor$1@?0???0TaskQueue@platform@v8@@QEAA@XZ@4HA 000000018000f0ec f   v8_libplatform:task-queue.obj
 0001:0000e0fc       ?dtor$4@?0???0TaskQueue@platform@v8@@QEAA@XZ@4HA 000000018000f0fc f   v8_libplatform:task-queue.obj
 0001:0000e108       ?dtor$3@?0???0TaskQueue@platform@v8@@QEAA@XZ@4HA 000000018000f108 f   v8_libplatform:task-queue.obj
 0001:0000e114       ?dtor$2@?0???0TaskQueue@platform@v8@@QEAA@XZ@4HA 000000018000f114 f   v8_libplatform:task-queue.obj
 0001:0000e124       _onexit$fin$0              000000018000f124 f   MSVCRT:atonexit.obj
 0001:0000e13f       __DllMainCRTStartup$filt$0 000000018000f13f f   MSVCRT:crtdll.obj
 0001:0000e164       __DllMainCRTStartup$fin$1  000000018000f164 f   MSVCRT:crtdll.obj
 0001:0000e17e       ?fin$0@?0???_M@YAXPEAX_KHP6AX0@Z@Z@4HA 000000018000f17e f   MSVCRT:ehvecdtr.obj
 0001:0000e1aa       ?filt$0@?0??__ArrayUnwind@@YAXPEAX_KHP6AX0@Z@Z@4HA 000000018000f1aa f   MSVCRT:ehvecdtr.obj
 0001:0000e1f0       _IsNonwritableInCurrentImage$filt$0 000000018000f1f0 f   MSVCRT:pesect.obj
 0001:0000e210       ??__F?_DisposedEngines@V8EngineProxy@@1V?$vector@_NV?$allocator@_N@std@@@std@@A@@YAXXZ 000000018000f210 f   V8EngineProxy.obj
 0001:0000e270       ??__F?_System_object@?$_Error_objects@H@std@@2V_System_error_category@2@A@@YAXXZ 000000018000f270 f   v8_libplatform:default-platform.obj
 0001:0000e280       ??__F?_Iostream_object@?$_Error_objects@H@std@@2V_Iostream_error_category@2@A@@YAXXZ 000000018000f280 f   v8_libplatform:default-platform.obj
 0001:0000e290       ??__F?_Generic_object@?$_Error_objects@H@std@@2V_Generic_error_category@2@A@@YAXXZ 000000018000f290 f   v8_libplatform:default-platform.obj
 0002:00000568       ?_DisposedEngines$initializer$@V8EngineProxy@@1P6AXXZEA 0000000180010568     V8EngineProxy.obj
 0002:00000570       ?_Generic_object$initializer$@?$_Error_objects@H@std@@2P6AXXZEA 0000000180010570     v8_libplatform:default-platform.obj
 0002:00000578       ?_Iostream_object$initializer$@?$_Error_objects@H@std@@2P6AXXZEA 0000000180010578     v8_libplatform:default-platform.obj
 0002:00000580       ?_System_object$initializer$@?$_Error_objects@H@std@@2P6AXXZEA 0000000180010580     v8_libplatform:default-platform.obj
 0002:00000598       pcinit                     0000000180010598     MSVCRT:crtdll.obj
 0002:000005a0       pinit                      00000001800105a0     MSVCRT:atonexit.obj
 0002:00000600       GS_ExceptionPointers       0000000180010600     MSVCRT:gs_report.obj
 0002:00000a88       $cppxdata$GetHandleManagedObjectID 0000000180010a88     Exports.obj
 0002:00000ab0       $cppxdata$UpdateHandleValue 0000000180010ab0     Exports.obj
 0002:00000ad8       $cppxdata$DisposeHandleProxy 0000000180010ad8     Exports.obj
 0002:00000b00       $cppxdata$MakeStrongHandle 0000000180010b00     Exports.obj
 0002:00000b28       $cppxdata$MakeWeakHandle   0000000180010b28     Exports.obj
 0002:00000b50       $cppxdata$CreateError      0000000180010b50     Exports.obj
 0002:00000b78       $cppxdata$CreateNullValue  0000000180010b78     Exports.obj
 0002:00000ba0       $cppxdata$CreateStringArray 0000000180010ba0     Exports.obj
 0002:00000bc8       $cppxdata$CreateArray      0000000180010bc8     Exports.obj
 0002:00000bf0       $cppxdata$CreateObject     0000000180010bf0     Exports.obj
 0002:00000c18       $cppxdata$CreateDate       0000000180010c18     Exports.obj
 0002:00000c40       $cppxdata$CreateString     0000000180010c40     Exports.obj
 0002:00000c68       $cppxdata$CreateNumber     0000000180010c68     Exports.obj
 0002:00000c90       $cppxdata$CreateInteger    0000000180010c90     Exports.obj
 0002:00000cb8       $cppxdata$CreateBoolean    0000000180010cb8     Exports.obj
 0002:00000ce0       $cppxdata$SetFunctionTemplateProperty 0000000180010ce0     Exports.obj
 0002:00000d08       $cppxdata$CreateFunctionInstance 0000000180010d08     Exports.obj
 0002:00000d30       $cppxdata$GetFunction      0000000180010d30     Exports.obj
 0002:00000d58       $cppxdata$GetFunctionPrototypeTemplateProxy 0000000180010d58     Exports.obj
 0002:00000d80       $cppxdata$GetFunctionInstanceTemplateProxy 0000000180010d80     Exports.obj
 0002:00000da8       $cppxdata$DeleteFunctionTemplateProxy 0000000180010da8     Exports.obj
 0002:00000dd0       $cppxdata$CreateFunctionTemplateProxy 0000000180010dd0     Exports.obj
 0002:00000df8       $cppxdata$GetArrayLength   0000000180010df8     Exports.obj
 0002:00000e20       $cppxdata$GetPropertyAttributes 0000000180010e20     Exports.obj
 0002:00000e48       $cppxdata$GetOwnPropertyNames 0000000180010e48     Exports.obj
 0002:00000e70       $cppxdata$GetPropertyNames 0000000180010e70     Exports.obj
 0002:00000e98       $cppxdata$SetObjectTemplateProperty 0000000180010e98     Exports.obj
 0002:00000ec0       $cppxdata$SetObjectTemplateAccessor 0000000180010ec0     Exports.obj
 0002:00000ee8       $cppxdata$SetObjectAccessor 0000000180010ee8     Exports.obj
 0002:00000f10       $cppxdata$DeleteObjectPropertyByIndex 0000000180010f10     Exports.obj
 0002:00000f38       $cppxdata$DeleteObjectPropertyByName 0000000180010f38     Exports.obj
 0002:00000f60       $cppxdata$GetObjectPropertyByIndex 0000000180010f60     Exports.obj
 0002:00000f88       $cppxdata$GetObjectPropertyByName 0000000180010f88     Exports.obj
 0002:00000fb0       $cppxdata$SetObjectPropertyByIndex 0000000180010fb0     Exports.obj
 0002:00000fd8       $cppxdata$SetObjectPropertyByName 0000000180010fd8     Exports.obj
 0002:00001000       $cppxdata$Call             0000000180011000     Exports.obj
 0002:00001028       $cppxdata$GetObjectPrototype 0000000180011028     Exports.obj
 0002:00001050       $cppxdata$ConnectObject    0000000180011050     Exports.obj
 0002:00001078       $cppxdata$CreateObjectFromTemplate 0000000180011078     Exports.obj
 0002:000010a0       $cppxdata$RegisterInvokeHandler 00000001800110a0     Exports.obj
 0002:000010c8       $cppxdata$UnregisterIndexedPropertyHandlers 00000001800110c8     Exports.obj
 0002:000010f0       $cppxdata$UnregisterNamedPropertyHandlers 00000001800110f0     Exports.obj
 0002:00001118       $cppxdata$RegisterIndexedPropertyHandlers 0000000180011118     Exports.obj
 0002:00001140       $cppxdata$RegisterNamedPropertyHandlers 0000000180011140     Exports.obj
 0002:00001168       $cppxdata$SetGlobalObjectTemplate 0000000180011168     Exports.obj
 0002:00001190       $cppxdata$DeleteObjectTemplateProxy 0000000180011190     Exports.obj
 0002:000011b8       $cppxdata$CreateObjectTemplateProxy 00000001800111b8     Exports.obj
 0002:000011e0       $cppxdata$V8ExecuteCompiledScript 00000001800111e0     Exports.obj
 0002:00001208       $cppxdata$V8Compile        0000000180011208     Exports.obj
 0002:00001230       $cppxdata$V8Execute        0000000180011230     Exports.obj
 0002:00001258       $cppxdata$ForceGC          0000000180011258     Exports.obj
 0002:00001280       $cppxdata$RegisterGCCallback 0000000180011280     Exports.obj
 0002:000012a8       $cppxdata$CreateV8EngineProxy 00000001800112a8     Exports.obj
 0002:000012d0       $cppxdata$??1?$CopyablePersistent@VFunctionTemplate@v8@@@@QEAA@XZ 00000001800112d0     FunctionTemplateProxy.obj
 0002:000012d0       $cppxdata$??1?$CopyablePersistent@VValue@v8@@@@QEAA@XZ 00000001800112d0     HandleProxy.obj
 0002:000012d0       $cppxdata$??1?$CopyablePersistent@VScript@v8@@@@QEAA@XZ 00000001800112d0     HandleProxy.obj
 0002:000012d0       $cppxdata$??1?$CopyablePersistent@VObject@v8@@@@QEAA@XZ 00000001800112d0     V8EngineProxy.obj
 0002:000012d0       $cppxdata$??1?$CopyablePersistent@VContext@v8@@@@QEAA@XZ 00000001800112d0     V8EngineProxy.obj
 0002:000012d0       $cppxdata$??1?$CopyablePersistent@VObjectTemplate@v8@@@@QEAA@XZ 00000001800112d0     ObjectTemplateProxy.obj
 0002:000012f8       $cppxdata$??0FunctionTemplateProxy@@QEAA@PEAVV8EngineProxy@@PEAGP6APEAUHandleProxy@@H_NPEAU2@PEAPEAU2@I@Z@Z 00000001800112f8     FunctionTemplateProxy.obj
 0002:00001320       $cppxdata$?CreateInstance@FunctionTemplateProxy@@QEAAPEAUHandleProxy@@HHPEAPEAU2@@Z 0000000180011320     FunctionTemplateProxy.obj
 0002:00001348       $cppxdata$??1FunctionTemplateProxy@@QEAA@XZ 0000000180011348     FunctionTemplateProxy.obj
 0002:00001370       $cppxdata$?SetHandle@HandleProxy@@IEAAPEAU1@V?$Handle@VValue@v8@@@v8@@@Z 0000000180011370     HandleProxy.obj
 0002:00001398       $cppxdata$?SetHandle@HandleProxy@@IEAAPEAU1@V?$Handle@VScript@v8@@@v8@@@Z 0000000180011398     HandleProxy.obj
 0002:000013c0       $cppxdata$??1HandleProxy@@IEAA@XZ 00000001800113c0     HandleProxy.obj
 0002:000013e8       $cppxdata$??0ObjectTemplateProxy@@QEAA@PEAVV8EngineProxy@@@Z 00000001800113e8     ObjectTemplateProxy.obj
 0002:00001410       $cppxdata$??0ObjectTemplateProxy@@QEAA@PEAVV8EngineProxy@@V?$Local@VObjectTemplate@v8@@@v8@@@Z 0000000180011410     ObjectTemplateProxy.obj
 0002:00001438       $cppxdata$??1ObjectTemplateProxy@@QEAA@XZ 0000000180011438     ObjectTemplateProxy.obj
 0002:00001460       $cppxdata$??$_Uninit_move@PEAU_StringItem@@PEAU1@V?$allocator@U_StringItem@@@std@@U1@@std@@YAPEAU_StringItem@@PEAU1@00AEAU?$_Wrap_alloc@V?$allocator@U_StringItem@@@std@@@0@0U_Nonscalar_ptr_iterator_tag@0@@Z 0000000180011460     V8EngineProxy.obj
 0002:00001488       $cppxdata$??$_Uninit_fill_n@PEAU_StringItem@@_KU1@V?$allocator@U_StringItem@@@std@@U1@@std@@YAXPEAU_StringItem@@_KPEBU1@AEAU?$_Wrap_alloc@V?$allocator@U_StringItem@@@std@@@0@0U_Nonscalar_ptr_iterator_tag@0@@Z 0000000180011488     V8EngineProxy.obj
 0002:000014b0       $cppxdata$?_Reallocate@?$vector@IV?$allocator@_N@std@@@std@@IEAAX_K@Z 00000001800114b0     V8EngineProxy.obj
 0002:000014d8       $cppxdata$?resize@?$vector@IV?$allocator@_N@std@@@std@@QEAAX_KAEBI@Z 00000001800114d8     V8EngineProxy.obj
 0002:00001500       $cppxdata$?_Construct_n@?$vector@IV?$allocator@_N@std@@@std@@QEAAX_KPEBI@Z 0000000180011500     V8EngineProxy.obj
 0002:00001528       $cppxdata$?_Reallocate@?$vector@HV?$allocator@H@std@@@std@@IEAAX_K@Z 0000000180011528     V8EngineProxy.obj
 0002:00001550       $cppxdata$?_Reallocate@?$vector@PEAUHandleProxy@@V?$allocator@PEAUHandleProxy@@@std@@@std@@IEAAX_K@Z 0000000180011550     V8EngineProxy.obj
 0002:00001578       $cppxdata$?_Reallocate@?$vector@U_StringItem@@V?$allocator@U_StringItem@@@std@@@std@@IEAAX_K@Z 0000000180011578     V8EngineProxy.obj
 0002:000015a0       $cppxdata$?_Construct_n@?$vector@HV?$allocator@H@std@@@std@@QEAAX_KPEBH@Z 00000001800115a0     V8EngineProxy.obj
 0002:000015c8       $cppxdata$?_Construct_n@?$vector@PEAUHandleProxy@@V?$allocator@PEAUHandleProxy@@@std@@@std@@QEAAX_KPEBQEAUHandleProxy@@@Z 00000001800115c8     V8EngineProxy.obj
 0002:000015f0       $cppxdata$?_Construct_n@?$vector@U_StringItem@@V?$allocator@U_StringItem@@@std@@@std@@QEAAX_KPEBU_StringItem@@@Z 00000001800115f0     V8EngineProxy.obj
 0002:00001618       $cppxdata$??1?$_Vb_val@V?$allocator@_N@std@@@std@@QEAA@XZ 0000000180011618     V8EngineProxy.obj
 0002:00001640       $cppxdata$?push_back@?$vector@HV?$allocator@H@std@@@std@@QEAAXAEBH@Z 0000000180011640     V8EngineProxy.obj
 0002:00001668       $cppxdata$?push_back@?$vector@U_StringItem@@V?$allocator@U_StringItem@@@std@@@std@@QEAAXAEBU_StringItem@@@Z 0000000180011668     V8EngineProxy.obj
 0002:00001690       $cppxdata$??1recursive_mutex@std@@QEAA@XZ 0000000180011690     V8EngineProxy.obj
 0002:000016b8       $cppxdata$??__F?_DisposedEngines@V8EngineProxy@@1V?$vector@_NV?$allocator@_N@std@@@std@@A@@YAXXZ 00000001800116b8     V8EngineProxy.obj
 0002:000016e0       $cppxdata$??__E?_DisposedEngines@V8EngineProxy@@1V?$vector@_NV?$allocator@_N@std@@@std@@A@@YAXXZ 00000001800116e0     V8EngineProxy.obj
 0002:00001708       $cppxdata$?DisposeHandleProxy@V8EngineProxy@@QEAAXPEAUHandleProxy@@@Z 0000000180011708     V8EngineProxy.obj
 0002:00001730       $cppxdata$?CreateArray@V8EngineProxy@@QEAAPEAUHandleProxy@@PEAPEAGG@Z 0000000180011730     V8EngineProxy.obj
 0002:00001758       $cppxdata$?Call@V8EngineProxy@@QEAAPEAUHandleProxy@@PEAU2@PEBG0GPEAPEAU2@@Z 0000000180011758     V8EngineProxy.obj
 0002:00001780       $cppxdata$?Compile@V8EngineProxy@@QEAAPEAUHandleProxy@@PEBGPEAG@Z 0000000180011780     V8EngineProxy.obj
 0002:000017a8       $cppxdata$?Execute@V8EngineProxy@@QEAAPEAUHandleProxy@@PEBGPEAG@Z 00000001800117a8     V8EngineProxy.obj
 0002:000017d0       $cppxdata$?Execute@V8EngineProxy@@QEAAPEAUHandleProxy@@V?$Handle@VScript@v8@@@v8@@@Z 00000001800117d0     V8EngineProxy.obj
 0002:000017f8       $cppxdata$?SetGlobalObjectTemplate@V8EngineProxy@@QEAAPEAUHandleProxy@@PEAVObjectTemplateProxy@@@Z 00000001800117f8     V8EngineProxy.obj
 0002:00001820       $cppxdata$?GetHandleProxy@V8EngineProxy@@QEAAPEAUHandleProxy@@V?$Handle@VValue@v8@@@v8@@@Z 0000000180011820     V8EngineProxy.obj
 0002:00001848       $cppxdata$??1V8EngineProxy@@QEAA@XZ 0000000180011848     V8EngineProxy.obj
 0002:00001870       $cppxdata$??0V8EngineProxy@@QEAA@_NP6AXXZH@Z 0000000180011870     V8EngineProxy.obj
 0002:00001898       $cppxdata$??$_Insert_nohint@AEAU?$pair@QEAVIsolate@v8@@V?$queue@PEAVTask@v8@@V?$deque@PEAVTask@v8@@V?$allocator@PEAVTask@v8@@@std@@@std@@@std@@@std@@PEAU?$_Tree_node@U?$pair@QEAVIsolate@v8@@V?$queue@PEAVTask@v8@@V?$deque@PEAVTask@v8@@V?$allocator@PEAVTask@v8@@@std@@@std@@@std@@@std@@PEAX@2@@?$_Tree@V?$_Tmap_traits@PEAVIsolate@v8@@V?$queue@PEAVTask@v8@@V?$deque@PEAVTask@v8@@V?$allocator@PEAVTask@v8@@@std@@@std@@@std@@U?$less@PEAVIsolate@v8@@@4@V?$allocator@U?$pair@QEAVIsolate@v8@@V?$queue@PEAVTask@v8@@V?$deque@PEAVTask@v8@@V?$allocator@PEAVTask@v8@@@std@@@std@@@std@@@std@@@4@$0A@@std@@@std@@IEAA?AU?$pair@V?$_Tree_iterator@V?$_Tree_val@U?$_Tree_simple_types@U?$pair@QEAVIsolate@v8@@V?$queue@PEAVTask@v8@@V?$deque@PEAVTask@v8@@V?$allocator@PEAVTask@v8@@@std@@@std@@@std@@@std@@@std@@@std@@@std@@_N@1@_NAEAU?$pair@QEAVIsolate@v8@@V?$queue@PEAVTask@v8@@V?$deque@PEAVTask@v8@@V?$allocator@PEAVTask@v8@@@std@@@std@@@std@@@1@PEAU?$_Tree_node@U?$pair@QEAVIsolate@v8@@V?$queue@PEAVTask@v8@@V?$deque@PEAVTask@v8@@V?$allocator@PEAVTask@v8@@@std@@@std@@@std@@@std@@PEAX@1@@Z 0000000180011898     v8_libplatform:default-platform.obj
 0002:000018c0       $cppxdata$?_Buynode0@?$_Tree_buy@U?$pair@QEAVIsolate@v8@@V?$queue@PEAVTask@v8@@V?$deque@PEAVTask@v8@@V?$allocator@PEAVTask@v8@@@std@@@std@@@std@@@std@@V?$allocator@U?$pair@QEAVIsolate@v8@@V?$queue@PEAVTask@v8@@V?$deque@PEAVTask@v8@@V?$allocator@PEAVTask@v8@@@std@@@std@@@std@@@std@@@2@@std@@QEAAPEAU?$_Tree_node@U?$pair@QEAVIsolate@v8@@V?$queue@PEAVTask@v8@@V?$deque@PEAVTask@v8@@V?$allocator@PEAVTask@v8@@@std@@@std@@@std@@@std@@PEAX@2@XZ 00000001800118c0     v8_libplatform:default-platform.obj
 0002:000018e8       $cppxdata$??$_Insert_hint@AEAU?$pair@QEAVIsolate@v8@@V?$queue@PEAVTask@v8@@V?$deque@PEAVTask@v8@@V?$allocator@PEAVTask@v8@@@std@@@std@@@std@@@std@@PEAU?$_Tree_node@U?$pair@QEAVIsolate@v8@@V?$queue@PEAVTask@v8@@V?$deque@PEAVTask@v8@@V?$allocator@PEAVTask@v8@@@std@@@std@@@std@@@std@@PEAX@2@@?$_Tree@V?$_Tmap_traits@PEAVIsolate@v8@@V?$queue@PEAVTask@v8@@V?$deque@PEAVTask@v8@@V?$allocator@PEAVTask@v8@@@std@@@std@@@std@@U?$less@PEAVIsolate@v8@@@4@V?$allocator@U?$pair@QEAVIsolate@v8@@V?$queue@PEAVTask@v8@@V?$deque@PEAVTask@v8@@V?$allocator@PEAVTask@v8@@@std@@@std@@@std@@@std@@@4@$0A@@std@@@std@@IEAA?AV?$_Tree_iterator@V?$_Tree_val@U?$_Tree_simple_types@U?$pair@QEAVIsolate@v8@@V?$queue@PEAVTask@v8@@V?$deque@PEAVTask@v8@@V?$allocator@PEAVTask@v8@@@std@@@std@@@std@@@std@@@std@@@std@@@1@V?$_Tree_const_iterator@V?$_Tree_val@U?$_Tree_simple_types@U?$pair@QEAVIsolate@v8@@V?$queue@PEAVTask@v8@@V?$deque@PEAVTask@v8@@V?$allocator@PEAVTask@v8@@@std@@@std@@@std@@@std@@@std@@@std@@@1@AEAU?$pair@QEAVIsolate@v8@@V?$queue@PEAVTask@v8@@V?$deque@PEAVTask@v8@@V?$allocator@PEAVTask@v8@@@std@@@std@@@std@@@1@PEAU?$_Tree_node@U?$pair@QEAVIsolate@v8@@V?$queue@PEAVTask@v8@@V?$deque@PEAVTask@v8@@V?$allocator@PEAVTask@v8@@@std@@@std@@@std@@@std@@PEAX@1@@Z 00000001800118e8     v8_libplatform:default-platform.obj
 0002:00001910       $cppxdata$??$_Buynode@AEBUpiecewise_construct_t@std@@V?$tuple@AEBQEAVIsolate@v8@@@2@V?$tuple@$$$V@2@@?$_Tree_buy@U?$pair@QEAVIsolate@v8@@V?$queue@PEAVTask@v8@@V?$deque@PEAVTask@v8@@V?$allocator@PEAVTask@v8@@@std@@@std@@@std@@@std@@V?$allocator@U?$pair@QEAVIsolate@v8@@V?$queue@PEAVTask@v8@@V?$deque@PEAVTask@v8@@V?$allocator@PEAVTask@v8@@@std@@@std@@@std@@@std@@@2@@std@@QEAAPEAU?$_Tree_node@U?$pair@QEAVIsolate@v8@@V?$queue@PEAVTask@v8@@V?$deque@PEAVTask@v8@@V?$allocator@PEAVTask@v8@@@std@@@std@@@std@@@std@@PEAX@1@AEBUpiecewise_construct_t@1@$$QEAV?$tuple@AEBQEAVIsolate@v8@@@1@$$QEAV?$tuple@$$$V@1@@Z 0000000180011910     v8_libplatform:default-platform.obj
 0002:00001938       $cppxdata$?_Buyheadnode@?$_Tree_alloc@$0A@U?$_Tree_base_types@U?$pair@QEAVIsolate@v8@@V?$queue@PEAVTask@v8@@V?$deque@PEAVTask@v8@@V?$allocator@PEAVTask@v8@@@std@@@std@@@std@@@std@@V?$allocator@U?$pair@QEAVIsolate@v8@@V?$queue@PEAVTask@v8@@V?$deque@PEAVTask@v8@@V?$allocator@PEAVTask@v8@@@std@@@std@@@std@@@std@@@2@@std@@@std@@QEAAPEAU?$_Tree_node@U?$pair@QEAVIsolate@v8@@V?$queue@PEAVTask@v8@@V?$deque@PEAVTask@v8@@V?$allocator@PEAVTask@v8@@@std@@@std@@@std@@@std@@PEAX@2@XZ 0000000180011938     v8_libplatform:default-platform.obj
 0002:00001960       $cppxdata$?_Copy@?$basic_string@DU?$char_traits@D@std@@V?$allocator@D@2@@std@@QEAAX_K0@Z 0000000180011960     v8_libplatform:default-platform.obj
 0002:00001988       $cppxdata$?_Reallocate@?$vector@PEAVWorkerThread@platform@v8@@V?$allocator@PEAVWorkerThread@platform@v8@@@std@@@std@@IEAAX_K@Z 0000000180011988     v8_libplatform:default-platform.obj
 0002:000019b0       $cppxdata$?CallOnForegroundThread@DefaultPlatform@platform@v8@@UEAAXPEAVIsolate@3@PEAVTask@3@@Z 00000001800119b0     v8_libplatform:default-platform.obj
 0002:000019d8       $cppxdata$?CallOnBackgroundThread@DefaultPlatform@platform@v8@@UEAAXPEAVTask@3@W4ExpectedRuntime@Platform@3@@Z 00000001800119d8     v8_libplatform:default-platform.obj
 0002:00001a00       $cppxdata$?EnsureInitialized@DefaultPlatform@platform@v8@@QEAAXXZ 0000000180011a00     v8_libplatform:default-platform.obj
 0002:00001a28       $cppxdata$??1DefaultPlatform@platform@v8@@UEAA@XZ 0000000180011a28     v8_libplatform:default-platform.obj
 0002:00001a50       $cppxdata$??0DefaultPlatform@platform@v8@@QEAA@XZ 0000000180011a50     v8_libplatform:default-platform.obj
 0002:00001a78       $cppxdata$?CreateDefaultPlatform@platform@v8@@YAPEAVPlatform@2@H@Z 0000000180011a78     v8_libplatform:default-platform.obj
 0002:00001aa0       $cppxdata$??0TaskQueue@platform@v8@@QEAA@XZ 0000000180011aa0     v8_libplatform:task-queue.obj
 0002:00001c60       $unwind$CreateV8EngineProxy 0000000180011c60     Exports.obj
 0002:00001c70       $stateUnwindMap$CreateV8EngineProxy 0000000180011c70     Exports.obj
 0002:00001c78       $ip2state$CreateV8EngineProxy 0000000180011c78     Exports.obj
 0002:00001c90       $unwind$DestroyV8EngineProxy 0000000180011c90     Exports.obj
 0002:00001c98       $unwind$RegisterGCCallback 0000000180011c98     Exports.obj
 0002:00001cb0       $stateUnwindMap$RegisterGCCallback 0000000180011cb0     Exports.obj
 0002:00001cb0       $stateUnwindMap$DisposeHandleProxy 0000000180011cb0     Exports.obj
 0002:00001cb0       $stateUnwindMap$GetFunctionPrototypeTemplateProxy 0000000180011cb0     Exports.obj
 0002:00001cb0       $stateUnwindMap$GetHandleManagedObjectID 0000000180011cb0     Exports.obj
 0002:00001cb0       $stateUnwindMap$MakeStrongHandle 0000000180011cb0     Exports.obj
 0002:00001cb0       $stateUnwindMap$MakeWeakHandle 0000000180011cb0     Exports.obj
 0002:00001cb0       $stateUnwindMap$CreateNullValue 0000000180011cb0     Exports.obj
 0002:00001cb0       $stateUnwindMap$GetFunctionInstanceTemplateProxy 0000000180011cb0     Exports.obj
 0002:00001cb0       $stateUnwindMap$UpdateHandleValue 0000000180011cb0     Exports.obj
 0002:00001cd0       $ip2state$RegisterGCCallback 0000000180011cd0     Exports.obj
 0002:00001d18       $unwind$ForceGC            0000000180011d18     Exports.obj
 0002:00001d28       $stateUnwindMap$ForceGC    0000000180011d28     Exports.obj
 0002:00001d28       $stateUnwindMap$DeleteObjectTemplateProxy 0000000180011d28     Exports.obj
 0002:00001d28       $stateUnwindMap$SetGlobalObjectTemplate 0000000180011d28     Exports.obj
 0002:00001d28       $stateUnwindMap$RegisterInvokeHandler 0000000180011d28     Exports.obj
 0002:00001d28       $stateUnwindMap$DeleteFunctionTemplateProxy 0000000180011d28     Exports.obj
 0002:00001d40       $ip2state$ForceGC          0000000180011d40     Exports.obj
 0002:00001d78       $unwind$V8Execute          0000000180011d78     Exports.obj
 0002:00001d90       $stateUnwindMap$V8Compile  0000000180011d90     Exports.obj
 0002:00001d90       $stateUnwindMap$CreateArray 0000000180011d90     Exports.obj
 0002:00001d90       $stateUnwindMap$CreateStringArray 0000000180011d90     Exports.obj
 0002:00001d90       $stateUnwindMap$CreateError 0000000180011d90     Exports.obj
 0002:00001d90       $stateUnwindMap$V8Execute  0000000180011d90     Exports.obj
 0002:00001db0       $ip2state$V8Execute        0000000180011db0     Exports.obj
 0002:00001df8       $unwind$V8Compile          0000000180011df8     Exports.obj
 0002:00001e10       $ip2state$V8Compile        0000000180011e10     Exports.obj
 0002:00001e58       $unwind$V8ExecuteCompiledScript 0000000180011e58     Exports.obj
 0002:00001e70       $stateUnwindMap$V8ExecuteCompiledScript 0000000180011e70     Exports.obj
 0002:00001e90       $ip2state$V8ExecuteCompiledScript 0000000180011e90     Exports.obj
 0002:00001ed8       $unwind$CreateObjectTemplateProxy 0000000180011ed8     Exports.obj
 0002:00001ee8       $stateUnwindMap$CreateObjectTemplateProxy 0000000180011ee8     Exports.obj
 0002:00001f10       $ip2state$CreateObjectTemplateProxy 0000000180011f10     Exports.obj
 0002:00001f50       $unwind$DeleteObjectTemplateProxy 0000000180011f50     Exports.obj
 0002:00001f68       $ip2state$DeleteObjectTemplateProxy 0000000180011f68     Exports.obj
 0002:00001fa0       $unwind$SetGlobalObjectTemplate 0000000180011fa0     Exports.obj
 0002:00001fb8       $ip2state$SetGlobalObjectTemplate 0000000180011fb8     Exports.obj
 0002:00001ff0       $unwind$RegisterNamedPropertyHandlers 0000000180011ff0     Exports.obj
 0002:0000200c       $stateUnwindMap$RegisterIndexedPropertyHandlers 000000018001200c     Exports.obj
 0002:0000200c       $stateUnwindMap$RegisterNamedPropertyHandlers 000000018001200c     Exports.obj
 0002:00002028       $ip2state$RegisterNamedPropertyHandlers 0000000180012028     Exports.obj
 0002:00002060       $unwind$RegisterIndexedPropertyHandlers 0000000180012060     Exports.obj
 0002:00002080       $ip2state$RegisterIndexedPropertyHandlers 0000000180012080     Exports.obj
 0002:000020b8       $unwind$UnregisterNamedPropertyHandlers 00000001800120b8     Exports.obj
 0002:000020cc       $stateUnwindMap$UnregisterNamedPropertyHandlers 00000001800120cc     Exports.obj
 0002:000020cc       $stateUnwindMap$UnregisterIndexedPropertyHandlers 00000001800120cc     Exports.obj
 0002:000020e8       $ip2state$UnregisterNamedPropertyHandlers 00000001800120e8     Exports.obj
 0002:00002120       $unwind$UnregisterIndexedPropertyHandlers 0000000180012120     Exports.obj
 0002:00002138       $ip2state$UnregisterIndexedPropertyHandlers 0000000180012138     Exports.obj
 0002:00002170       $unwind$RegisterInvokeHandler 0000000180012170     Exports.obj
 0002:00002188       $ip2state$RegisterInvokeHandler 0000000180012188     Exports.obj
 0002:000021c0       $unwind$CreateObjectFromTemplate 00000001800121c0     Exports.obj
 0002:000021d8       $stateUnwindMap$CreateObjectFromTemplate 00000001800121d8     Exports.obj
 0002:00002200       $ip2state$CreateObjectFromTemplate 0000000180012200     Exports.obj
 0002:00002248       $unwind$ConnectObject      0000000180012248     Exports.obj
 0002:00002264       $stateUnwindMap$ConnectObject 0000000180012264     Exports.obj
 0002:00002290       $ip2state$ConnectObject    0000000180012290     Exports.obj
 0002:000022d8       $unwind$GetObjectPrototype 00000001800122d8     Exports.obj
 0002:000022ec       $stateUnwindMap$GetObjectPrototype 00000001800122ec     Exports.obj
 0002:00002310       $ip2state$GetObjectPrototype 0000000180012310     Exports.obj
 0002:00002368       $unwind$Call               0000000180012368     Exports.obj
 0002:00002388       $stateUnwindMap$Call       0000000180012388     Exports.obj
 0002:000023b0       $ip2state$Call             00000001800123b0     Exports.obj
 0002:000023f8       $unwind$SetObjectPropertyByName 00000001800123f8     Exports.obj
 0002:0000241c       $stateUnwindMap$SetObjectPropertyByName 000000018001241c     Exports.obj
 0002:00002440       $ip2state$SetObjectPropertyByName 0000000180012440     Exports.obj
 0002:00002498       $unwind$SetObjectPropertyByIndex 0000000180012498     Exports.obj
 0002:000024b4       $stateUnwindMap$SetObjectPropertyByIndex 00000001800124b4     Exports.obj
 0002:000024e0       $ip2state$SetObjectPropertyByIndex 00000001800124e0     Exports.obj
 0002:00002538       $unwind$GetObjectPropertyByName 0000000180012538     Exports.obj
 0002:00002550       $stateUnwindMap$GetObjectPropertyByName 0000000180012550     Exports.obj
 0002:00002570       $ip2state$GetObjectPropertyByName 0000000180012570     Exports.obj
 0002:000025c8       $unwind$GetObjectPropertyByIndex 00000001800125c8     Exports.obj
 0002:000025e0       $stateUnwindMap$GetObjectPropertyByIndex 00000001800125e0     Exports.obj
 0002:000025e0       $stateUnwindMap$DeleteObjectPropertyByIndex 00000001800125e0     Exports.obj
 0002:00002600       $ip2state$GetObjectPropertyByIndex 0000000180012600     Exports.obj
 0002:00002658       $unwind$DeleteObjectPropertyByName 0000000180012658     Exports.obj
 0002:0000266c       $stateUnwindMap$DeleteObjectPropertyByName 000000018001266c     Exports.obj
 0002:0000266c       $stateUnwindMap$GetPropertyAttributes 000000018001266c     Exports.obj
 0002:00002690       $ip2state$DeleteObjectPropertyByName 0000000180012690     Exports.obj
 0002:000026e8       $unwind$DeleteObjectPropertyByIndex 00000001800126e8     Exports.obj
 0002:00002700       $ip2state$DeleteObjectPropertyByIndex 0000000180012700     Exports.obj
 0002:00002758       $unwind$SetObjectAccessor  0000000180012758     Exports.obj
 0002:0000277c       $stateUnwindMap$SetObjectAccessor 000000018001277c     Exports.obj
 0002:000027a0       $ip2state$SetObjectAccessor 00000001800127a0     Exports.obj
 0002:000027f8       $unwind$SetObjectTemplateAccessor 00000001800127f8     Exports.obj
 0002:00002814       $stateUnwindMap$SetObjectTemplateAccessor 0000000180012814     Exports.obj
 0002:00002840       $ip2state$SetObjectTemplateAccessor 0000000180012840     Exports.obj
 0002:00002888       $unwind$SetObjectTemplateProperty 0000000180012888     Exports.obj
 0002:000028a4       $stateUnwindMap$CreateFunctionInstance 00000001800128a4     Exports.obj
 0002:000028a4       $stateUnwindMap$SetObjectTemplateProperty 00000001800128a4     Exports.obj
 0002:000028a4       $stateUnwindMap$SetFunctionTemplateProperty 00000001800128a4     Exports.obj
 0002:000028d0       $ip2state$SetObjectTemplateProperty 00000001800128d0     Exports.obj
 0002:00002918       $unwind$GetPropertyNames   0000000180012918     Exports.obj
 0002:0000292c       $stateUnwindMap$GetOwnPropertyNames 000000018001292c     Exports.obj
 0002:0000292c       $stateUnwindMap$GetPropertyNames 000000018001292c     Exports.obj
 0002:00002950       $ip2state$GetPropertyNames 0000000180012950     Exports.obj
 0002:000029a8       $unwind$GetOwnPropertyNames 00000001800129a8     Exports.obj
 0002:000029c0       $ip2state$GetOwnPropertyNames 00000001800129c0     Exports.obj
 0002:00002a18       $unwind$GetPropertyAttributes 0000000180012a18     Exports.obj
 0002:00002a30       $ip2state$GetPropertyAttributes 0000000180012a30     Exports.obj
 0002:00002a88       $unwind$GetArrayLength     0000000180012a88     Exports.obj
 0002:00002a9c       $stateUnwindMap$GetArrayLength 0000000180012a9c     Exports.obj
 0002:00002ac0       $ip2state$GetArrayLength   0000000180012ac0     Exports.obj
 0002:00002b18       $unwind$CreateFunctionTemplateProxy 0000000180012b18     Exports.obj
 0002:00002b30       $stateUnwindMap$CreateFunctionTemplateProxy 0000000180012b30     Exports.obj
 0002:00002b50       $ip2state$CreateFunctionTemplateProxy 0000000180012b50     Exports.obj
 0002:00002b90       $unwind$DeleteFunctionTemplateProxy 0000000180012b90     Exports.obj
 0002:00002ba8       $ip2state$DeleteFunctionTemplateProxy 0000000180012ba8     Exports.obj
 0002:00002be0       $unwind$GetFunctionInstanceTemplateProxy 0000000180012be0     Exports.obj
 0002:00002c00       $ip2state$GetFunctionInstanceTemplateProxy 0000000180012c00     Exports.obj
 0002:00002c48       $unwind$GetFunctionPrototypeTemplateProxy 0000000180012c48     Exports.obj
 0002:00002c60       $ip2state$GetFunctionPrototypeTemplateProxy 0000000180012c60     Exports.obj
 0002:00002ca8       $unwind$GetFunction        0000000180012ca8     Exports.obj
 0002:00002cbc       $stateUnwindMap$GetFunction 0000000180012cbc     Exports.obj
 0002:00002ce0       $ip2state$GetFunction      0000000180012ce0     Exports.obj
 0002:00002d28       $unwind$CreateFunctionInstance 0000000180012d28     Exports.obj
 0002:00002d50       $ip2state$CreateFunctionInstance 0000000180012d50     Exports.obj
 0002:00002d98       $unwind$SetFunctionTemplateProperty 0000000180012d98     Exports.obj
 0002:00002dc0       $ip2state$SetFunctionTemplateProperty 0000000180012dc0     Exports.obj
 0002:00002e08       $unwind$CreateBoolean      0000000180012e08     Exports.obj
 0002:00002e1c       $stateUnwindMap$CreateBoolean 0000000180012e1c     Exports.obj
 0002:00002e40       $ip2state$CreateBoolean    0000000180012e40     Exports.obj
 0002:00002e88       $unwind$CreateInteger      0000000180012e88     Exports.obj
 0002:00002e9c       $stateUnwindMap$CreateNumber 0000000180012e9c     Exports.obj
 0002:00002e9c       $stateUnwindMap$CreateInteger 0000000180012e9c     Exports.obj
 0002:00002e9c       $stateUnwindMap$CreateDate 0000000180012e9c     Exports.obj
 0002:00002e9c       $stateUnwindMap$CreateObject 0000000180012e9c     Exports.obj
 0002:00002ec0       $ip2state$CreateInteger    0000000180012ec0     Exports.obj
 0002:00002f08       $unwind$CreateNumber       0000000180012f08     Exports.obj
 0002:00002f20       $ip2state$CreateNumber     0000000180012f20     Exports.obj
 0002:00002f68       $unwind$CreateString       0000000180012f68     Exports.obj
 0002:00002f7c       $stateUnwindMap$CreateString 0000000180012f7c     Exports.obj
 0002:00002fa0       $ip2state$CreateString     0000000180012fa0     Exports.obj
 0002:00002fe8       $unwind$CreateDate         0000000180012fe8     Exports.obj
 0002:00003000       $ip2state$CreateDate       0000000180013000     Exports.obj
 0002:00003048       $unwind$CreateObject       0000000180013048     Exports.obj
 0002:00003060       $ip2state$CreateObject     0000000180013060     Exports.obj
 0002:000030a8       $unwind$CreateArray        00000001800130a8     Exports.obj
 0002:000030c0       $ip2state$CreateArray      00000001800130c0     Exports.obj
 0002:00003108       $unwind$CreateStringArray  0000000180013108     Exports.obj
 0002:00003120       $ip2state$CreateStringArray 0000000180013120     Exports.obj
 0002:00003168       $unwind$CreateNullValue    0000000180013168     Exports.obj
 0002:00003180       $ip2state$CreateNullValue  0000000180013180     Exports.obj
 0002:000031c8       $unwind$CreateError        00000001800131c8     Exports.obj
 0002:000031e0       $ip2state$CreateError      00000001800131e0     Exports.obj
 0002:00003228       $unwind$MakeWeakHandle     0000000180013228     Exports.obj
 0002:00003240       $ip2state$MakeWeakHandle   0000000180013240     Exports.obj
 0002:00003288       $unwind$MakeStrongHandle   0000000180013288     Exports.obj
 0002:000032a0       $ip2state$MakeStrongHandle 00000001800132a0     Exports.obj
 0002:000032e8       $unwind$DisposeHandleProxy 00000001800132e8     Exports.obj
 0002:00003300       $ip2state$DisposeHandleProxy 0000000180013300     Exports.obj
 0002:00003348       $unwind$UpdateHandleValue  0000000180013348     Exports.obj
 0002:00003360       $ip2state$UpdateHandleValue 0000000180013360     Exports.obj
 0002:000033a8       $unwind$GetHandleManagedObjectID 00000001800133a8     Exports.obj
 0002:000033c0       $ip2state$GetHandleManagedObjectID 00000001800133c0     Exports.obj
 0002:00003408       $unwind$?_Buy@?$vector@IV?$allocator@_N@std@@@std@@IEAA_N_K@Z 0000000180013408     V8EngineProxy.obj
 0002:00003408       $unwind$?_Reserve@?$vector@IV?$allocator@_N@std@@@std@@IEAAX_K@Z 0000000180013408     V8EngineProxy.obj
 0002:00003408       $unwind$CreateV8EngineProxyTest 0000000180013408     Exports.obj
 0002:00003408       $unwind$CreateObjectTemplateProxyTest 0000000180013408     Exports.obj
 0002:00003408       $unwind$?_Tidy@?$vector@IV?$allocator@_N@std@@@std@@IEAAXXZ 0000000180013408     V8EngineProxy.obj
 0002:00003408       $unwind$?_Reserve@?$vector@PEAUHandleProxy@@V?$allocator@PEAUHandleProxy@@@std@@@std@@IEAAX_K@Z 0000000180013408     V8EngineProxy.obj
 0002:00003408       $unwind$CreateFunctionTemplateProxyTest 0000000180013408     Exports.obj
 0002:00003408       $unwind$?_Reserve@?$vector@HV?$allocator@H@std@@@std@@IEAAX_K@Z 0000000180013408     V8EngineProxy.obj
 0002:00003408       $unwind$CreateHandleProxyTest 0000000180013408     Exports.obj
 0002:00003408       $unwind$??1?$vector@IV?$allocator@_N@std@@@std@@QEAA@XZ 0000000180013408     V8EngineProxy.obj
 0002:00003408       $unwind$DllMain            0000000180013408     MSVCRT:dllmain.obj
 0002:00003408       $unwind$atexit             0000000180013408     MSVCRT:atonexit.obj
 0002:00003408       $unwind$?_Reserve@?$vector@PEAVWorkerThread@platform@v8@@V?$allocator@PEAVWorkerThread@platform@v8@@@std@@@std@@IEAAX_K@Z 0000000180013408     v8_libplatform:default-platform.obj
 0002:00003408       $unwind$??1?$lock_guard@Vrecursive_mutex@std@@@std@@QEAA@XZ 0000000180013408     HandleProxy.obj
 0002:00003410       $unwind$?RegisterNamedPropertyHandlers@ObjectTemplateProxy@@QEAAXP6APEAUHandleProxy@@PEAGAEBUManagedAccessorInfo@@@ZP6APEAU2@0PEAU2@1@ZP6A?AW4PropertyAttribute@v8@@01@ZP6AH01@ZP6APEAU2@1@Z@Z 0000000180013410     ObjectTemplateProxy.obj
 0002:00003410       $unwind$DeleteTestData     0000000180013410     Exports.obj
 0002:00003410       $unwind$?RegisterIndexedPropertyHandlers@ObjectTemplateProxy@@QEAAXP6APEAUHandleProxy@@IAEBUManagedAccessorInfo@@@ZP6APEAU2@IPEAU2@0@ZP6A?AW4PropertyAttribute@v8@@I0@ZP6AHI0@ZP6APEAU2@0@Z@Z 0000000180013410     ObjectTemplateProxy.obj
 0002:00003418       $unwind$??0FunctionTemplateProxy@@QEAA@PEAVV8EngineProxy@@PEAGP6APEAUHandleProxy@@H_NPEAU2@PEAPEAU2@I@Z@Z 0000000180013418     FunctionTemplateProxy.obj
 0002:00003434       $stateUnwindMap$??0FunctionTemplateProxy@@QEAA@PEAVV8EngineProxy@@PEAGP6APEAUHandleProxy@@H_NPEAU2@PEAPEAU2@I@Z@Z 0000000180013434     FunctionTemplateProxy.obj
 0002:00003480       $ip2state$??0FunctionTemplateProxy@@QEAA@PEAVV8EngineProxy@@PEAGP6APEAUHandleProxy@@H_NPEAU2@PEAPEAU2@I@Z@Z 0000000180013480     FunctionTemplateProxy.obj
 0002:000034e8       $unwind$??1FunctionTemplateProxy@@QEAA@XZ 00000001800134e8     FunctionTemplateProxy.obj
 0002:000034fc       $stateUnwindMap$??1FunctionTemplateProxy@@QEAA@XZ 00000001800134fc     FunctionTemplateProxy.obj
 0002:00003530       $ip2state$??1FunctionTemplateProxy@@QEAA@XZ 0000000180013530     FunctionTemplateProxy.obj
 0002:00003598       $unwind$?InvocationCallbackProxy@FunctionTemplateProxy@@SAXAEBV?$FunctionCallbackInfo@VValue@v8@@@v8@@@Z 0000000180013598     FunctionTemplateProxy.obj
 0002:000035a4       $chain$0$?InvocationCallbackProxy@FunctionTemplateProxy@@SAXAEBV?$FunctionCallbackInfo@VValue@v8@@@v8@@@Z 00000001800135a4     FunctionTemplateProxy.obj
 0002:000035b8       $chain$5$?InvocationCallbackProxy@FunctionTemplateProxy@@SAXAEBV?$FunctionCallbackInfo@VValue@v8@@@v8@@@Z 00000001800135b8     FunctionTemplateProxy.obj
 0002:000035dc       $chain$6$?InvocationCallbackProxy@FunctionTemplateProxy@@SAXAEBV?$FunctionCallbackInfo@VValue@v8@@@v8@@@Z 00000001800135dc     FunctionTemplateProxy.obj
 0002:000035f0       $chain$7$?InvocationCallbackProxy@FunctionTemplateProxy@@SAXAEBV?$FunctionCallbackInfo@VValue@v8@@@v8@@@Z 00000001800135f0     FunctionTemplateProxy.obj
 0002:000035f0       $chain$9$?InvocationCallbackProxy@FunctionTemplateProxy@@SAXAEBV?$FunctionCallbackInfo@VValue@v8@@@v8@@@Z 00000001800135f0     FunctionTemplateProxy.obj
 0002:00003600       $chain$8$?InvocationCallbackProxy@FunctionTemplateProxy@@SAXAEBV?$FunctionCallbackInfo@VValue@v8@@@v8@@@Z 0000000180013600     FunctionTemplateProxy.obj
 0002:00003618       $unwind$?CreateInstance@FunctionTemplateProxy@@QEAAPEAUHandleProxy@@HHPEAPEAU2@@Z 0000000180013618     FunctionTemplateProxy.obj
 0002:00003638       $stateUnwindMap$?CreateInstance@FunctionTemplateProxy@@QEAAPEAUHandleProxy@@HHPEAPEAU2@@Z 0000000180013638     FunctionTemplateProxy.obj
 0002:00003640       $ip2state$?CreateInstance@FunctionTemplateProxy@@QEAAPEAUHandleProxy@@HHPEAPEAU2@@Z 0000000180013640     FunctionTemplateProxy.obj
 0002:00003658       $unwind$?Set@FunctionTemplateProxy@@QEAAXPEBGPEAUHandleProxy@@W4PropertyAttribute@v8@@@Z 0000000180013658     FunctionTemplateProxy.obj
 0002:00003658       $unwind$?Set@ObjectTemplateProxy@@QEAAXPEBGPEAUHandleProxy@@W4PropertyAttribute@v8@@@Z 0000000180013658     ObjectTemplateProxy.obj
 0002:0000366c       $unwind$??1?$CopyablePersistent@VContext@v8@@@@QEAA@XZ 000000018001366c     V8EngineProxy.obj
 0002:0000366c       $unwind$??1?$CopyablePersistent@VValue@v8@@@@QEAA@XZ 000000018001366c     HandleProxy.obj
 0002:0000366c       $unwind$??1?$CopyablePersistent@VObjectTemplate@v8@@@@QEAA@XZ 000000018001366c     ObjectTemplateProxy.obj
 0002:0000366c       $unwind$??1?$CopyablePersistent@VFunctionTemplate@v8@@@@QEAA@XZ 000000018001366c     FunctionTemplateProxy.obj
 0002:0000366c       $unwind$??1?$CopyablePersistent@VScript@v8@@@@QEAA@XZ 000000018001366c     HandleProxy.obj
 0002:0000366c       $unwind$??1?$CopyablePersistent@VObject@v8@@@@QEAA@XZ 000000018001366c     V8EngineProxy.obj
 0002:0000367c       $stateUnwindMap$??1?$CopyablePersistent@VFunctionTemplate@v8@@@@QEAA@XZ 000000018001367c     FunctionTemplateProxy.obj
 0002:0000367c       $stateUnwindMap$??1?$CopyablePersistent@VObject@v8@@@@QEAA@XZ 000000018001367c     V8EngineProxy.obj
 0002:0000367c       $stateUnwindMap$??1?$CopyablePersistent@VScript@v8@@@@QEAA@XZ 000000018001367c     HandleProxy.obj
 0002:0000367c       $stateUnwindMap$??1?$CopyablePersistent@VObjectTemplate@v8@@@@QEAA@XZ 000000018001367c     ObjectTemplateProxy.obj
 0002:0000367c       $stateUnwindMap$??1?$CopyablePersistent@VContext@v8@@@@QEAA@XZ 000000018001367c     V8EngineProxy.obj
 0002:0000367c       $stateUnwindMap$??1?$CopyablePersistent@VValue@v8@@@@QEAA@XZ 000000018001367c     HandleProxy.obj
 0002:00003688       $ip2state$??1?$CopyablePersistent@VObject@v8@@@@QEAA@XZ 0000000180013688     V8EngineProxy.obj
 0002:00003688       $ip2state$??1?$CopyablePersistent@VFunctionTemplate@v8@@@@QEAA@XZ 0000000180013688     FunctionTemplateProxy.obj
 0002:00003688       $ip2state$??1?$CopyablePersistent@VScript@v8@@@@QEAA@XZ 0000000180013688     HandleProxy.obj
 0002:00003688       $ip2state$??1?$CopyablePersistent@VContext@v8@@@@QEAA@XZ 0000000180013688     V8EngineProxy.obj
 0002:00003688       $ip2state$??1?$CopyablePersistent@VObjectTemplate@v8@@@@QEAA@XZ 0000000180013688     ObjectTemplateProxy.obj
 0002:00003688       $ip2state$??1?$CopyablePersistent@VValue@v8@@@@QEAA@XZ 0000000180013688     HandleProxy.obj
 0002:000036a0       $unwind$??$_Insert_at@AEAU?$pair@QEAVIsolate@v8@@V?$queue@PEAVTask@v8@@V?$deque@PEAVTask@v8@@V?$allocator@PEAVTask@v8@@@std@@@std@@@std@@@std@@PEAU?$_Tree_node@U?$pair@QEAVIsolate@v8@@V?$queue@PEAVTask@v8@@V?$deque@PEAVTask@v8@@V?$allocator@PEAVTask@v8@@@std@@@std@@@std@@@std@@PEAX@2@@?$_Tree@V?$_Tmap_traits@PEAVIsolate@v8@@V?$queue@PEAVTask@v8@@V?$deque@PEAVTask@v8@@V?$allocator@PEAVTask@v8@@@std@@@std@@@std@@U?$less@PEAVIsolate@v8@@@4@V?$allocator@U?$pair@QEAVIsolate@v8@@V?$queue@PEAVTask@v8@@V?$deque@PEAVTask@v8@@V?$allocator@PEAVTask@v8@@@std@@@std@@@std@@@std@@@4@$0A@@std@@@std@@IEAA?AV?$_Tree_iterator@V?$_Tree_val@U?$_Tree_simple_types@U?$pair@QEAVIsolate@v8@@V?$queue@PEAVTask@v8@@V?$deque@PEAVTask@v8@@V?$allocator@PEAVTask@v8@@@std@@@std@@@std@@@std@@@std@@@std@@@1@_NPEAU?$_Tree_node@U?$pair@QEAVIsolate@v8@@V?$queue@PEAVTask@v8@@V?$deque@PEAVTask@v8@@V?$allocator@PEAVTask@v8@@@std@@@std@@@std@@@std@@PEAX@1@AEAU?$pair@QEAVIsolate@v8@@V?$queue@PEAVTask@v8@@V?$deque@PEAVTask@v8@@V?$allocator@PEAVTask@v8@@@std@@@std@@@std@@@1@1@Z 00000001800136a0     v8_libplatform:default-platform.obj
 0002:000036a0       $unwind$??1?$vector@PEAUHandleProxy@@V?$allocator@PEAUHandleProxy@@@std@@@std@@QEAA@XZ 00000001800136a0     V8EngineProxy.obj
 0002:000036a0       $unwind$??1?$Persistent@VScript@v8@@U?$CopyablePersistentTraits@VScript@v8@@@2@@v8@@QEAA@XZ 00000001800136a0     HandleProxy.obj
 0002:000036a0       $unwind$??1?$vector@HV?$allocator@H@std@@@std@@QEAA@XZ 00000001800136a0     V8EngineProxy.obj
 0002:000036a0       $unwind$??_G_Iostream_error_category@std@@UEAAPEAXI@Z 00000001800136a0     v8_libplatform:default-platform.obj
 0002:000036a0       $unwind$__raise_securityfailure 00000001800136a0     MSVCRT:gs_report.obj
 0002:000036a0       $unwind$??1?$pair@QEAVIsolate@v8@@V?$queue@PEAVTask@v8@@V?$deque@PEAVTask@v8@@V?$allocator@PEAVTask@v8@@@std@@@std@@@std@@@std@@QEAA@XZ 00000001800136a0     v8_libplatform:default-platform.obj
 0002:000036a0       $unwind$??1?$Persistent@VObjectTemplate@v8@@U?$CopyablePersistentTraits@VObjectTemplate@v8@@@2@@v8@@QEAA@XZ 00000001800136a0     ObjectTemplateProxy.obj
 0002:000036a0       $unwind$??1?$queue@PEAVTask@v8@@V?$deque@PEAVTask@v8@@V?$allocator@PEAVTask@v8@@@std@@@std@@@std@@QEAA@XZ 00000001800136a0     v8_libplatform:default-platform.obj
 0002:000036a0       $unwind$??_G_Generic_error_category@std@@UEAAPEAXI@Z 00000001800136a0     v8_libplatform:default-platform.obj
 0002:000036a0       $unwind$??_G_System_error_category@std@@UEAAPEAXI@Z 00000001800136a0     v8_libplatform:default-platform.obj
 0002:000036a0       $unwind$??1?$deque@PEAVTask@v8@@V?$allocator@PEAVTask@v8@@@std@@@std@@QEAA@XZ 00000001800136a0     v8_libplatform:default-platform.obj
 0002:000036a0       $unwind$??1?$map@PEAVIsolate@v8@@V?$queue@PEAVTask@v8@@V?$deque@PEAVTask@v8@@V?$allocator@PEAVTask@v8@@@std@@@std@@@std@@U?$less@PEAVIsolate@v8@@@4@V?$allocator@U?$pair@QEAVIsolate@v8@@V?$queue@PEAVTask@v8@@V?$deque@PEAVTask@v8@@V?$allocator@PEAVTask@v8@@@std@@@std@@@std@@@std@@@4@@std@@QEAA@XZ 00000001800136a0     v8_libplatform:default-platform.obj
 0002:000036a0       $unwind$??1?$Persistent@VValue@v8@@U?$CopyablePersistentTraits@VValue@v8@@@2@@v8@@QEAA@XZ 00000001800136a0     HandleProxy.obj
 0002:000036a0       $unwind$??_GPlatform@v8@@UEAAPEAXI@Z 00000001800136a0     v8_libplatform:default-platform.obj
 0002:000036a0       $unwind$??1?$_Deque_alloc@$0A@U?$_Deque_base_types@PEAVTask@v8@@V?$allocator@PEAVTask@v8@@@std@@@std@@@std@@QEAA@XZ 00000001800136a0     v8_libplatform:default-platform.obj
 0002:000036a0       $unwind$??1?$vector@PEAVWorkerThread@platform@v8@@V?$allocator@PEAVWorkerThread@platform@v8@@@std@@@std@@QEAA@XZ 00000001800136a0     v8_libplatform:default-platform.obj
 0002:000036a0       $unwind$??1HandleValue@@QEAA@XZ 00000001800136a0     ValueProxy.obj
 0002:000036a0       $unwind$?_Grow@?$basic_string@DU?$char_traits@D@std@@V?$allocator@D@2@@std@@QEAA_N_K_N@Z 00000001800136a0     v8_libplatform:default-platform.obj
 0002:000036a0       $unwind$??C?$CopyablePersistent@VValue@v8@@@@QEBAPEAVValue@v8@@XZ 00000001800136a0     HandleProxy.obj
 0002:000036a0       $unwind$pre_c_init         00000001800136a0     MSVCRT:crtdll.obj
 0002:000036a0       $unwind$?_RevivableCallback@HandleProxy@@CAXAEBV?$WeakCallbackData@VValue@v8@@UHandleProxy@@@v8@@@Z 00000001800136a0     HandleProxy.obj
 0002:000036a0       $unwind$?ThreadEntry@base@v8@@YAIPEAX@Z 00000001800136a0     v8_libbase:platform-win32.obj
 0002:000036a0       $unwind$??1?$Persistent@VFunctionTemplate@v8@@U?$CopyablePersistentTraits@VFunctionTemplate@v8@@@2@@v8@@QEAA@XZ 00000001800136a0     FunctionTemplateProxy.obj
 0002:000036a0       $unwind$??1?$Persistent@VContext@v8@@U?$CopyablePersistentTraits@VContext@v8@@@2@@v8@@QEAA@XZ 00000001800136a0     V8EngineProxy.obj
 0002:000036a0       $unwind$??1?$Persistent@VObject@v8@@U?$CopyablePersistentTraits@VObject@v8@@@2@@v8@@QEAA@XZ 00000001800136a0     V8EngineProxy.obj
 0002:000036a0       $unwind$??_Gerror_category@std@@UEAAPEAXI@Z 00000001800136a0     v8_libplatform:default-platform.obj
 0002:000036a0       $unwind$?_Reserve@?$vector@U_StringItem@@V?$allocator@U_StringItem@@@std@@@std@@IEAAX_K@Z 00000001800136a0     V8EngineProxy.obj
 0002:000036a0       $unwind$??1?$vector@U_StringItem@@V?$allocator@U_StringItem@@@std@@@std@@QEAA@XZ 00000001800136a0     V8EngineProxy.obj
 0002:000036a0       $unwind$__atonexitinit     00000001800136a0     MSVCRT:atonexit.obj
 0002:000036a8       $unwind$??1HandleProxy@@IEAA@XZ 00000001800136a8     HandleProxy.obj
 0002:000036c0       $stateUnwindMap$??1HandleProxy@@IEAA@XZ 00000001800136c0     HandleProxy.obj
 0002:000036f0       $ip2state$??1HandleProxy@@IEAA@XZ 00000001800136f0     HandleProxy.obj
 0002:00003738       $unwind$?_Tidy@?$deque@PEAVTask@v8@@V?$allocator@PEAVTask@v8@@@std@@@std@@IEAAXXZ 0000000180013738     v8_libplatform:default-platform.obj
 0002:00003738       $unwind$??_Etype_info@@UEAAPEAXI@Z 0000000180013738     MSVCRT:ti_inst.obj
 0002:00003738       $unwind$??_GWorkerThread@platform@v8@@UEAAPEAXI@Z 0000000180013738     v8_libplatform:worker-thread.obj
 0002:00003738       $unwind$_DllMainCRTStartup 0000000180013738     MSVCRT:crtdll.obj
 0002:00003738       $unwind$?_Dispose@HandleProxy@@IEAA_N_N@Z 0000000180013738     HandleProxy.obj
 0002:00003738       $unwind$?assign@?$basic_string@DU?$char_traits@D@std@@V?$allocator@D@2@@std@@QEAAAEAV12@PEBD_K@Z 0000000180013738     v8_libplatform:default-platform.obj
 0002:00003748       $unwind$??_GDefaultPlatform@platform@v8@@UEAAPEAXI@Z 0000000180013748     v8_libplatform:default-platform.obj
 0002:00003748       $unwind$?erase@?$basic_string@DU?$char_traits@D@std@@V?$allocator@D@2@@std@@QEAAAEAV12@_K0@Z 0000000180013748     v8_libplatform:default-platform.obj
 0002:00003748       $unwind$_RTC_Initialize    0000000180013748     MSVCRT:initsect.obj
 0002:00003748       $unwind$?_ClearHandleValue@HandleProxy@@IEAAXXZ 0000000180013748     HandleProxy.obj
 0002:00003748       $unwind$??_GThread@base@v8@@UEAAPEAXI@Z 0000000180013748     v8_libbase:platform-win32.obj
 0002:00003748       $unwind$?_Destroy_if_not_nil@?$_Tree@V?$_Tmap_traits@PEAVIsolate@v8@@V?$queue@PEAVTask@v8@@V?$deque@PEAVTask@v8@@V?$allocator@PEAVTask@v8@@@std@@@std@@@std@@U?$less@PEAVIsolate@v8@@@4@V?$allocator@U?$pair@QEAVIsolate@v8@@V?$queue@PEAVTask@v8@@V?$deque@PEAVTask@v8@@V?$allocator@PEAVTask@v8@@@std@@@std@@@std@@@std@@@4@$0A@@std@@@std@@IEAAXPEAU?$_Tree_node@U?$pair@QEAVIsolate@v8@@V?$queue@PEAVTask@v8@@V?$deque@PEAVTask@v8@@V?$allocator@PEAVTask@v8@@@std@@@std@@@std@@@std@@PEAX@2@@Z 0000000180013748     v8_libplatform:default-platform.obj
 0002:00003748       $unwind$?default_error_condition@_System_error_category@std@@UEBA?AVerror_condition@2@H@Z 0000000180013748     v8_libplatform:default-platform.obj
 0002:00003748       $unwind$??1TaskQueue@platform@v8@@QEAA@XZ 0000000180013748     v8_libplatform:task-queue.obj
 0002:00003748       $unwind$_RTC_Terminate     0000000180013748     MSVCRT:initsect.obj
 0002:00003754       $unwind$?SetHandle@HandleProxy@@IEAAPEAU1@V?$Handle@VScript@v8@@@v8@@@Z 0000000180013754     HandleProxy.obj
 0002:0000376c       $stateUnwindMap$?SetHandle@HandleProxy@@IEAAPEAU1@V?$Handle@VScript@v8@@@v8@@@Z 000000018001376c     HandleProxy.obj
 0002:00003790       $ip2state$?SetHandle@HandleProxy@@IEAAPEAU1@V?$Handle@VScript@v8@@@v8@@@Z 0000000180013790     HandleProxy.obj
 0002:000037c8       $unwind$?SetHandle@HandleProxy@@IEAAPEAU1@V?$Handle@VValue@v8@@@v8@@@Z 00000001800137c8     HandleProxy.obj
 0002:000037e0       $stateUnwindMap$?SetHandle@HandleProxy@@IEAAPEAU1@V?$Handle@VValue@v8@@@v8@@@Z 00000001800137e0     HandleProxy.obj
 0002:00003800       $ip2state$?SetHandle@HandleProxy@@IEAAPEAU1@V?$Handle@VValue@v8@@@v8@@@Z 0000000180013800     HandleProxy.obj
 0002:00003838       $unwind$?GetManagedObjectID@HandleProxy@@QEAAHXZ 0000000180013838     HandleProxy.obj
 0002:00003840       $chain$0$?GetManagedObjectID@HandleProxy@@QEAAHXZ 0000000180013840     HandleProxy.obj
 0002:00003854       $chain$1$?GetManagedObjectID@HandleProxy@@QEAAHXZ 0000000180013854     HandleProxy.obj
 0002:00003868       $chain$2$?GetManagedObjectID@HandleProxy@@QEAAHXZ 0000000180013868     HandleProxy.obj
 0002:00003878       $chain$3$?GetManagedObjectID@HandleProxy@@QEAAHXZ 0000000180013878     HandleProxy.obj
 0002:00003888       $unwind$?UpdateValue@HandleProxy@@QEAAXXZ 0000000180013888     HandleProxy.obj
 0002:00003890       $chain$2$?UpdateValue@HandleProxy@@QEAAXXZ 0000000180013890     HandleProxy.obj
 0002:000038ac       $chain$3$?UpdateValue@HandleProxy@@QEAAXXZ 00000001800138ac     HandleProxy.obj
 0002:000038bc       $unwind$??0ObjectTemplateProxy@@QEAA@PEAVV8EngineProxy@@@Z 00000001800138bc     ObjectTemplateProxy.obj
 0002:000038d4       $stateUnwindMap$??0ObjectTemplateProxy@@QEAA@PEAVV8EngineProxy@@@Z 00000001800138d4     ObjectTemplateProxy.obj
 0002:000038d4       $stateUnwindMap$??0ObjectTemplateProxy@@QEAA@PEAVV8EngineProxy@@V?$Local@VObjectTemplate@v8@@@v8@@@Z 00000001800138d4     ObjectTemplateProxy.obj
 0002:00003910       $ip2state$??0ObjectTemplateProxy@@QEAA@PEAVV8EngineProxy@@@Z 0000000180013910     ObjectTemplateProxy.obj
 0002:00003958       $unwind$??0ObjectTemplateProxy@@QEAA@PEAVV8EngineProxy@@V?$Local@VObjectTemplate@v8@@@v8@@@Z 0000000180013958     ObjectTemplateProxy.obj
 0002:00003970       $ip2state$??0ObjectTemplateProxy@@QEAA@PEAVV8EngineProxy@@V?$Local@VObjectTemplate@v8@@@v8@@@Z 0000000180013970     ObjectTemplateProxy.obj
 0002:000039b8       $unwind$??1ObjectTemplateProxy@@QEAA@XZ 00000001800139b8     ObjectTemplateProxy.obj
 0002:000039cc       $stateUnwindMap$??1ObjectTemplateProxy@@QEAA@XZ 00000001800139cc     ObjectTemplateProxy.obj
 0002:00003a00       $ip2state$??1ObjectTemplateProxy@@QEAA@XZ 0000000180013a00     ObjectTemplateProxy.obj
 0002:00003a68       $unwind$?GetPropertyAttributes@ObjectTemplateProxy@@SAXV?$Local@VString@v8@@@v8@@AEBV?$PropertyCallbackInfo@VInteger@v8@@@3@@Z 0000000180013a68     ObjectTemplateProxy.obj
 0002:00003a68       $unwind$?GetProperty@ObjectTemplateProxy@@SAXV?$Local@VString@v8@@@v8@@AEBV?$PropertyCallbackInfo@VValue@v8@@@3@@Z 0000000180013a68     ObjectTemplateProxy.obj
 0002:00003a68       $unwind$?DeleteProperty@ObjectTemplateProxy@@SAXV?$Local@VString@v8@@@v8@@AEBV?$PropertyCallbackInfo@VBoolean@v8@@@3@@Z 0000000180013a68     ObjectTemplateProxy.obj
 0002:00003a74       $chain$0$?GetProperty@ObjectTemplateProxy@@SAXV?$Local@VString@v8@@@v8@@AEBV?$PropertyCallbackInfo@VValue@v8@@@3@@Z 0000000180013a74     ObjectTemplateProxy.obj
 0002:00003a88       $chain$2$?GetProperty@ObjectTemplateProxy@@SAXV?$Local@VString@v8@@@v8@@AEBV?$PropertyCallbackInfo@VValue@v8@@@3@@Z 0000000180013a88     ObjectTemplateProxy.obj
 0002:00003a88       $chain$4$?GetProperty@ObjectTemplateProxy@@SAXV?$Local@VString@v8@@@v8@@AEBV?$PropertyCallbackInfo@VValue@v8@@@3@@Z 0000000180013a88     ObjectTemplateProxy.obj
 0002:00003a88       $chain$6$?GetProperty@ObjectTemplateProxy@@SAXV?$Local@VString@v8@@@v8@@AEBV?$PropertyCallbackInfo@VValue@v8@@@3@@Z 0000000180013a88     ObjectTemplateProxy.obj
 0002:00003a9c       $chain$7$?GetProperty@ObjectTemplateProxy@@SAXV?$Local@VString@v8@@@v8@@AEBV?$PropertyCallbackInfo@VValue@v8@@@3@@Z 0000000180013a9c     ObjectTemplateProxy.obj
 0002:00003aac       $unwind$?SetProperty@ObjectTemplateProxy@@SAXV?$Local@VString@v8@@@v8@@V?$Local@VValue@v8@@@3@AEBV?$PropertyCallbackInfo@VValue@v8@@@3@@Z 0000000180013aac     ObjectTemplateProxy.obj
 0002:00003ab8       $chain$0$?SetProperty@ObjectTemplateProxy@@SAXV?$Local@VString@v8@@@v8@@V?$Local@VValue@v8@@@3@AEBV?$PropertyCallbackInfo@VValue@v8@@@3@@Z 0000000180013ab8     ObjectTemplateProxy.obj
 0002:00003acc       $chain$2$?SetProperty@ObjectTemplateProxy@@SAXV?$Local@VString@v8@@@v8@@V?$Local@VValue@v8@@@3@AEBV?$PropertyCallbackInfo@VValue@v8@@@3@@Z 0000000180013acc     ObjectTemplateProxy.obj
 0002:00003acc       $chain$6$?SetProperty@ObjectTemplateProxy@@SAXV?$Local@VString@v8@@@v8@@V?$Local@VValue@v8@@@3@AEBV?$PropertyCallbackInfo@VValue@v8@@@3@@Z 0000000180013acc     ObjectTemplateProxy.obj
 0002:00003acc       $chain$4$?SetProperty@ObjectTemplateProxy@@SAXV?$Local@VString@v8@@@v8@@V?$Local@VValue@v8@@@3@AEBV?$PropertyCallbackInfo@VValue@v8@@@3@@Z 0000000180013acc     ObjectTemplateProxy.obj
 0002:00003ae0       $chain$7$?SetProperty@ObjectTemplateProxy@@SAXV?$Local@VString@v8@@@v8@@V?$Local@VValue@v8@@@3@AEBV?$PropertyCallbackInfo@VValue@v8@@@3@@Z 0000000180013ae0     ObjectTemplateProxy.obj
 0002:00003af0       $chain$0$?GetPropertyAttributes@ObjectTemplateProxy@@SAXV?$Local@VString@v8@@@v8@@AEBV?$PropertyCallbackInfo@VInteger@v8@@@3@@Z 0000000180013af0     ObjectTemplateProxy.obj
 0002:00003b04       $chain$2$?GetPropertyAttributes@ObjectTemplateProxy@@SAXV?$Local@VString@v8@@@v8@@AEBV?$PropertyCallbackInfo@VInteger@v8@@@3@@Z 0000000180013b04     ObjectTemplateProxy.obj
 0002:00003b18       $chain$3$?GetPropertyAttributes@ObjectTemplateProxy@@SAXV?$Local@VString@v8@@@v8@@AEBV?$PropertyCallbackInfo@VInteger@v8@@@3@@Z 0000000180013b18     ObjectTemplateProxy.obj
 0002:00003b28       $chain$0$?DeleteProperty@ObjectTemplateProxy@@SAXV?$Local@VString@v8@@@v8@@AEBV?$PropertyCallbackInfo@VBoolean@v8@@@3@@Z 0000000180013b28     ObjectTemplateProxy.obj
 0002:00003b3c       $chain$2$?DeleteProperty@ObjectTemplateProxy@@SAXV?$Local@VString@v8@@@v8@@AEBV?$PropertyCallbackInfo@VBoolean@v8@@@3@@Z 0000000180013b3c     ObjectTemplateProxy.obj
 0002:00003b50       $chain$3$?DeleteProperty@ObjectTemplateProxy@@SAXV?$Local@VString@v8@@@v8@@AEBV?$PropertyCallbackInfo@VBoolean@v8@@@3@@Z 0000000180013b50     ObjectTemplateProxy.obj
 0002:00003b60       $unwind$?GetPropertyIndices@ObjectTemplateProxy@@SAXAEBV?$PropertyCallbackInfo@VArray@v8@@@v8@@@Z 0000000180013b60     ObjectTemplateProxy.obj
 0002:00003b60       $unwind$?GetPropertyNames@ObjectTemplateProxy@@SAXAEBV?$PropertyCallbackInfo@VArray@v8@@@v8@@@Z 0000000180013b60     ObjectTemplateProxy.obj
 0002:00003b6c       $chain$0$?GetPropertyNames@ObjectTemplateProxy@@SAXAEBV?$PropertyCallbackInfo@VArray@v8@@@v8@@@Z 0000000180013b6c     ObjectTemplateProxy.obj
 0002:00003b80       $chain$4$?GetPropertyNames@ObjectTemplateProxy@@SAXAEBV?$PropertyCallbackInfo@VArray@v8@@@v8@@@Z 0000000180013b80     ObjectTemplateProxy.obj
 0002:00003b80       $chain$6$?GetPropertyNames@ObjectTemplateProxy@@SAXAEBV?$PropertyCallbackInfo@VArray@v8@@@v8@@@Z 0000000180013b80     ObjectTemplateProxy.obj
 0002:00003b80       $chain$2$?GetPropertyNames@ObjectTemplateProxy@@SAXAEBV?$PropertyCallbackInfo@VArray@v8@@@v8@@@Z 0000000180013b80     ObjectTemplateProxy.obj
 0002:00003b94       $chain$7$?GetPropertyNames@ObjectTemplateProxy@@SAXAEBV?$PropertyCallbackInfo@VArray@v8@@@v8@@@Z 0000000180013b94     ObjectTemplateProxy.obj
 0002:00003ba4       $unwind$?GetProperty@ObjectTemplateProxy@@SAXIAEBV?$PropertyCallbackInfo@VValue@v8@@@v8@@@Z 0000000180013ba4     ObjectTemplateProxy.obj
 0002:00003bb0       $chain$0$?GetProperty@ObjectTemplateProxy@@SAXIAEBV?$PropertyCallbackInfo@VValue@v8@@@v8@@@Z 0000000180013bb0     ObjectTemplateProxy.obj
 0002:00003bc4       $chain$4$?GetProperty@ObjectTemplateProxy@@SAXIAEBV?$PropertyCallbackInfo@VValue@v8@@@v8@@@Z 0000000180013bc4     ObjectTemplateProxy.obj
 0002:00003bc4       $chain$6$?GetProperty@ObjectTemplateProxy@@SAXIAEBV?$PropertyCallbackInfo@VValue@v8@@@v8@@@Z 0000000180013bc4     ObjectTemplateProxy.obj
 0002:00003bc4       $chain$2$?GetProperty@ObjectTemplateProxy@@SAXIAEBV?$PropertyCallbackInfo@VValue@v8@@@v8@@@Z 0000000180013bc4     ObjectTemplateProxy.obj
 0002:00003bd8       $chain$7$?GetProperty@ObjectTemplateProxy@@SAXIAEBV?$PropertyCallbackInfo@VValue@v8@@@v8@@@Z 0000000180013bd8     ObjectTemplateProxy.obj
 0002:00003be8       $unwind$?SetProperty@ObjectTemplateProxy@@SAXIV?$Local@VValue@v8@@@v8@@AEBV?$PropertyCallbackInfo@VValue@v8@@@3@@Z 0000000180013be8     ObjectTemplateProxy.obj
 0002:00003bf4       $chain$0$?SetProperty@ObjectTemplateProxy@@SAXIV?$Local@VValue@v8@@@v8@@AEBV?$PropertyCallbackInfo@VValue@v8@@@3@@Z 0000000180013bf4     ObjectTemplateProxy.obj
 0002:00003c08       $chain$4$?SetProperty@ObjectTemplateProxy@@SAXIV?$Local@VValue@v8@@@v8@@AEBV?$PropertyCallbackInfo@VValue@v8@@@3@@Z 0000000180013c08     ObjectTemplateProxy.obj
 0002:00003c08       $chain$6$?SetProperty@ObjectTemplateProxy@@SAXIV?$Local@VValue@v8@@@v8@@AEBV?$PropertyCallbackInfo@VValue@v8@@@3@@Z 0000000180013c08     ObjectTemplateProxy.obj
 0002:00003c08       $chain$2$?SetProperty@ObjectTemplateProxy@@SAXIV?$Local@VValue@v8@@@v8@@AEBV?$PropertyCallbackInfo@VValue@v8@@@3@@Z 0000000180013c08     ObjectTemplateProxy.obj
 0002:00003c1c       $chain$7$?SetProperty@ObjectTemplateProxy@@SAXIV?$Local@VValue@v8@@@v8@@AEBV?$PropertyCallbackInfo@VValue@v8@@@3@@Z 0000000180013c1c     ObjectTemplateProxy.obj
 0002:00003c2c       $unwind$?GetPropertyAttributes@ObjectTemplateProxy@@SAXIAEBV?$PropertyCallbackInfo@VInteger@v8@@@v8@@@Z 0000000180013c2c     ObjectTemplateProxy.obj
 0002:00003c2c       $unwind$?DeleteProperty@ObjectTemplateProxy@@SAXIAEBV?$PropertyCallbackInfo@VBoolean@v8@@@v8@@@Z 0000000180013c2c     ObjectTemplateProxy.obj
 0002:00003c38       $chain$0$?GetPropertyAttributes@ObjectTemplateProxy@@SAXIAEBV?$PropertyCallbackInfo@VInteger@v8@@@v8@@@Z 0000000180013c38     ObjectTemplateProxy.obj
 0002:00003c4c       $chain$2$?GetPropertyAttributes@ObjectTemplateProxy@@SAXIAEBV?$PropertyCallbackInfo@VInteger@v8@@@v8@@@Z 0000000180013c4c     ObjectTemplateProxy.obj
 0002:00003c60       $chain$3$?GetPropertyAttributes@ObjectTemplateProxy@@SAXIAEBV?$PropertyCallbackInfo@VInteger@v8@@@v8@@@Z 0000000180013c60     ObjectTemplateProxy.obj
 0002:00003c70       $chain$0$?DeleteProperty@ObjectTemplateProxy@@SAXIAEBV?$PropertyCallbackInfo@VBoolean@v8@@@v8@@@Z 0000000180013c70     ObjectTemplateProxy.obj
 0002:00003c84       $chain$2$?DeleteProperty@ObjectTemplateProxy@@SAXIAEBV?$PropertyCallbackInfo@VBoolean@v8@@@v8@@@Z 0000000180013c84     ObjectTemplateProxy.obj
 0002:00003c98       $chain$3$?DeleteProperty@ObjectTemplateProxy@@SAXIAEBV?$PropertyCallbackInfo@VBoolean@v8@@@v8@@@Z 0000000180013c98     ObjectTemplateProxy.obj
 0002:00003ca8       $chain$0$?GetPropertyIndices@ObjectTemplateProxy@@SAXAEBV?$PropertyCallbackInfo@VArray@v8@@@v8@@@Z 0000000180013ca8     ObjectTemplateProxy.obj
 0002:00003cbc       $chain$2$?GetPropertyIndices@ObjectTemplateProxy@@SAXAEBV?$PropertyCallbackInfo@VArray@v8@@@v8@@@Z 0000000180013cbc     ObjectTemplateProxy.obj
 0002:00003cbc       $chain$6$?GetPropertyIndices@ObjectTemplateProxy@@SAXAEBV?$PropertyCallbackInfo@VArray@v8@@@v8@@@Z 0000000180013cbc     ObjectTemplateProxy.obj
 0002:00003cbc       $chain$4$?GetPropertyIndices@ObjectTemplateProxy@@SAXAEBV?$PropertyCallbackInfo@VArray@v8@@@v8@@@Z 0000000180013cbc     ObjectTemplateProxy.obj
 0002:00003cd0       $chain$7$?GetPropertyIndices@ObjectTemplateProxy@@SAXAEBV?$PropertyCallbackInfo@VArray@v8@@@v8@@@Z 0000000180013cd0     ObjectTemplateProxy.obj
 0002:00003ce0       $unwind$?CreateObject@ObjectTemplateProxy@@QEAAPEAUHandleProxy@@H@Z 0000000180013ce0     ObjectTemplateProxy.obj
 0002:00003cf0       $unwind$?AccessorGetterCallbackProxy@ObjectTemplateProxy@@SAXV?$Local@VString@v8@@@v8@@AEBV?$PropertyCallbackInfo@VValue@v8@@@3@@Z 0000000180013cf0     ObjectTemplateProxy.obj
 0002:00003d04       $unwind$?AccessorSetterCallbackProxy@ObjectTemplateProxy@@SAXV?$Local@VString@v8@@@v8@@V?$Local@VValue@v8@@@3@AEBV?$PropertyCallbackInfo@X@3@@Z 0000000180013d04     ObjectTemplateProxy.obj
 0002:00003d18       $unwind$?SetAccessor@ObjectTemplateProxy@@QEAAXHPEBGP6APEAUHandleProxy@@PEAU2@PEAG@ZP6APEAU2@121@ZW4AccessControl@v8@@W4PropertyAttribute@4@@Z 0000000180013d18     ObjectTemplateProxy.obj
 0002:00003d2c       $unwind$??0WorkerThread@platform@v8@@QEAA@PEAVTaskQueue@12@@Z 0000000180013d2c     v8_libplatform:worker-thread.obj
 0002:00003d2c       $unwind$?message@_Generic_error_category@std@@UEBA?AV?$basic_string@DU?$char_traits@D@std@@V?$allocator@D@2@@2@H@Z 0000000180013d2c     v8_libplatform:default-platform.obj
 0002:00003d2c       $unwind$??0_StringItem@@QEAA@PEAVV8EngineProxy@@PEAVString@v8@@@Z 0000000180013d2c     V8EngineProxy.obj
 0002:00003d2c       $unwind$?message@_System_error_category@std@@UEBA?AV?$basic_string@DU?$char_traits@D@std@@V?$allocator@D@2@@2@H@Z 0000000180013d2c     v8_libplatform:default-platform.obj
 0002:00003d38       $unwind$??__E?_DisposedEngines@V8EngineProxy@@1V?$vector@_NV?$allocator@_N@std@@@std@@A@@YAXXZ 0000000180013d38     V8EngineProxy.obj
 0002:00003d48       $stateUnwindMap$??__E?_DisposedEngines@V8EngineProxy@@1V?$vector@_NV?$allocator@_N@std@@@std@@A@@YAXXZ 0000000180013d48     V8EngineProxy.obj
 0002:00003d58       $ip2state$??__E?_DisposedEngines@V8EngineProxy@@1V?$vector@_NV?$allocator@_N@std@@@std@@A@@YAXXZ 0000000180013d58     V8EngineProxy.obj
 0002:00003d78       $unwind$??__F?_DisposedEngines@V8EngineProxy@@1V?$vector@_NV?$allocator@_N@std@@@std@@A@@YAXXZ 0000000180013d78     V8EngineProxy.obj
 0002:00003d88       $stateUnwindMap$??__F?_DisposedEngines@V8EngineProxy@@1V?$vector@_NV?$allocator@_N@std@@@std@@A@@YAXXZ 0000000180013d88     V8EngineProxy.obj
 0002:00003d98       $ip2state$??__F?_DisposedEngines@V8EngineProxy@@1V?$vector@_NV?$allocator@_N@std@@@std@@A@@YAXXZ 0000000180013d98     V8EngineProxy.obj
 0002:00003db0       $unwind$??0V8EngineProxy@@QEAA@_NP6AXXZH@Z 0000000180013db0     V8EngineProxy.obj
 0002:00003dd0       $stateUnwindMap$??0V8EngineProxy@@QEAA@_NP6AXXZH@Z 0000000180013dd0     V8EngineProxy.obj
 0002:00003e30       $ip2state$??0V8EngineProxy@@QEAA@_NP6AXXZH@Z 0000000180013e30     V8EngineProxy.obj
 0002:00003ea0       $unwind$??1recursive_mutex@std@@QEAA@XZ 0000000180013ea0     V8EngineProxy.obj
 0002:00003eb0       $stateUnwindMap$??1recursive_mutex@std@@QEAA@XZ 0000000180013eb0     V8EngineProxy.obj
 0002:00003eb8       $ip2state$??1recursive_mutex@std@@QEAA@XZ 0000000180013eb8     V8EngineProxy.obj
 0002:00003ec0       $unwind$??1V8EngineProxy@@QEAA@XZ 0000000180013ec0     V8EngineProxy.obj
 0002:00003edc       $stateUnwindMap$??1V8EngineProxy@@QEAA@XZ 0000000180013edc     V8EngineProxy.obj
 0002:00003f50       $ip2state$??1V8EngineProxy@@QEAA@XZ 0000000180013f50     V8EngineProxy.obj
 0002:00003ff0       $unwind$?GetNativeString@V8EngineProxy@@QEAA?AU_StringItem@@PEAVString@v8@@@Z 0000000180013ff0     V8EngineProxy.obj
 0002:00004000       $chain$1$?GetNativeString@V8EngineProxy@@QEAA?AU_StringItem@@PEAVString@v8@@@Z 0000000180014000     V8EngineProxy.obj
 0002:00004018       $chain$2$?GetNativeString@V8EngineProxy@@QEAA?AU_StringItem@@PEAVString@v8@@@Z 0000000180014018     V8EngineProxy.obj
 0002:00004028       $unwind$?GetHandleProxy@V8EngineProxy@@QEAAPEAUHandleProxy@@V?$Handle@VValue@v8@@@v8@@@Z 0000000180014028     V8EngineProxy.obj
 0002:00004040       $stateUnwindMap$?GetHandleProxy@V8EngineProxy@@QEAAPEAUHandleProxy@@V?$Handle@VValue@v8@@@v8@@@Z 0000000180014040     V8EngineProxy.obj
 0002:00004080       $ip2state$?GetHandleProxy@V8EngineProxy@@QEAAPEAUHandleProxy@@V?$Handle@VValue@v8@@@v8@@@Z 0000000180014080     V8EngineProxy.obj
 0002:000040d8       $unwind$?dtor$0@?0???$_Buynode@AEBUpiecewise_construct_t@std@@V?$tuple@AEBQEAVIsolate@v8@@@2@V?$tuple@$$$V@2@@?$_Tree_buy@U?$pair@QEAVIsolate@v8@@V?$queue@PEAVTask@v8@@V?$deque@PEAVTask@v8@@V?$allocator@PEAVTask@v8@@@std@@@std@@@std@@@std@@V?$allocator@U?$pair@QEAVIsolate@v8@@V?$queue@PEAVTask@v8@@V?$deque@PEAVTask@v8@@V?$allocator@PEAVTask@v8@@@std@@@std@@@std@@@std@@@2@@std@@QEAAPEAU?$_Tree_node@U?$pair@QEAVIsolate@v8@@V?$queue@PEAVTask@v8@@V?$deque@PEAVTask@v8@@V?$allocator@PEAVTask@v8@@@std@@@std@@@std@@@std@@PEAX@1@AEBUpiecewise_construct_t@1@$$QEAV?$tuple@AEBQEAVIsolate@v8@@@1@$$QEAV?$tuple@$$$V@1@@Z@4HA 00000001800140d8     v8_libplatform:default-platform.obj
 0002:000040d8       $unwind$__DllMainCRTStartup$fin$1 00000001800140d8     MSVCRT:crtdll.obj
 0002:000040d8       $unwind$?dtor$0@?0???$_Uninit_move@PEAU_StringItem@@PEAU1@V?$allocator@U_StringItem@@@std@@U1@@std@@YAPEAU_StringItem@@PEAU1@00AEAU?$_Wrap_alloc@V?$allocator@U_StringItem@@@std@@@0@0U_Nonscalar_ptr_iterator_tag@0@@Z@4HA 00000001800140d8     V8EngineProxy.obj
 0002:000040d8       $unwind$?dtor$0@?0??push_back@?$vector@HV?$allocator@H@std@@@std@@QEAAXAEBH@Z@4HA 00000001800140d8     V8EngineProxy.obj
 0002:000040d8       $unwind$?dtor$0@?0??push_back@?$vector@U_StringItem@@V?$allocator@U_StringItem@@@std@@@std@@QEAAXAEBU_StringItem@@@Z@4HA 00000001800140d8     V8EngineProxy.obj
 0002:000040d8       $unwind$_onexit$fin$0      00000001800140d8     MSVCRT:atonexit.obj
 0002:000040d8       $unwind$?fin$0@?0???_M@YAXPEAX_KHP6AX0@Z@Z@4HA 00000001800140d8     MSVCRT:ehvecdtr.obj
 0002:000040d8       $unwind$?dtor$7@?0??GetHandleProxy@V8EngineProxy@@QEAAPEAUHandleProxy@@V?$Handle@VValue@v8@@@v8@@@Z@4HA 00000001800140d8     V8EngineProxy.obj
 0002:000040d8       $unwind$__DllMainCRTStartup$filt$0 00000001800140d8     MSVCRT:crtdll.obj
 0002:000040d8       $unwind$_IsNonwritableInCurrentImage$filt$0 00000001800140d8     MSVCRT:pesect.obj
 0002:000040d8       $unwind$?filt$0@?0??__ArrayUnwind@@YAXPEAX_KHP6AX0@Z@Z@4HA 00000001800140d8     MSVCRT:ehvecdtr.obj
 0002:000040d8       $unwind$?dtor$7@?0??CreateArray@V8EngineProxy@@QEAAPEAUHandleProxy@@PEAPEAGG@Z@4HA 00000001800140d8     V8EngineProxy.obj
 0002:000040e0       $unwind$?DisposeHandleProxy@V8EngineProxy@@QEAAXPEAUHandleProxy@@@Z 00000001800140e0     V8EngineProxy.obj
 0002:000040f8       $stateUnwindMap$?DisposeHandleProxy@V8EngineProxy@@QEAAXPEAUHandleProxy@@@Z 00000001800140f8     V8EngineProxy.obj
 0002:00004100       $ip2state$?DisposeHandleProxy@V8EngineProxy@@QEAAXPEAUHandleProxy@@@Z 0000000180014100     V8EngineProxy.obj
 0002:00004118       $unwind$?SetGlobalObjectTemplate@V8EngineProxy@@QEAAPEAUHandleProxy@@PEAVObjectTemplateProxy@@@Z 0000000180014118     V8EngineProxy.obj
 0002:00004130       $stateUnwindMap$?SetGlobalObjectTemplate@V8EngineProxy@@QEAAPEAUHandleProxy@@PEAVObjectTemplateProxy@@@Z 0000000180014130     V8EngineProxy.obj
 0002:00004140       $ip2state$?SetGlobalObjectTemplate@V8EngineProxy@@QEAAPEAUHandleProxy@@PEAVObjectTemplateProxy@@@Z 0000000180014140     V8EngineProxy.obj
 0002:00004168       $unwind$?GetErrorMessage@V8EngineProxy@@SA?AV?$Local@VString@v8@@@v8@@AEAVTryCatch@3@@Z 0000000180014168     V8EngineProxy.obj
 0002:00004178       $chain$1$?GetErrorMessage@V8EngineProxy@@SA?AV?$Local@VString@v8@@@v8@@AEAVTryCatch@3@@Z 0000000180014178     V8EngineProxy.obj
 0002:00004190       $chain$3$?GetErrorMessage@V8EngineProxy@@SA?AV?$Local@VString@v8@@@v8@@AEAVTryCatch@3@@Z 0000000180014190     V8EngineProxy.obj
 0002:000041a8       $chain$4$?GetErrorMessage@V8EngineProxy@@SA?AV?$Local@VString@v8@@@v8@@AEAVTryCatch@3@@Z 00000001800141a8     V8EngineProxy.obj
 0002:000041b8       $chain$5$?GetErrorMessage@V8EngineProxy@@SA?AV?$Local@VString@v8@@@v8@@AEAVTryCatch@3@@Z 00000001800141b8     V8EngineProxy.obj
 0002:000041c8       $unwind$?Execute@V8EngineProxy@@QEAAPEAUHandleProxy@@PEBGPEAG@Z 00000001800141c8     V8EngineProxy.obj
 0002:000041e4       $stateUnwindMap$?Execute@V8EngineProxy@@QEAAPEAUHandleProxy@@PEBGPEAG@Z 00000001800141e4     V8EngineProxy.obj
 0002:00004204       $tryMap$?Execute@V8EngineProxy@@QEAAPEAUHandleProxy@@PEBGPEAG@Z 0000000180014204     V8EngineProxy.obj
 0002:00004218       $handlerMap$0$?Execute@V8EngineProxy@@QEAAPEAUHandleProxy@@PEBGPEAG@Z 0000000180014218     V8EngineProxy.obj
 0002:00004230       $ip2state$?Execute@V8EngineProxy@@QEAAPEAUHandleProxy@@PEBGPEAG@Z 0000000180014230     V8EngineProxy.obj
 0002:00004278       $unwind$?catch$0@?0??Execute@V8EngineProxy@@QEAAPEAUHandleProxy@@PEBGPEAG@Z@4HA 0000000180014278     V8EngineProxy.obj
 0002:0000428c       $unwind$?Execute@V8EngineProxy@@QEAAPEAUHandleProxy@@V?$Handle@VScript@v8@@@v8@@@Z 000000018001428c     V8EngineProxy.obj
 0002:000042a0       $stateUnwindMap$?Execute@V8EngineProxy@@QEAAPEAUHandleProxy@@V?$Handle@VScript@v8@@@v8@@@Z 00000001800142a0     V8EngineProxy.obj
 0002:000042c0       $tryMap$?Execute@V8EngineProxy@@QEAAPEAUHandleProxy@@V?$Handle@VScript@v8@@@v8@@@Z 00000001800142c0     V8EngineProxy.obj
 0002:000042d4       $handlerMap$0$?Execute@V8EngineProxy@@QEAAPEAUHandleProxy@@V?$Handle@VScript@v8@@@v8@@@Z 00000001800142d4     V8EngineProxy.obj
 0002:000042f0       $ip2state$?Execute@V8EngineProxy@@QEAAPEAUHandleProxy@@V?$Handle@VScript@v8@@@v8@@@Z 00000001800142f0     V8EngineProxy.obj
 0002:00004338       $unwind$?catch$0@?0??Execute@V8EngineProxy@@QEAAPEAUHandleProxy@@V?$Handle@VScript@v8@@@v8@@@Z@4HA 0000000180014338     V8EngineProxy.obj
 0002:0000434c       $unwind$?Compile@V8EngineProxy@@QEAAPEAUHandleProxy@@PEBGPEAG@Z 000000018001434c     V8EngineProxy.obj
 0002:00004368       $stateUnwindMap$?Compile@V8EngineProxy@@QEAAPEAUHandleProxy@@PEBGPEAG@Z 0000000180014368     V8EngineProxy.obj
 0002:00004388       $tryMap$?Compile@V8EngineProxy@@QEAAPEAUHandleProxy@@PEBGPEAG@Z 0000000180014388     V8EngineProxy.obj
 0002:0000439c       $handlerMap$0$?Compile@V8EngineProxy@@QEAAPEAUHandleProxy@@PEBGPEAG@Z 000000018001439c     V8EngineProxy.obj
 0002:000043b0       $ip2state$?Compile@V8EngineProxy@@QEAAPEAUHandleProxy@@PEBGPEAG@Z 00000001800143b0     V8EngineProxy.obj
 0002:000043f8       $unwind$?catch$0@?0??Compile@V8EngineProxy@@QEAAPEAUHandleProxy@@PEBGPEAG@Z@4HA 00000001800143f8     V8EngineProxy.obj
 0002:0000440c       $unwind$?Call@V8EngineProxy@@QEAAPEAUHandleProxy@@PEAU2@PEBG0GPEAPEAU2@@Z 000000018001440c     V8EngineProxy.obj
 0002:00004430       $stateUnwindMap$?Call@V8EngineProxy@@QEAAPEAUHandleProxy@@PEAU2@PEBG0GPEAPEAU2@@Z 0000000180014430     V8EngineProxy.obj
 0002:00004440       $ip2state$?Call@V8EngineProxy@@QEAAPEAUHandleProxy@@PEAU2@PEBG0GPEAPEAU2@@Z 0000000180014440     V8EngineProxy.obj
 0002:00004468       $unwind$?CreateError@V8EngineProxy@@QEAAPEAUHandleProxy@@PEBGW4JSValueType@@@Z 0000000180014468     V8EngineProxy.obj
 0002:00004478       $unwind$?CreateArray@V8EngineProxy@@QEAAPEAUHandleProxy@@PEAPEAU2@G@Z 0000000180014478     V8EngineProxy.obj
 0002:00004488       $chain$0$?CreateArray@V8EngineProxy@@QEAAPEAUHandleProxy@@PEAPEAU2@G@Z 0000000180014488     V8EngineProxy.obj
 0002:0000449c       $chain$1$?CreateArray@V8EngineProxy@@QEAAPEAUHandleProxy@@PEAPEAU2@G@Z 000000018001449c     V8EngineProxy.obj
 0002:000044ac       $unwind$?CreateArray@V8EngineProxy@@QEAAPEAUHandleProxy@@PEAPEAGG@Z 00000001800144ac     V8EngineProxy.obj
 0002:000044c4       $stateUnwindMap$?CreateArray@V8EngineProxy@@QEAAPEAUHandleProxy@@PEAPEAGG@Z 00000001800144c4     V8EngineProxy.obj
 0002:00004510       $ip2state$?CreateArray@V8EngineProxy@@QEAAPEAUHandleProxy@@PEAPEAGG@Z 0000000180014510     V8EngineProxy.obj
 0002:00004568       $unwind$?resize@?$vector@_NV?$allocator@_N@std@@@std@@QEAAX_K_N@Z 0000000180014568     V8EngineProxy.obj
 0002:00004570       $unwind$?clear@?$vector@_NV?$allocator@_N@std@@@std@@QEAAXXZ 0000000180014570     V8EngineProxy.obj
 0002:00004578       $unwind$?push_back@?$vector@U_StringItem@@V?$allocator@U_StringItem@@@std@@@std@@QEAAXAEBU_StringItem@@@Z 0000000180014578     V8EngineProxy.obj
 0002:0000458c       $stateUnwindMap$?push_back@?$vector@HV?$allocator@H@std@@@std@@QEAAXAEBH@Z 000000018001458c     V8EngineProxy.obj
 0002:0000458c       $stateUnwindMap$?push_back@?$vector@U_StringItem@@V?$allocator@U_StringItem@@@std@@@std@@QEAAXAEBU_StringItem@@@Z 000000018001458c     V8EngineProxy.obj
 0002:00004598       $ip2state$?push_back@?$vector@U_StringItem@@V?$allocator@U_StringItem@@@std@@@std@@QEAAXAEBU_StringItem@@@Z 0000000180014598     V8EngineProxy.obj
 0002:000045b0       $unwind$?push_back@?$vector@HV?$allocator@H@std@@@std@@QEAAXAEBH@Z 00000001800145b0     V8EngineProxy.obj
 0002:000045c8       $ip2state$?push_back@?$vector@HV?$allocator@H@std@@@std@@QEAAXAEBH@Z 00000001800145c8     V8EngineProxy.obj
 0002:000045e0       $unwind$?erase@?$vector@_NV?$allocator@_N@std@@@std@@QEAA?AV?$_Vb_iterator@U?$_Wrap_alloc@V?$allocator@I@std@@@std@@@2@V?$_Vb_const_iterator@U?$_Wrap_alloc@V?$allocator@I@std@@@std@@@2@0@Z 00000001800145e0     V8EngineProxy.obj
 0002:000045fc       $unwind$?_Insert_n@?$vector@_NV?$allocator@_N@std@@@std@@QEAA?AV?$_Vb_iterator@U?$_Wrap_alloc@V?$allocator@I@std@@@std@@@2@V?$_Vb_const_iterator@U?$_Wrap_alloc@V?$allocator@I@std@@@std@@@2@_KAEB_N@Z 00000001800145fc     V8EngineProxy.obj
 0002:00004614       $unwind$?_Trim@?$vector@_NV?$allocator@_N@std@@@std@@QEAAX_K@Z 0000000180014614     V8EngineProxy.obj
 0002:00004620       $chain$1$?_Trim@?$vector@_NV?$allocator@_N@std@@@std@@QEAAX_K@Z 0000000180014620     V8EngineProxy.obj
 0002:00004634       $chain$2$?_Trim@?$vector@_NV?$allocator@_N@std@@@std@@QEAAX_K@Z 0000000180014634     V8EngineProxy.obj
 0002:00004648       $chain$3$?_Trim@?$vector@_NV?$allocator@_N@std@@@std@@QEAAX_K@Z 0000000180014648     V8EngineProxy.obj
 0002:00004658       $chain$4$?_Trim@?$vector@_NV?$allocator@_N@std@@@std@@QEAAX_K@Z 0000000180014658     V8EngineProxy.obj
 0002:00004668       $unwind$??1?$_Vb_val@V?$allocator@_N@std@@@std@@QEAA@XZ 0000000180014668     V8EngineProxy.obj
 0002:00004678       $stateUnwindMap$??1?$_Vb_val@V?$allocator@_N@std@@@std@@QEAA@XZ 0000000180014678     V8EngineProxy.obj
 0002:00004680       $ip2state$??1?$_Vb_val@V?$allocator@_N@std@@@std@@QEAA@XZ 0000000180014680     V8EngineProxy.obj
 0002:00004688       $unwind$?_Construct_n@?$vector@U_StringItem@@V?$allocator@U_StringItem@@@std@@@std@@QEAAX_KPEBU_StringItem@@@Z 0000000180014688     V8EngineProxy.obj
 0002:000046a0       $stateUnwindMap$?_Reallocate@?$vector@HV?$allocator@H@std@@@std@@IEAAX_K@Z 00000001800146a0     V8EngineProxy.obj
 0002:000046a0       $stateUnwindMap$??$_Insert_nohint@AEAU?$pair@QEAVIsolate@v8@@V?$queue@PEAVTask@v8@@V?$deque@PEAVTask@v8@@V?$allocator@PEAVTask@v8@@@std@@@std@@@std@@@std@@PEAU?$_Tree_node@U?$pair@QEAVIsolate@v8@@V?$queue@PEAVTask@v8@@V?$deque@PEAVTask@v8@@V?$allocator@PEAVTask@v8@@@std@@@std@@@std@@@std@@PEAX@2@@?$_Tree@V?$_Tmap_traits@PEAVIsolate@v8@@V?$queue@PEAVTask@v8@@V?$deque@PEAVTask@v8@@V?$allocator@PEAVTask@v8@@@std@@@std@@@std@@U?$less@PEAVIsolate@v8@@@4@V?$allocator@U?$pair@QEAVIsolate@v8@@V?$queue@PEAVTask@v8@@V?$deque@PEAVTask@v8@@V?$allocator@PEAVTask@v8@@@std@@@std@@@std@@@std@@@4@$0A@@std@@@std@@IEAA?AU?$pair@V?$_Tree_iterator@V?$_Tree_val@U?$_Tree_simple_types@U?$pair@QEAVIsolate@v8@@V?$queue@PEAVTask@v8@@V?$deque@PEAVTask@v8@@V?$allocator@PEAVTask@v8@@@std@@@std@@@std@@@std@@@std@@@std@@@std@@_N@1@_NAEAU?$pair@QEAVIsolate@v8@@V?$queue@PEAVTask@v8@@V?$deque@PEAVTask@v8@@V?$allocator@PEAVTask@v8@@@std@@@std@@@std@@@1@PEAU?$_Tree_node@U?$pair@QEAVIsolate@v8@@V?$queue@PEAVTask@v8@@V?$deque@PEAVTask@v8@@V?$allocator@PEAVTask@v8@@@std@@@std@@@std@@@std@@PEAX@1@@Z 00000001800146a0     v8_libplatform:default-platform.obj
 0002:000046a0       $stateUnwindMap$?_Construct_n@?$vector@PEAUHandleProxy@@V?$allocator@PEAUHandleProxy@@@std@@@std@@QEAAX_KPEBQEAUHandleProxy@@@Z 00000001800146a0     V8EngineProxy.obj
 0002:000046a0       $stateUnwindMap$??$_Uninit_fill_n@PEAU_StringItem@@_KU1@V?$allocator@U_StringItem@@@std@@U1@@std@@YAXPEAU_StringItem@@_KPEBU1@AEAU?$_Wrap_alloc@V?$allocator@U_StringItem@@@std@@@0@0U_Nonscalar_ptr_iterator_tag@0@@Z 00000001800146a0     V8EngineProxy.obj
 0002:000046a0       $stateUnwindMap$?_Reallocate@?$vector@IV?$allocator@_N@std@@@std@@IEAAX_K@Z 00000001800146a0     V8EngineProxy.obj
 0002:000046a0       $stateUnwindMap$?_Buynode0@?$_Tree_buy@U?$pair@QEAVIsolate@v8@@V?$queue@PEAVTask@v8@@V?$deque@PEAVTask@v8@@V?$allocator@PEAVTask@v8@@@std@@@std@@@std@@@std@@V?$allocator@U?$pair@QEAVIsolate@v8@@V?$queue@PEAVTask@v8@@V?$deque@PEAVTask@v8@@V?$allocator@PEAVTask@v8@@@std@@@std@@@std@@@std@@@2@@std@@QEAAPEAU?$_Tree_node@U?$pair@QEAVIsolate@v8@@V?$queue@PEAVTask@v8@@V?$deque@PEAVTask@v8@@V?$allocator@PEAVTask@v8@@@std@@@std@@@std@@@std@@PEAX@2@XZ 00000001800146a0     v8_libplatform:default-platform.obj
 0002:000046a0       $stateUnwindMap$?_Reallocate@?$vector@PEAUHandleProxy@@V?$allocator@PEAUHandleProxy@@@std@@@std@@IEAAX_K@Z 00000001800146a0     V8EngineProxy.obj
 0002:000046a0       $stateUnwindMap$?_Construct_n@?$vector@IV?$allocator@_N@std@@@std@@QEAAX_KPEBI@Z 00000001800146a0     V8EngineProxy.obj
 0002:000046a0       $stateUnwindMap$?_Reallocate@?$vector@U_StringItem@@V?$allocator@U_StringItem@@@std@@@std@@IEAAX_K@Z 00000001800146a0     V8EngineProxy.obj
 0002:000046a0       $stateUnwindMap$?_Reallocate@?$vector@PEAVWorkerThread@platform@v8@@V?$allocator@PEAVWorkerThread@platform@v8@@@std@@@std@@IEAAX_K@Z 00000001800146a0     v8_libplatform:default-platform.obj
 0002:000046a0       $stateUnwindMap$?_Buyheadnode@?$_Tree_alloc@$0A@U?$_Tree_base_types@U?$pair@QEAVIsolate@v8@@V?$queue@PEAVTask@v8@@V?$deque@PEAVTask@v8@@V?$allocator@PEAVTask@v8@@@std@@@std@@@std@@@std@@V?$allocator@U?$pair@QEAVIsolate@v8@@V?$queue@PEAVTask@v8@@V?$deque@PEAVTask@v8@@V?$allocator@PEAVTask@v8@@@std@@@std@@@std@@@std@@@2@@std@@@std@@QEAAPEAU?$_Tree_node@U?$pair@QEAVIsolate@v8@@V?$queue@PEAVTask@v8@@V?$deque@PEAVTask@v8@@V?$allocator@PEAVTask@v8@@@std@@@std@@@std@@@std@@PEAX@2@XZ 00000001800146a0     v8_libplatform:default-platform.obj
 0002:000046a0       $stateUnwindMap$??$_Insert_hint@AEAU?$pair@QEAVIsolate@v8@@V?$queue@PEAVTask@v8@@V?$deque@PEAVTask@v8@@V?$allocator@PEAVTask@v8@@@std@@@std@@@std@@@std@@PEAU?$_Tree_node@U?$pair@QEAVIsolate@v8@@V?$queue@PEAVTask@v8@@V?$deque@PEAVTask@v8@@V?$allocator@PEAVTask@v8@@@std@@@std@@@std@@@std@@PEAX@2@@?$_Tree@V?$_Tmap_traits@PEAVIsolate@v8@@V?$queue@PEAVTask@v8@@V?$deque@PEAVTask@v8@@V?$allocator@PEAVTask@v8@@@std@@@std@@@std@@U?$less@PEAVIsolate@v8@@@4@V?$allocator@U?$pair@QEAVIsolate@v8@@V?$queue@PEAVTask@v8@@V?$deque@PEAVTask@v8@@V?$allocator@PEAVTask@v8@@@std@@@std@@@std@@@std@@@4@$0A@@std@@@std@@IEAA?AV?$_Tree_iterator@V?$_Tree_val@U?$_Tree_simple_types@U?$pair@QEAVIsolate@v8@@V?$queue@PEAVTask@v8@@V?$deque@PEAVTask@v8@@V?$allocator@PEAVTask@v8@@@std@@@std@@@std@@@std@@@std@@@std@@@1@V?$_Tree_const_iterator@V?$_Tree_val@U?$_Tree_simple_types@U?$pair@QEAVIsolate@v8@@V?$queue@PEAVTask@v8@@V?$deque@PEAVTask@v8@@V?$allocator@PEAVTask@v8@@@std@@@std@@@std@@@std@@@std@@@std@@@1@AEAU?$pair@QEAVIsolate@v8@@V?$queue@PEAVTask@v8@@V?$deque@PEAVTask@v8@@V?$allocator@PEAVTask@v8@@@std@@@std@@@std@@@1@PEAU?$_Tree_node@U?$pair@QEAVIsolate@v8@@V?$queue@PEAVTask@v8@@V?$deque@PEAVTask@v8@@V?$allocator@PEAVTask@v8@@@std@@@std@@@std@@@std@@PEAX@1@@Z 00000001800146a0     v8_libplatform:default-platform.obj
 0002:000046a0       $stateUnwindMap$?resize@?$vector@IV?$allocator@_N@std@@@std@@QEAAX_KAEBI@Z 00000001800146a0     V8EngineProxy.obj
 0002:000046a0       $stateUnwindMap$?_Construct_n@?$vector@HV?$allocator@H@std@@@std@@QEAAX_KPEBH@Z 00000001800146a0     V8EngineProxy.obj
 0002:000046a0       $stateUnwindMap$?_Construct_n@?$vector@U_StringItem@@V?$allocator@U_StringItem@@@std@@@std@@QEAAX_KPEBU_StringItem@@@Z 00000001800146a0     V8EngineProxy.obj
 0002:000046b0       $tryMap$?_Construct_n@?$vector@U_StringItem@@V?$allocator@U_StringItem@@@std@@@std@@QEAAX_KPEBU_StringItem@@@Z 00000001800146b0     V8EngineProxy.obj
 0002:000046c4       $handlerMap$0$?_Construct_n@?$vector@U_StringItem@@V?$allocator@U_StringItem@@@std@@@std@@QEAAX_KPEBU_StringItem@@@Z 00000001800146c4     V8EngineProxy.obj
 0002:000046d8       $ip2state$?_Construct_n@?$vector@U_StringItem@@V?$allocator@U_StringItem@@@std@@@std@@QEAAX_KPEBU_StringItem@@@Z 00000001800146d8     V8EngineProxy.obj
 0002:00004700       $unwind$?catch$0@?0??_Construct_n@?$vector@U_StringItem@@V?$allocator@U_StringItem@@@std@@@std@@QEAAX_KPEBU_StringItem@@@Z@4HA 0000000180014700     V8EngineProxy.obj
 0002:00004714       $unwind$?_Construct_n@?$vector@PEAUHandleProxy@@V?$allocator@PEAUHandleProxy@@@std@@@std@@QEAAX_KPEBQEAUHandleProxy@@@Z 0000000180014714     V8EngineProxy.obj
 0002:0000472c       $tryMap$?_Construct_n@?$vector@PEAUHandleProxy@@V?$allocator@PEAUHandleProxy@@@std@@@std@@QEAAX_KPEBQEAUHandleProxy@@@Z 000000018001472c     V8EngineProxy.obj
 0002:00004740       $handlerMap$0$?_Construct_n@?$vector@PEAUHandleProxy@@V?$allocator@PEAUHandleProxy@@@std@@@std@@QEAAX_KPEBQEAUHandleProxy@@@Z 0000000180014740     V8EngineProxy.obj
 0002:00004758       $ip2state$?_Construct_n@?$vector@PEAUHandleProxy@@V?$allocator@PEAUHandleProxy@@@std@@@std@@QEAAX_KPEBQEAUHandleProxy@@@Z 0000000180014758     V8EngineProxy.obj
 0002:00004780       $unwind$?catch$0@?0??_Construct_n@?$vector@PEAUHandleProxy@@V?$allocator@PEAUHandleProxy@@@std@@@std@@QEAAX_KPEBQEAUHandleProxy@@@Z@4HA 0000000180014780     V8EngineProxy.obj
 0002:00004794       $unwind$?_Construct_n@?$vector@HV?$allocator@H@std@@@std@@QEAAX_KPEBH@Z 0000000180014794     V8EngineProxy.obj
 0002:000047ac       $tryMap$?_Construct_n@?$vector@HV?$allocator@H@std@@@std@@QEAAX_KPEBH@Z 00000001800147ac     V8EngineProxy.obj
 0002:000047c0       $handlerMap$0$?_Construct_n@?$vector@HV?$allocator@H@std@@@std@@QEAAX_KPEBH@Z 00000001800147c0     V8EngineProxy.obj
 0002:000047d8       $ip2state$?_Construct_n@?$vector@HV?$allocator@H@std@@@std@@QEAAX_KPEBH@Z 00000001800147d8     V8EngineProxy.obj
 0002:00004800       $unwind$?catch$0@?0??_Construct_n@?$vector@HV?$allocator@H@std@@@std@@QEAAX_KPEBH@Z@4HA 0000000180014800     V8EngineProxy.obj
 0002:00004814       $unwind$?_Insert_x@?$vector@_NV?$allocator@_N@std@@@std@@QEAA_KV?$_Vb_const_iterator@U?$_Wrap_alloc@V?$allocator@I@std@@@std@@@2@_K@Z 0000000180014814     V8EngineProxy.obj
 0002:00004824       $chain$0$?_Insert_x@?$vector@_NV?$allocator@_N@std@@@std@@QEAA_KV?$_Vb_const_iterator@U?$_Wrap_alloc@V?$allocator@I@std@@@std@@@2@_K@Z 0000000180014824     V8EngineProxy.obj
 0002:00004838       $chain$1$?_Insert_x@?$vector@_NV?$allocator@_N@std@@@std@@QEAA_KV?$_Vb_const_iterator@U?$_Wrap_alloc@V?$allocator@I@std@@@std@@@2@_K@Z 0000000180014838     V8EngineProxy.obj
 0002:00004848       $chain$2$?_Insert_x@?$vector@_NV?$allocator@_N@std@@@std@@QEAA_KV?$_Vb_const_iterator@U?$_Wrap_alloc@V?$allocator@I@std@@@std@@@2@_K@Z 0000000180014848     V8EngineProxy.obj
 0002:0000485c       $unwind$?_Reallocate@?$vector@U_StringItem@@V?$allocator@U_StringItem@@@std@@@std@@IEAAX_K@Z 000000018001485c     V8EngineProxy.obj
 0002:00004878       $tryMap$?_Reallocate@?$vector@U_StringItem@@V?$allocator@U_StringItem@@@std@@@std@@IEAAX_K@Z 0000000180014878     V8EngineProxy.obj
 0002:0000488c       $handlerMap$0$?_Reallocate@?$vector@U_StringItem@@V?$allocator@U_StringItem@@@std@@@std@@IEAAX_K@Z 000000018001488c     V8EngineProxy.obj
 0002:000048a0       $ip2state$?_Reallocate@?$vector@U_StringItem@@V?$allocator@U_StringItem@@@std@@@std@@IEAAX_K@Z 00000001800148a0     V8EngineProxy.obj
 0002:000048c8       $unwind$?catch$0@?0??_Reallocate@?$vector@U_StringItem@@V?$allocator@U_StringItem@@@std@@@std@@IEAAX_K@Z@4HA 00000001800148c8     V8EngineProxy.obj
 0002:000048d8       $unwind$?_Reallocate@?$vector@PEAUHandleProxy@@V?$allocator@PEAUHandleProxy@@@std@@@std@@IEAAX_K@Z 00000001800148d8     V8EngineProxy.obj
 0002:000048f4       $tryMap$?_Reallocate@?$vector@PEAUHandleProxy@@V?$allocator@PEAUHandleProxy@@@std@@@std@@IEAAX_K@Z 00000001800148f4     V8EngineProxy.obj
 0002:00004908       $handlerMap$0$?_Reallocate@?$vector@PEAUHandleProxy@@V?$allocator@PEAUHandleProxy@@@std@@@std@@IEAAX_K@Z 0000000180014908     V8EngineProxy.obj
 0002:00004920       $ip2state$?_Reallocate@?$vector@PEAUHandleProxy@@V?$allocator@PEAUHandleProxy@@@std@@@std@@IEAAX_K@Z 0000000180014920     V8EngineProxy.obj
 0002:00004948       $unwind$?catch$0@?0??_Reallocate@?$vector@PEAUHandleProxy@@V?$allocator@PEAUHandleProxy@@@std@@@std@@IEAAX_K@Z@4HA 0000000180014948     V8EngineProxy.obj
 0002:00004958       $unwind$?_Reallocate@?$vector@HV?$allocator@H@std@@@std@@IEAAX_K@Z 0000000180014958     V8EngineProxy.obj
 0002:00004974       $tryMap$?_Reallocate@?$vector@HV?$allocator@H@std@@@std@@IEAAX_K@Z 0000000180014974     V8EngineProxy.obj
 0002:00004988       $handlerMap$0$?_Reallocate@?$vector@HV?$allocator@H@std@@@std@@IEAAX_K@Z 0000000180014988     V8EngineProxy.obj
 0002:000049a0       $ip2state$?_Reallocate@?$vector@HV?$allocator@H@std@@@std@@IEAAX_K@Z 00000001800149a0     V8EngineProxy.obj
 0002:000049c8       $unwind$?catch$0@?0??_Reallocate@?$vector@HV?$allocator@H@std@@@std@@IEAAX_K@Z@4HA 00000001800149c8     V8EngineProxy.obj
 0002:000049d8       $unwind$?_Construct_n@?$vector@IV?$allocator@_N@std@@@std@@QEAAX_KPEBI@Z 00000001800149d8     V8EngineProxy.obj
 0002:000049ec       $tryMap$?_Construct_n@?$vector@IV?$allocator@_N@std@@@std@@QEAAX_KPEBI@Z 00000001800149ec     V8EngineProxy.obj
 0002:00004a00       $handlerMap$0$?_Construct_n@?$vector@IV?$allocator@_N@std@@@std@@QEAAX_KPEBI@Z 0000000180014a00     V8EngineProxy.obj
 0002:00004a18       $ip2state$?_Construct_n@?$vector@IV?$allocator@_N@std@@@std@@QEAAX_KPEBI@Z 0000000180014a18     V8EngineProxy.obj
 0002:00004a40       $unwind$?catch$0@?0??_Construct_n@?$vector@IV?$allocator@_N@std@@@std@@QEAAX_KPEBI@Z@4HA 0000000180014a40     V8EngineProxy.obj
 0002:00004a50       $unwind$?resize@?$vector@IV?$allocator@_N@std@@@std@@QEAAX_KAEBI@Z 0000000180014a50     V8EngineProxy.obj
 0002:00004a64       $tryMap$?resize@?$vector@IV?$allocator@_N@std@@@std@@QEAAX_KAEBI@Z 0000000180014a64     V8EngineProxy.obj
 0002:00004a78       $handlerMap$0$?resize@?$vector@IV?$allocator@_N@std@@@std@@QEAAX_KAEBI@Z 0000000180014a78     V8EngineProxy.obj
 0002:00004a90       $ip2state$?resize@?$vector@IV?$allocator@_N@std@@@std@@QEAAX_KAEBI@Z 0000000180014a90     V8EngineProxy.obj
 0002:00004ab8       $unwind$?catch$0@?0??resize@?$vector@IV?$allocator@_N@std@@@std@@QEAAX_KAEBI@Z@4HA 0000000180014ab8     V8EngineProxy.obj
 0002:00004ac8       $chain$0$?_Buy@?$vector@IV?$allocator@_N@std@@@std@@IEAA_N_K@Z 0000000180014ac8     V8EngineProxy.obj
 0002:00004adc       $chain$2$?_Buy@?$vector@IV?$allocator@_N@std@@@std@@IEAA_N_K@Z 0000000180014adc     V8EngineProxy.obj
 0002:00004af0       $unwind$?_Reallocate@?$vector@IV?$allocator@_N@std@@@std@@IEAAX_K@Z 0000000180014af0     V8EngineProxy.obj
 0002:00004b08       $tryMap$?_Reallocate@?$vector@IV?$allocator@_N@std@@@std@@IEAAX_K@Z 0000000180014b08     V8EngineProxy.obj
 0002:00004b1c       $handlerMap$0$?_Reallocate@?$vector@IV?$allocator@_N@std@@@std@@IEAAX_K@Z 0000000180014b1c     V8EngineProxy.obj
 0002:00004b30       $ip2state$?_Reallocate@?$vector@IV?$allocator@_N@std@@@std@@IEAAX_K@Z 0000000180014b30     V8EngineProxy.obj
 0002:00004b58       $unwind$?catch$0@?0??_Reallocate@?$vector@IV?$allocator@_N@std@@@std@@IEAAX_K@Z@4HA 0000000180014b58     V8EngineProxy.obj
 0002:00004b68       $unwind$??$_Uninit_fill_n@PEAU_StringItem@@_KU1@V?$allocator@U_StringItem@@@std@@U1@@std@@YAXPEAU_StringItem@@_KPEBU1@AEAU?$_Wrap_alloc@V?$allocator@U_StringItem@@@std@@@0@0U_Nonscalar_ptr_iterator_tag@0@@Z 0000000180014b68     V8EngineProxy.obj
 0002:00004b78       $tryMap$??$_Uninit_fill_n@PEAU_StringItem@@_KU1@V?$allocator@U_StringItem@@@std@@U1@@std@@YAXPEAU_StringItem@@_KPEBU1@AEAU?$_Wrap_alloc@V?$allocator@U_StringItem@@@std@@@0@0U_Nonscalar_ptr_iterator_tag@0@@Z 0000000180014b78     V8EngineProxy.obj
 0002:00004b8c       $handlerMap$0$??$_Uninit_fill_n@PEAU_StringItem@@_KU1@V?$allocator@U_StringItem@@@std@@U1@@std@@YAXPEAU_StringItem@@_KPEBU1@AEAU?$_Wrap_alloc@V?$allocator@U_StringItem@@@std@@@0@0U_Nonscalar_ptr_iterator_tag@0@@Z 0000000180014b8c     V8EngineProxy.obj
 0002:00004ba0       $ip2state$??$_Uninit_fill_n@PEAU_StringItem@@_KU1@V?$allocator@U_StringItem@@@std@@U1@@std@@YAXPEAU_StringItem@@_KPEBU1@AEAU?$_Wrap_alloc@V?$allocator@U_StringItem@@@std@@@0@0U_Nonscalar_ptr_iterator_tag@0@@Z 0000000180014ba0     V8EngineProxy.obj
 0002:00004bc8       $unwind$?catch$0@?0???$_Uninit_fill_n@PEAU_StringItem@@_KU1@V?$allocator@U_StringItem@@@std@@U1@@std@@YAXPEAU_StringItem@@_KPEBU1@AEAU?$_Wrap_alloc@V?$allocator@U_StringItem@@@std@@@0@0U_Nonscalar_ptr_iterator_tag@0@@Z@4HA 0000000180014bc8     V8EngineProxy.obj
 0002:00004bd8       $unwind$??$_Uninit_move@PEAU_StringItem@@PEAU1@V?$allocator@U_StringItem@@@std@@U1@@std@@YAPEAU_StringItem@@PEAU1@00AEAU?$_Wrap_alloc@V?$allocator@U_StringItem@@@std@@@0@0U_Nonscalar_ptr_iterator_tag@0@@Z 0000000180014bd8     V8EngineProxy.obj
 0002:00004be8       $stateUnwindMap$??$_Uninit_move@PEAU_StringItem@@PEAU1@V?$allocator@U_StringItem@@@std@@U1@@std@@YAPEAU_StringItem@@PEAU1@00AEAU?$_Wrap_alloc@V?$allocator@U_StringItem@@@std@@@0@0U_Nonscalar_ptr_iterator_tag@0@@Z 0000000180014be8     V8EngineProxy.obj
 0002:00004c00       $tryMap$??$_Uninit_move@PEAU_StringItem@@PEAU1@V?$allocator@U_StringItem@@@std@@U1@@std@@YAPEAU_StringItem@@PEAU1@00AEAU?$_Wrap_alloc@V?$allocator@U_StringItem@@@std@@@0@0U_Nonscalar_ptr_iterator_tag@0@@Z 0000000180014c00     V8EngineProxy.obj
 0002:00004c14       $handlerMap$0$??$_Uninit_move@PEAU_StringItem@@PEAU1@V?$allocator@U_StringItem@@@std@@U1@@std@@YAPEAU_StringItem@@PEAU1@00AEAU?$_Wrap_alloc@V?$allocator@U_StringItem@@@std@@@0@0U_Nonscalar_ptr_iterator_tag@0@@Z 0000000180014c14     V8EngineProxy.obj
 0002:00004c28       $ip2state$??$_Uninit_move@PEAU_StringItem@@PEAU1@V?$allocator@U_StringItem@@@std@@U1@@std@@YAPEAU_StringItem@@PEAU1@00AEAU?$_Wrap_alloc@V?$allocator@U_StringItem@@@std@@@0@0U_Nonscalar_ptr_iterator_tag@0@@Z 0000000180014c28     V8EngineProxy.obj
 0002:00004c60       $unwind$?catch$0@?0???$_Uninit_move@PEAU_StringItem@@PEAU1@V?$allocator@U_StringItem@@@std@@U1@@std@@YAPEAU_StringItem@@PEAU1@00AEAU?$_Wrap_alloc@V?$allocator@U_StringItem@@@std@@@0@0U_Nonscalar_ptr_iterator_tag@0@@Z@4HA 0000000180014c60     V8EngineProxy.obj
 0002:00004c70       $unwind$?equivalent@error_category@std@@UEBA_NHAEBVerror_condition@2@@Z 0000000180014c70     v8_libplatform:default-platform.obj
 0002:00004c70       $unwind$?message@_Iostream_error_category@std@@UEBA?AV?$basic_string@DU?$char_traits@D@std@@V?$allocator@D@2@@2@H@Z 0000000180014c70     v8_libplatform:default-platform.obj
 0002:00004c78       $unwind$?CreateDefaultPlatform@platform@v8@@YAPEAVPlatform@2@H@Z 0000000180014c78     v8_libplatform:default-platform.obj
 0002:00004c88       $stateUnwindMap$?CreateDefaultPlatform@platform@v8@@YAPEAVPlatform@2@H@Z 0000000180014c88     v8_libplatform:default-platform.obj
 0002:00004c90       $ip2state$?CreateDefaultPlatform@platform@v8@@YAPEAVPlatform@2@H@Z 0000000180014c90     v8_libplatform:default-platform.obj
 0002:00004ca8       $unwind$??0DefaultPlatform@platform@v8@@QEAA@XZ 0000000180014ca8     v8_libplatform:default-platform.obj
 0002:00004cbc       $stateUnwindMap$??0DefaultPlatform@platform@v8@@QEAA@XZ 0000000180014cbc     v8_libplatform:default-platform.obj
 0002:00004ce0       $ip2state$??0DefaultPlatform@platform@v8@@QEAA@XZ 0000000180014ce0     v8_libplatform:default-platform.obj
 0002:00004d10       $unwind$??1DefaultPlatform@platform@v8@@UEAA@XZ 0000000180014d10     v8_libplatform:default-platform.obj
 0002:00004d2c       $stateUnwindMap$??1DefaultPlatform@platform@v8@@UEAA@XZ 0000000180014d2c     v8_libplatform:default-platform.obj
 0002:00004d60       $ip2state$??1DefaultPlatform@platform@v8@@UEAA@XZ 0000000180014d60     v8_libplatform:default-platform.obj
 0002:00004da8       $unwind$?SetThreadPoolSize@DefaultPlatform@platform@v8@@QEAAXH@Z 0000000180014da8     v8_libplatform:default-platform.obj
 0002:00004db4       $unwind$?EnsureInitialized@DefaultPlatform@platform@v8@@QEAAXXZ 0000000180014db4     v8_libplatform:default-platform.obj
 0002:00004dd0       $stateUnwindMap$?EnsureInitialized@DefaultPlatform@platform@v8@@QEAAXXZ 0000000180014dd0     v8_libplatform:default-platform.obj
 0002:00004de0       $ip2state$?EnsureInitialized@DefaultPlatform@platform@v8@@QEAAXXZ 0000000180014de0     v8_libplatform:default-platform.obj
 0002:00004e08       $unwind$?CallOnBackgroundThread@DefaultPlatform@platform@v8@@UEAAXPEAVTask@3@W4ExpectedRuntime@Platform@3@@Z 0000000180014e08     v8_libplatform:default-platform.obj
 0002:00004e1c       $stateUnwindMap$?CallOnBackgroundThread@DefaultPlatform@platform@v8@@UEAAXPEAVTask@3@W4ExpectedRuntime@Platform@3@@Z 0000000180014e1c     v8_libplatform:default-platform.obj
 0002:00004e28       $ip2state$?CallOnBackgroundThread@DefaultPlatform@platform@v8@@UEAAXPEAVTask@3@W4ExpectedRuntime@Platform@3@@Z 0000000180014e28     v8_libplatform:default-platform.obj
 0002:00004e40       $unwind$?CallOnForegroundThread@DefaultPlatform@platform@v8@@UEAAXPEAVIsolate@3@PEAVTask@3@@Z 0000000180014e40     v8_libplatform:default-platform.obj
 0002:00004e54       $stateUnwindMap$?CallOnForegroundThread@DefaultPlatform@platform@v8@@UEAAXPEAVIsolate@3@PEAVTask@3@@Z 0000000180014e54     v8_libplatform:default-platform.obj
 0002:00004e60       $ip2state$?CallOnForegroundThread@DefaultPlatform@platform@v8@@UEAAXPEAVIsolate@3@PEAVTask@3@@Z 0000000180014e60     v8_libplatform:default-platform.obj
 0002:00004e78       $unwind$?assign@?$basic_string@DU?$char_traits@D@std@@V?$allocator@D@2@@std@@QEAAAEAV12@AEBV12@_K1@Z 0000000180014e78     v8_libplatform:default-platform.obj
 0002:00004e8c       $unwind$?push_back@?$deque@PEAVTask@v8@@V?$allocator@PEAVTask@v8@@@std@@@std@@QEAAXAEBQEAVTask@v8@@@Z 0000000180014e8c     v8_libplatform:default-platform.obj
 0002:00004ea0       $chain$0$?_Grow@?$basic_string@DU?$char_traits@D@std@@V?$allocator@D@2@@std@@QEAA_N_K_N@Z 0000000180014ea0     v8_libplatform:default-platform.obj
 0002:00004eb4       $chain$2$?_Grow@?$basic_string@DU?$char_traits@D@std@@V?$allocator@D@2@@std@@QEAA_N_K_N@Z 0000000180014eb4     v8_libplatform:default-platform.obj
 0002:00004ec8       $unwind$?_Growmap@?$deque@PEAVTask@v8@@V?$allocator@PEAVTask@v8@@@std@@@std@@IEAAX_K@Z 0000000180014ec8     v8_libplatform:default-platform.obj
 0002:00004ed4       $chain$1$?_Growmap@?$deque@PEAVTask@v8@@V?$allocator@PEAVTask@v8@@@std@@@std@@IEAAX_K@Z 0000000180014ed4     v8_libplatform:default-platform.obj
 0002:00004eec       $chain$3$?_Growmap@?$deque@PEAVTask@v8@@V?$allocator@PEAVTask@v8@@@std@@@std@@IEAAX_K@Z 0000000180014eec     v8_libplatform:default-platform.obj
 0002:00004f04       $chain$4$?_Growmap@?$deque@PEAVTask@v8@@V?$allocator@PEAVTask@v8@@@std@@@std@@IEAAX_K@Z 0000000180014f04     v8_libplatform:default-platform.obj
 0002:00004f18       $chain$5$?_Growmap@?$deque@PEAVTask@v8@@V?$allocator@PEAVTask@v8@@@std@@@std@@IEAAX_K@Z 0000000180014f18     v8_libplatform:default-platform.obj
 0002:00004f28       $chain$6$?_Growmap@?$deque@PEAVTask@v8@@V?$allocator@PEAVTask@v8@@@std@@@std@@IEAAX_K@Z 0000000180014f28     v8_libplatform:default-platform.obj
 0002:00004f38       $chain$7$?_Growmap@?$deque@PEAVTask@v8@@V?$allocator@PEAVTask@v8@@@std@@@std@@IEAAX_K@Z 0000000180014f38     v8_libplatform:default-platform.obj
 0002:00004f48       $unwind$?_Reallocate@?$vector@PEAVWorkerThread@platform@v8@@V?$allocator@PEAVWorkerThread@platform@v8@@@std@@@std@@IEAAX_K@Z 0000000180014f48     v8_libplatform:default-platform.obj
 0002:00004f64       $tryMap$?_Reallocate@?$vector@PEAVWorkerThread@platform@v8@@V?$allocator@PEAVWorkerThread@platform@v8@@@std@@@std@@IEAAX_K@Z 0000000180014f64     v8_libplatform:default-platform.obj
 0002:00004f78       $handlerMap$0$?_Reallocate@?$vector@PEAVWorkerThread@platform@v8@@V?$allocator@PEAVWorkerThread@platform@v8@@@std@@@std@@IEAAX_K@Z 0000000180014f78     v8_libplatform:default-platform.obj
 0002:00004f90       $ip2state$?_Reallocate@?$vector@PEAVWorkerThread@platform@v8@@V?$allocator@PEAVWorkerThread@platform@v8@@@std@@@std@@IEAAX_K@Z 0000000180014f90     v8_libplatform:default-platform.obj
 0002:00004fb8       $unwind$?catch$0@?0??_Reallocate@?$vector@PEAVWorkerThread@platform@v8@@V?$allocator@PEAVWorkerThread@platform@v8@@@std@@@std@@IEAAX_K@Z@4HA 0000000180014fb8     v8_libplatform:default-platform.obj
 0002:00004fc8       $unwind$?erase@?$_Tree@V?$_Tmap_traits@PEAVIsolate@v8@@V?$queue@PEAVTask@v8@@V?$deque@PEAVTask@v8@@V?$allocator@PEAVTask@v8@@@std@@@std@@@std@@U?$less@PEAVIsolate@v8@@@4@V?$allocator@U?$pair@QEAVIsolate@v8@@V?$queue@PEAVTask@v8@@V?$deque@PEAVTask@v8@@V?$allocator@PEAVTask@v8@@@std@@@std@@@std@@@std@@@4@$0A@@std@@@std@@QEAA?AV?$_Tree_iterator@V?$_Tree_val@U?$_Tree_simple_types@U?$pair@QEAVIsolate@v8@@V?$queue@PEAVTask@v8@@V?$deque@PEAVTask@v8@@V?$allocator@PEAVTask@v8@@@std@@@std@@@std@@@std@@@std@@@std@@@2@V?$_Tree_const_iterator@V?$_Tree_val@U?$_Tree_simple_types@U?$pair@QEAVIsolate@v8@@V?$queue@PEAVTask@v8@@V?$deque@PEAVTask@v8@@V?$allocator@PEAVTask@v8@@@std@@@std@@@std@@@std@@@std@@@std@@@2@0@Z 0000000180014fc8     v8_libplatform:default-platform.obj
 0002:00004fd4       $unwind$?_Copy@?$basic_string@DU?$char_traits@D@std@@V?$allocator@D@2@@std@@QEAAX_K0@Z 0000000180014fd4     v8_libplatform:default-platform.obj
 0002:00004fec       $stateUnwindMap$?_Copy@?$basic_string@DU?$char_traits@D@std@@V?$allocator@D@2@@std@@QEAAX_K0@Z 0000000180014fec     v8_libplatform:default-platform.obj
 0002:0000500c       $tryMap$?_Copy@?$basic_string@DU?$char_traits@D@std@@V?$allocator@D@2@@std@@QEAAX_K0@Z 000000018001500c     v8_libplatform:default-platform.obj
 0002:00005034       $handlerMap$0$?_Copy@?$basic_string@DU?$char_traits@D@std@@V?$allocator@D@2@@std@@QEAAX_K0@Z 0000000180015034     v8_libplatform:default-platform.obj
 0002:00005048       $handlerMap$1$?_Copy@?$basic_string@DU?$char_traits@D@std@@V?$allocator@D@2@@std@@QEAAX_K0@Z 0000000180015048     v8_libplatform:default-platform.obj
 0002:00005060       $ip2state$?_Copy@?$basic_string@DU?$char_traits@D@std@@V?$allocator@D@2@@std@@QEAAX_K0@Z 0000000180015060     v8_libplatform:default-platform.obj
 0002:000050b0       $unwind$?catch$1@?0??_Copy@?$basic_string@DU?$char_traits@D@std@@V?$allocator@D@2@@std@@QEAAX_K0@Z@4HA 00000001800150b0     v8_libplatform:default-platform.obj
 0002:000050c0       $unwind$?catch$0@?0??_Copy@?$basic_string@DU?$char_traits@D@std@@V?$allocator@D@2@@std@@QEAAX_K0@Z@4HA 00000001800150c0     v8_libplatform:default-platform.obj
 0002:000050d4       $unwind$?erase@?$_Tree@V?$_Tmap_traits@PEAVIsolate@v8@@V?$queue@PEAVTask@v8@@V?$deque@PEAVTask@v8@@V?$allocator@PEAVTask@v8@@@std@@@std@@@std@@U?$less@PEAVIsolate@v8@@@4@V?$allocator@U?$pair@QEAVIsolate@v8@@V?$queue@PEAVTask@v8@@V?$deque@PEAVTask@v8@@V?$allocator@PEAVTask@v8@@@std@@@std@@@std@@@std@@@4@$0A@@std@@@std@@QEAA?AV?$_Tree_iterator@V?$_Tree_val@U?$_Tree_simple_types@U?$pair@QEAVIsolate@v8@@V?$queue@PEAVTask@v8@@V?$deque@PEAVTask@v8@@V?$allocator@PEAVTask@v8@@@std@@@std@@@std@@@std@@@std@@@std@@@2@V?$_Tree_const_iterator@V?$_Tree_val@U?$_Tree_simple_types@U?$pair@QEAVIsolate@v8@@V?$queue@PEAVTask@v8@@V?$deque@PEAVTask@v8@@V?$allocator@PEAVTask@v8@@@std@@@std@@@std@@@std@@@std@@@std@@@2@@Z 00000001800150d4     v8_libplatform:default-platform.obj
 0002:000050e8       $unwind$?_Erase@?$_Tree@V?$_Tmap_traits@PEAVIsolate@v8@@V?$queue@PEAVTask@v8@@V?$deque@PEAVTask@v8@@V?$allocator@PEAVTask@v8@@@std@@@std@@@std@@U?$less@PEAVIsolate@v8@@@4@V?$allocator@U?$pair@QEAVIsolate@v8@@V?$queue@PEAVTask@v8@@V?$deque@PEAVTask@v8@@V?$allocator@PEAVTask@v8@@@std@@@std@@@std@@@std@@@4@$0A@@std@@@std@@IEAAXPEAU?$_Tree_node@U?$pair@QEAVIsolate@v8@@V?$queue@PEAVTask@v8@@V?$deque@PEAVTask@v8@@V?$allocator@PEAVTask@v8@@@std@@@std@@@std@@@std@@PEAX@2@@Z 00000001800150e8     v8_libplatform:default-platform.obj
 0002:000050f8       $chain$0$?_Erase@?$_Tree@V?$_Tmap_traits@PEAVIsolate@v8@@V?$queue@PEAVTask@v8@@V?$deque@PEAVTask@v8@@V?$allocator@PEAVTask@v8@@@std@@@std@@@std@@U?$less@PEAVIsolate@v8@@@4@V?$allocator@U?$pair@QEAVIsolate@v8@@V?$queue@PEAVTask@v8@@V?$deque@PEAVTask@v8@@V?$allocator@PEAVTask@v8@@@std@@@std@@@std@@@std@@@4@$0A@@std@@@std@@IEAAXPEAU?$_Tree_node@U?$pair@QEAVIsolate@v8@@V?$queue@PEAVTask@v8@@V?$deque@PEAVTask@v8@@V?$allocator@PEAVTask@v8@@@std@@@std@@@std@@@std@@PEAX@2@@Z 00000001800150f8     v8_libplatform:default-platform.obj
 0002:0000510c       $chain$1$?_Erase@?$_Tree@V?$_Tmap_traits@PEAVIsolate@v8@@V?$queue@PEAVTask@v8@@V?$deque@PEAVTask@v8@@V?$allocator@PEAVTask@v8@@@std@@@std@@@std@@U?$less@PEAVIsolate@v8@@@4@V?$allocator@U?$pair@QEAVIsolate@v8@@V?$queue@PEAVTask@v8@@V?$deque@PEAVTask@v8@@V?$allocator@PEAVTask@v8@@@std@@@std@@@std@@@std@@@4@$0A@@std@@@std@@IEAAXPEAU?$_Tree_node@U?$pair@QEAVIsolate@v8@@V?$queue@PEAVTask@v8@@V?$deque@PEAVTask@v8@@V?$allocator@PEAVTask@v8@@@std@@@std@@@std@@@std@@PEAX@2@@Z 000000018001510c     v8_libplatform:default-platform.obj
 0002:0000511c       $unwind$?_Buyheadnode@?$_Tree_alloc@$0A@U?$_Tree_base_types@U?$pair@QEAVIsolate@v8@@V?$queue@PEAVTask@v8@@V?$deque@PEAVTask@v8@@V?$allocator@PEAVTask@v8@@@std@@@std@@@std@@@std@@V?$allocator@U?$pair@QEAVIsolate@v8@@V?$queue@PEAVTask@v8@@V?$deque@PEAVTask@v8@@V?$allocator@PEAVTask@v8@@@std@@@std@@@std@@@std@@@2@@std@@@std@@QEAAPEAU?$_Tree_node@U?$pair@QEAVIsolate@v8@@V?$queue@PEAVTask@v8@@V?$deque@PEAVTask@v8@@V?$allocator@PEAVTask@v8@@@std@@@std@@@std@@@std@@PEAX@2@XZ 000000018001511c     v8_libplatform:default-platform.obj
 0002:0000512c       $tryMap$?_Buyheadnode@?$_Tree_alloc@$0A@U?$_Tree_base_types@U?$pair@QEAVIsolate@v8@@V?$queue@PEAVTask@v8@@V?$deque@PEAVTask@v8@@V?$allocator@PEAVTask@v8@@@std@@@std@@@std@@@std@@V?$allocator@U?$pair@QEAVIsolate@v8@@V?$queue@PEAVTask@v8@@V?$deque@PEAVTask@v8@@V?$allocator@PEAVTask@v8@@@std@@@std@@@std@@@std@@@2@@std@@@std@@QEAAPEAU?$_Tree_node@U?$pair@QEAVIsolate@v8@@V?$queue@PEAVTask@v8@@V?$deque@PEAVTask@v8@@V?$allocator@PEAVTask@v8@@@std@@@std@@@std@@@std@@PEAX@2@XZ 000000018001512c     v8_libplatform:default-platform.obj
 0002:00005140       $handlerMap$0$?_Buyheadnode@?$_Tree_alloc@$0A@U?$_Tree_base_types@U?$pair@QEAVIsolate@v8@@V?$queue@PEAVTask@v8@@V?$deque@PEAVTask@v8@@V?$allocator@PEAVTask@v8@@@std@@@std@@@std@@@std@@V?$allocator@U?$pair@QEAVIsolate@v8@@V?$queue@PEAVTask@v8@@V?$deque@PEAVTask@v8@@V?$allocator@PEAVTask@v8@@@std@@@std@@@std@@@std@@@2@@std@@@std@@QEAAPEAU?$_Tree_node@U?$pair@QEAVIsolate@v8@@V?$queue@PEAVTask@v8@@V?$deque@PEAVTask@v8@@V?$allocator@PEAVTask@v8@@@std@@@std@@@std@@@std@@PEAX@2@XZ 0000000180015140     v8_libplatform:default-platform.obj
 0002:00005158       $ip2state$?_Buyheadnode@?$_Tree_alloc@$0A@U?$_Tree_base_types@U?$pair@QEAVIsolate@v8@@V?$queue@PEAVTask@v8@@V?$deque@PEAVTask@v8@@V?$allocator@PEAVTask@v8@@@std@@@std@@@std@@@std@@V?$allocator@U?$pair@QEAVIsolate@v8@@V?$queue@PEAVTask@v8@@V?$deque@PEAVTask@v8@@V?$allocator@PEAVTask@v8@@@std@@@std@@@std@@@std@@@2@@std@@@std@@QEAAPEAU?$_Tree_node@U?$pair@QEAVIsolate@v8@@V?$queue@PEAVTask@v8@@V?$deque@PEAVTask@v8@@V?$allocator@PEAVTask@v8@@@std@@@std@@@std@@@std@@PEAX@2@XZ 0000000180015158     v8_libplatform:default-platform.obj
 0002:00005180       $unwind$?catch$0@?0??_Buyheadnode@?$_Tree_alloc@$0A@U?$_Tree_base_types@U?$pair@QEAVIsolate@v8@@V?$queue@PEAVTask@v8@@V?$deque@PEAVTask@v8@@V?$allocator@PEAVTask@v8@@@std@@@std@@@std@@@std@@V?$allocator@U?$pair@QEAVIsolate@v8@@V?$queue@PEAVTask@v8@@V?$deque@PEAVTask@v8@@V?$allocator@PEAVTask@v8@@@std@@@std@@@std@@@std@@@2@@std@@@std@@QEAAPEAU?$_Tree_node@U?$pair@QEAVIsolate@v8@@V?$queue@PEAVTask@v8@@V?$deque@PEAVTask@v8@@V?$allocator@PEAVTask@v8@@@std@@@std@@@std@@@std@@PEAX@2@XZ@4HA 0000000180015180     v8_libplatform:default-platform.obj
 0002:00005190       $unwind$??$_Buynode@AEBUpiecewise_construct_t@std@@V?$tuple@AEBQEAVIsolate@v8@@@2@V?$tuple@$$$V@2@@?$_Tree_buy@U?$pair@QEAVIsolate@v8@@V?$queue@PEAVTask@v8@@V?$deque@PEAVTask@v8@@V?$allocator@PEAVTask@v8@@@std@@@std@@@std@@@std@@V?$allocator@U?$pair@QEAVIsolate@v8@@V?$queue@PEAVTask@v8@@V?$deque@PEAVTask@v8@@V?$allocator@PEAVTask@v8@@@std@@@std@@@std@@@std@@@2@@std@@QEAAPEAU?$_Tree_node@U?$pair@QEAVIsolate@v8@@V?$queue@PEAVTask@v8@@V?$deque@PEAVTask@v8@@V?$allocator@PEAVTask@v8@@@std@@@std@@@std@@@std@@PEAX@1@AEBUpiecewise_construct_t@1@$$QEAV?$tuple@AEBQEAVIsolate@v8@@@1@$$QEAV?$tuple@$$$V@1@@Z 0000000180015190     v8_libplatform:default-platform.obj
 0002:000051a8       $stateUnwindMap$??$_Buynode@AEBUpiecewise_construct_t@std@@V?$tuple@AEBQEAVIsolate@v8@@@2@V?$tuple@$$$V@2@@?$_Tree_buy@U?$pair@QEAVIsolate@v8@@V?$queue@PEAVTask@v8@@V?$deque@PEAVTask@v8@@V?$allocator@PEAVTask@v8@@@std@@@std@@@std@@@std@@V?$allocator@U?$pair@QEAVIsolate@v8@@V?$queue@PEAVTask@v8@@V?$deque@PEAVTask@v8@@V?$allocator@PEAVTask@v8@@@std@@@std@@@std@@@std@@@2@@std@@QEAAPEAU?$_Tree_node@U?$pair@QEAVIsolate@v8@@V?$queue@PEAVTask@v8@@V?$deque@PEAVTask@v8@@V?$allocator@PEAVTask@v8@@@std@@@std@@@std@@@std@@PEAX@1@AEBUpiecewise_construct_t@1@$$QEAV?$tuple@AEBQEAVIsolate@v8@@@1@$$QEAV?$tuple@$$$V@1@@Z 00000001800151a8     v8_libplatform:default-platform.obj
 0002:000051e0       $tryMap$??$_Buynode@AEBUpiecewise_construct_t@std@@V?$tuple@AEBQEAVIsolate@v8@@@2@V?$tuple@$$$V@2@@?$_Tree_buy@U?$pair@QEAVIsolate@v8@@V?$queue@PEAVTask@v8@@V?$deque@PEAVTask@v8@@V?$allocator@PEAVTask@v8@@@std@@@std@@@std@@@std@@V?$allocator@U?$pair@QEAVIsolate@v8@@V?$queue@PEAVTask@v8@@V?$deque@PEAVTask@v8@@V?$allocator@PEAVTask@v8@@@std@@@std@@@std@@@std@@@2@@std@@QEAAPEAU?$_Tree_node@U?$pair@QEAVIsolate@v8@@V?$queue@PEAVTask@v8@@V?$deque@PEAVTask@v8@@V?$allocator@PEAVTask@v8@@@std@@@std@@@std@@@std@@PEAX@1@AEBUpiecewise_construct_t@1@$$QEAV?$tuple@AEBQEAVIsolate@v8@@@1@$$QEAV?$tuple@$$$V@1@@Z 00000001800151e0     v8_libplatform:default-platform.obj
 0002:000051f4       $handlerMap$0$??$_Buynode@AEBUpiecewise_construct_t@std@@V?$tuple@AEBQEAVIsolate@v8@@@2@V?$tuple@$$$V@2@@?$_Tree_buy@U?$pair@QEAVIsolate@v8@@V?$queue@PEAVTask@v8@@V?$deque@PEAVTask@v8@@V?$allocator@PEAVTask@v8@@@std@@@std@@@std@@@std@@V?$allocator@U?$pair@QEAVIsolate@v8@@V?$queue@PEAVTask@v8@@V?$deque@PEAVTask@v8@@V?$allocator@PEAVTask@v8@@@std@@@std@@@std@@@std@@@2@@std@@QEAAPEAU?$_Tree_node@U?$pair@QEAVIsolate@v8@@V?$queue@PEAVTask@v8@@V?$deque@PEAVTask@v8@@V?$allocator@PEAVTask@v8@@@std@@@std@@@std@@@std@@PEAX@1@AEBUpiecewise_construct_t@1@$$QEAV?$tuple@AEBQEAVIsolate@v8@@@1@$$QEAV?$tuple@$$$V@1@@Z 00000001800151f4     v8_libplatform:default-platform.obj
 0002:00005208       $ip2state$??$_Buynode@AEBUpiecewise_construct_t@std@@V?$tuple@AEBQEAVIsolate@v8@@@2@V?$tuple@$$$V@2@@?$_Tree_buy@U?$pair@QEAVIsolate@v8@@V?$queue@PEAVTask@v8@@V?$deque@PEAVTask@v8@@V?$allocator@PEAVTask@v8@@@std@@@std@@@std@@@std@@V?$allocator@U?$pair@QEAVIsolate@v8@@V?$queue@PEAVTask@v8@@V?$deque@PEAVTask@v8@@V?$allocator@PEAVTask@v8@@@std@@@std@@@std@@@std@@@2@@std@@QEAAPEAU?$_Tree_node@U?$pair@QEAVIsolate@v8@@V?$queue@PEAVTask@v8@@V?$deque@PEAVTask@v8@@V?$allocator@PEAVTask@v8@@@std@@@std@@@std@@@std@@PEAX@1@AEBUpiecewise_construct_t@1@$$QEAV?$tuple@AEBQEAVIsolate@v8@@@1@$$QEAV?$tuple@$$$V@1@@Z 0000000180015208     v8_libplatform:default-platform.obj
 0002:00005238       $unwind$?catch$0@?0???$_Buynode@AEBUpiecewise_construct_t@std@@V?$tuple@AEBQEAVIsolate@v8@@@2@V?$tuple@$$$V@2@@?$_Tree_buy@U?$pair@QEAVIsolate@v8@@V?$queue@PEAVTask@v8@@V?$deque@PEAVTask@v8@@V?$allocator@PEAVTask@v8@@@std@@@std@@@std@@@std@@V?$allocator@U?$pair@QEAVIsolate@v8@@V?$queue@PEAVTask@v8@@V?$deque@PEAVTask@v8@@V?$allocator@PEAVTask@v8@@@std@@@std@@@std@@@std@@@2@@std@@QEAAPEAU?$_Tree_node@U?$pair@QEAVIsolate@v8@@V?$queue@PEAVTask@v8@@V?$deque@PEAVTask@v8@@V?$allocator@PEAVTask@v8@@@std@@@std@@@std@@@std@@PEAX@1@AEBUpiecewise_construct_t@1@$$QEAV?$tuple@AEBQEAVIsolate@v8@@@1@$$QEAV?$tuple@$$$V@1@@Z@4HA 0000000180015238     v8_libplatform:default-platform.obj
 0002:00005248       $unwind$??$_Insert_hint@AEAU?$pair@QEAVIsolate@v8@@V?$queue@PEAVTask@v8@@V?$deque@PEAVTask@v8@@V?$allocator@PEAVTask@v8@@@std@@@std@@@std@@@std@@PEAU?$_Tree_node@U?$pair@QEAVIsolate@v8@@V?$queue@PEAVTask@v8@@V?$deque@PEAVTask@v8@@V?$allocator@PEAVTask@v8@@@std@@@std@@@std@@@std@@PEAX@2@@?$_Tree@V?$_Tmap_traits@PEAVIsolate@v8@@V?$queue@PEAVTask@v8@@V?$deque@PEAVTask@v8@@V?$allocator@PEAVTask@v8@@@std@@@std@@@std@@U?$less@PEAVIsolate@v8@@@4@V?$allocator@U?$pair@QEAVIsolate@v8@@V?$queue@PEAVTask@v8@@V?$deque@PEAVTask@v8@@V?$allocator@PEAVTask@v8@@@std@@@std@@@std@@@std@@@4@$0A@@std@@@std@@IEAA?AV?$_Tree_iterator@V?$_Tree_val@U?$_Tree_simple_types@U?$pair@QEAVIsolate@v8@@V?$queue@PEAVTask@v8@@V?$deque@PEAVTask@v8@@V?$allocator@PEAVTask@v8@@@std@@@std@@@std@@@std@@@std@@@std@@@1@V?$_Tree_const_iterator@V?$_Tree_val@U?$_Tree_simple_types@U?$pair@QEAVIsolate@v8@@V?$queue@PEAVTask@v8@@V?$deque@PEAVTask@v8@@V?$allocator@PEAVTask@v8@@@std@@@std@@@std@@@std@@@std@@@std@@@1@AEAU?$pair@QEAVIsolate@v8@@V?$queue@PEAVTask@v8@@V?$deque@PEAVTask@v8@@V?$allocator@PEAVTask@v8@@@std@@@std@@@std@@@1@PEAU?$_Tree_node@U?$pair@QEAVIsolate@v8@@V?$queue@PEAVTask@v8@@V?$deque@PEAVTask@v8@@V?$allocator@PEAVTask@v8@@@std@@@std@@@std@@@std@@PEAX@1@@Z 0000000180015248     v8_libplatform:default-platform.obj
 0002:00005258       $tryMap$??$_Insert_hint@AEAU?$pair@QEAVIsolate@v8@@V?$queue@PEAVTask@v8@@V?$deque@PEAVTask@v8@@V?$allocator@PEAVTask@v8@@@std@@@std@@@std@@@std@@PEAU?$_Tree_node@U?$pair@QEAVIsolate@v8@@V?$queue@PEAVTask@v8@@V?$deque@PEAVTask@v8@@V?$allocator@PEAVTask@v8@@@std@@@std@@@std@@@std@@PEAX@2@@?$_Tree@V?$_Tmap_traits@PEAVIsolate@v8@@V?$queue@PEAVTask@v8@@V?$deque@PEAVTask@v8@@V?$allocator@PEAVTask@v8@@@std@@@std@@@std@@U?$less@PEAVIsolate@v8@@@4@V?$allocator@U?$pair@QEAVIsolate@v8@@V?$queue@PEAVTask@v8@@V?$deque@PEAVTask@v8@@V?$allocator@PEAVTask@v8@@@std@@@std@@@std@@@std@@@4@$0A@@std@@@std@@IEAA?AV?$_Tree_iterator@V?$_Tree_val@U?$_Tree_simple_types@U?$pair@QEAVIsolate@v8@@V?$queue@PEAVTask@v8@@V?$deque@PEAVTask@v8@@V?$allocator@PEAVTask@v8@@@std@@@std@@@std@@@std@@@std@@@std@@@1@V?$_Tree_const_iterator@V?$_Tree_val@U?$_Tree_simple_types@U?$pair@QEAVIsolate@v8@@V?$queue@PEAVTask@v8@@V?$deque@PEAVTask@v8@@V?$allocator@PEAVTask@v8@@@std@@@std@@@std@@@std@@@std@@@std@@@1@AEAU?$pair@QEAVIsolate@v8@@V?$queue@PEAVTask@v8@@V?$deque@PEAVTask@v8@@V?$allocator@PEAVTask@v8@@@std@@@std@@@std@@@1@PEAU?$_Tree_node@U?$pair@QEAVIsolate@v8@@V?$queue@PEAVTask@v8@@V?$deque@PEAVTask@v8@@V?$allocator@PEAVTask@v8@@@std@@@std@@@std@@@std@@PEAX@1@@Z 0000000180015258     v8_libplatform:default-platform.obj
 0002:0000526c       $handlerMap$0$??$_Insert_hint@AEAU?$pair@QEAVIsolate@v8@@V?$queue@PEAVTask@v8@@V?$deque@PEAVTask@v8@@V?$allocator@PEAVTask@v8@@@std@@@std@@@std@@@std@@PEAU?$_Tree_node@U?$pair@QEAVIsolate@v8@@V?$queue@PEAVTask@v8@@V?$deque@PEAVTask@v8@@V?$allocator@PEAVTask@v8@@@std@@@std@@@std@@@std@@PEAX@2@@?$_Tree@V?$_Tmap_traits@PEAVIsolate@v8@@V?$queue@PEAVTask@v8@@V?$deque@PEAVTask@v8@@V?$allocator@PEAVTask@v8@@@std@@@std@@@std@@U?$less@PEAVIsolate@v8@@@4@V?$allocator@U?$pair@QEAVIsolate@v8@@V?$queue@PEAVTask@v8@@V?$deque@PEAVTask@v8@@V?$allocator@PEAVTask@v8@@@std@@@std@@@std@@@std@@@4@$0A@@std@@@std@@IEAA?AV?$_Tree_iterator@V?$_Tree_val@U?$_Tree_simple_types@U?$pair@QEAVIsolate@v8@@V?$queue@PEAVTask@v8@@V?$deque@PEAVTask@v8@@V?$allocator@PEAVTask@v8@@@std@@@std@@@std@@@std@@@std@@@std@@@1@V?$_Tree_const_iterator@V?$_Tree_val@U?$_Tree_simple_types@U?$pair@QEAVIsolate@v8@@V?$queue@PEAVTask@v8@@V?$deque@PEAVTask@v8@@V?$allocator@PEAVTask@v8@@@std@@@std@@@std@@@std@@@std@@@std@@@1@AEAU?$pair@QEAVIsolate@v8@@V?$queue@PEAVTask@v8@@V?$deque@PEAVTask@v8@@V?$allocator@PEAVTask@v8@@@std@@@std@@@std@@@1@PEAU?$_Tree_node@U?$pair@QEAVIsolate@v8@@V?$queue@PEAVTask@v8@@V?$deque@PEAVTask@v8@@V?$allocator@PEAVTask@v8@@@std@@@std@@@std@@@std@@PEAX@1@@Z 000000018001526c     v8_libplatform:default-platform.obj
 0002:00005280       $ip2state$??$_Insert_hint@AEAU?$pair@QEAVIsolate@v8@@V?$queue@PEAVTask@v8@@V?$deque@PEAVTask@v8@@V?$allocator@PEAVTask@v8@@@std@@@std@@@std@@@std@@PEAU?$_Tree_node@U?$pair@QEAVIsolate@v8@@V?$queue@PEAVTask@v8@@V?$deque@PEAVTask@v8@@V?$allocator@PEAVTask@v8@@@std@@@std@@@std@@@std@@PEAX@2@@?$_Tree@V?$_Tmap_traits@PEAVIsolate@v8@@V?$queue@PEAVTask@v8@@V?$deque@PEAVTask@v8@@V?$allocator@PEAVTask@v8@@@std@@@std@@@std@@U?$less@PEAVIsolate@v8@@@4@V?$allocator@U?$pair@QEAVIsolate@v8@@V?$queue@PEAVTask@v8@@V?$deque@PEAVTask@v8@@V?$allocator@PEAVTask@v8@@@std@@@std@@@std@@@std@@@4@$0A@@std@@@std@@IEAA?AV?$_Tree_iterator@V?$_Tree_val@U?$_Tree_simple_types@U?$pair@QEAVIsolate@v8@@V?$queue@PEAVTask@v8@@V?$deque@PEAVTask@v8@@V?$allocator@PEAVTask@v8@@@std@@@std@@@std@@@std@@@std@@@std@@@1@V?$_Tree_const_iterator@V?$_Tree_val@U?$_Tree_simple_types@U?$pair@QEAVIsolate@v8@@V?$queue@PEAVTask@v8@@V?$deque@PEAVTask@v8@@V?$allocator@PEAVTask@v8@@@std@@@std@@@std@@@std@@@std@@@std@@@1@AEAU?$pair@QEAVIsolate@v8@@V?$queue@PEAVTask@v8@@V?$deque@PEAVTask@v8@@V?$allocator@PEAVTask@v8@@@std@@@std@@@std@@@1@PEAU?$_Tree_node@U?$pair@QEAVIsolate@v8@@V?$queue@PEAVTask@v8@@V?$deque@PEAVTask@v8@@V?$allocator@PEAVTask@v8@@@std@@@std@@@std@@@std@@PEAX@1@@Z 0000000180015280     v8_libplatform:default-platform.obj
 0002:000052a8       $unwind$?catch$0@?0???$_Insert_hint@AEAU?$pair@QEAVIsolate@v8@@V?$queue@PEAVTask@v8@@V?$deque@PEAVTask@v8@@V?$allocator@PEAVTask@v8@@@std@@@std@@@std@@@std@@PEAU?$_Tree_node@U?$pair@QEAVIsolate@v8@@V?$queue@PEAVTask@v8@@V?$deque@PEAVTask@v8@@V?$allocator@PEAVTask@v8@@@std@@@std@@@std@@@std@@PEAX@2@@?$_Tree@V?$_Tmap_traits@PEAVIsolate@v8@@V?$queue@PEAVTask@v8@@V?$deque@PEAVTask@v8@@V?$allocator@PEAVTask@v8@@@std@@@std@@@std@@U?$less@PEAVIsolate@v8@@@4@V?$allocator@U?$pair@QEAVIsolate@v8@@V?$queue@PEAVTask@v8@@V?$deque@PEAVTask@v8@@V?$allocator@PEAVTask@v8@@@std@@@std@@@std@@@std@@@4@$0A@@std@@@std@@IEAA?AV?$_Tree_iterator@V?$_Tree_val@U?$_Tree_simple_types@U?$pair@QEAVIsolate@v8@@V?$queue@PEAVTask@v8@@V?$deque@PEAVTask@v8@@V?$allocator@PEAVTask@v8@@@std@@@std@@@std@@@std@@@std@@@std@@@1@V?$_Tree_const_iterator@V?$_Tree_val@U?$_Tree_simple_types@U?$pair@QEAVIsolate@v8@@V?$queue@PEAVTask@v8@@V?$deque@PEAVTask@v8@@V?$allocator@PEAVTask@v8@@@std@@@std@@@std@@@std@@@std@@@std@@@1@AEAU?$pair@QEAVIsolate@v8@@V?$queue@PEAVTask@v8@@V?$deque@PEAVTask@v8@@V?$allocator@PEAVTask@v8@@@std@@@std@@@std@@@1@PEAU?$_Tree_node@U?$pair@QEAVIsolate@v8@@V?$queue@PEAVTask@v8@@V?$deque@PEAVTask@v8@@V?$allocator@PEAVTask@v8@@@std@@@std@@@std@@@std@@PEAX@1@@Z@4HA 00000001800152a8     v8_libplatform:default-platform.obj
 0002:000052b8       $unwind$?_Buynode0@?$_Tree_buy@U?$pair@QEAVIsolate@v8@@V?$queue@PEAVTask@v8@@V?$deque@PEAVTask@v8@@V?$allocator@PEAVTask@v8@@@std@@@std@@@std@@@std@@V?$allocator@U?$pair@QEAVIsolate@v8@@V?$queue@PEAVTask@v8@@V?$deque@PEAVTask@v8@@V?$allocator@PEAVTask@v8@@@std@@@std@@@std@@@std@@@2@@std@@QEAAPEAU?$_Tree_node@U?$pair@QEAVIsolate@v8@@V?$queue@PEAVTask@v8@@V?$deque@PEAVTask@v8@@V?$allocator@PEAVTask@v8@@@std@@@std@@@std@@@std@@PEAX@2@XZ 00000001800152b8     v8_libplatform:default-platform.obj
 0002:000052c8       $tryMap$?_Buynode0@?$_Tree_buy@U?$pair@QEAVIsolate@v8@@V?$queue@PEAVTask@v8@@V?$deque@PEAVTask@v8@@V?$allocator@PEAVTask@v8@@@std@@@std@@@std@@@std@@V?$allocator@U?$pair@QEAVIsolate@v8@@V?$queue@PEAVTask@v8@@V?$deque@PEAVTask@v8@@V?$allocator@PEAVTask@v8@@@std@@@std@@@std@@@std@@@2@@std@@QEAAPEAU?$_Tree_node@U?$pair@QEAVIsolate@v8@@V?$queue@PEAVTask@v8@@V?$deque@PEAVTask@v8@@V?$allocator@PEAVTask@v8@@@std@@@std@@@std@@@std@@PEAX@2@XZ 00000001800152c8     v8_libplatform:default-platform.obj
 0002:000052dc       $handlerMap$0$?_Buynode0@?$_Tree_buy@U?$pair@QEAVIsolate@v8@@V?$queue@PEAVTask@v8@@V?$deque@PEAVTask@v8@@V?$allocator@PEAVTask@v8@@@std@@@std@@@std@@@std@@V?$allocator@U?$pair@QEAVIsolate@v8@@V?$queue@PEAVTask@v8@@V?$deque@PEAVTask@v8@@V?$allocator@PEAVTask@v8@@@std@@@std@@@std@@@std@@@2@@std@@QEAAPEAU?$_Tree_node@U?$pair@QEAVIsolate@v8@@V?$queue@PEAVTask@v8@@V?$deque@PEAVTask@v8@@V?$allocator@PEAVTask@v8@@@std@@@std@@@std@@@std@@PEAX@2@XZ 00000001800152dc     v8_libplatform:default-platform.obj
 0002:000052f0       $ip2state$?_Buynode0@?$_Tree_buy@U?$pair@QEAVIsolate@v8@@V?$queue@PEAVTask@v8@@V?$deque@PEAVTask@v8@@V?$allocator@PEAVTask@v8@@@std@@@std@@@std@@@std@@V?$allocator@U?$pair@QEAVIsolate@v8@@V?$queue@PEAVTask@v8@@V?$deque@PEAVTask@v8@@V?$allocator@PEAVTask@v8@@@std@@@std@@@std@@@std@@@2@@std@@QEAAPEAU?$_Tree_node@U?$pair@QEAVIsolate@v8@@V?$queue@PEAVTask@v8@@V?$deque@PEAVTask@v8@@V?$allocator@PEAVTask@v8@@@std@@@std@@@std@@@std@@PEAX@2@XZ 00000001800152f0     v8_libplatform:default-platform.obj
 0002:00005318       $unwind$?catch$0@?0??_Buynode0@?$_Tree_buy@U?$pair@QEAVIsolate@v8@@V?$queue@PEAVTask@v8@@V?$deque@PEAVTask@v8@@V?$allocator@PEAVTask@v8@@@std@@@std@@@std@@@std@@V?$allocator@U?$pair@QEAVIsolate@v8@@V?$queue@PEAVTask@v8@@V?$deque@PEAVTask@v8@@V?$allocator@PEAVTask@v8@@@std@@@std@@@std@@@std@@@2@@std@@QEAAPEAU?$_Tree_node@U?$pair@QEAVIsolate@v8@@V?$queue@PEAVTask@v8@@V?$deque@PEAVTask@v8@@V?$allocator@PEAVTask@v8@@@std@@@std@@@std@@@std@@PEAX@2@XZ@4HA 0000000180015318     v8_libplatform:default-platform.obj
 0002:00005328       $chain$0$??$_Insert_at@AEAU?$pair@QEAVIsolate@v8@@V?$queue@PEAVTask@v8@@V?$deque@PEAVTask@v8@@V?$allocator@PEAVTask@v8@@@std@@@std@@@std@@@std@@PEAU?$_Tree_node@U?$pair@QEAVIsolate@v8@@V?$queue@PEAVTask@v8@@V?$deque@PEAVTask@v8@@V?$allocator@PEAVTask@v8@@@std@@@std@@@std@@@std@@PEAX@2@@?$_Tree@V?$_Tmap_traits@PEAVIsolate@v8@@V?$queue@PEAVTask@v8@@V?$deque@PEAVTask@v8@@V?$allocator@PEAVTask@v8@@@std@@@std@@@std@@U?$less@PEAVIsolate@v8@@@4@V?$allocator@U?$pair@QEAVIsolate@v8@@V?$queue@PEAVTask@v8@@V?$deque@PEAVTask@v8@@V?$allocator@PEAVTask@v8@@@std@@@std@@@std@@@std@@@4@$0A@@std@@@std@@IEAA?AV?$_Tree_iterator@V?$_Tree_val@U?$_Tree_simple_types@U?$pair@QEAVIsolate@v8@@V?$queue@PEAVTask@v8@@V?$deque@PEAVTask@v8@@V?$allocator@PEAVTask@v8@@@std@@@std@@@std@@@std@@@std@@@std@@@1@_NPEAU?$_Tree_node@U?$pair@QEAVIsolate@v8@@V?$queue@PEAVTask@v8@@V?$deque@PEAVTask@v8@@V?$allocator@PEAVTask@v8@@@std@@@std@@@std@@@std@@PEAX@1@AEAU?$pair@QEAVIsolate@v8@@V?$queue@PEAVTask@v8@@V?$deque@PEAVTask@v8@@V?$allocator@PEAVTask@v8@@@std@@@std@@@std@@@1@1@Z 0000000180015328     v8_libplatform:default-platform.obj
 0002:0000533c       $chain$1$??$_Insert_at@AEAU?$pair@QEAVIsolate@v8@@V?$queue@PEAVTask@v8@@V?$deque@PEAVTask@v8@@V?$allocator@PEAVTask@v8@@@std@@@std@@@std@@@std@@PEAU?$_Tree_node@U?$pair@QEAVIsolate@v8@@V?$queue@PEAVTask@v8@@V?$deque@PEAVTask@v8@@V?$allocator@PEAVTask@v8@@@std@@@std@@@std@@@std@@PEAX@2@@?$_Tree@V?$_Tmap_traits@PEAVIsolate@v8@@V?$queue@PEAVTask@v8@@V?$deque@PEAVTask@v8@@V?$allocator@PEAVTask@v8@@@std@@@std@@@std@@U?$less@PEAVIsolate@v8@@@4@V?$allocator@U?$pair@QEAVIsolate@v8@@V?$queue@PEAVTask@v8@@V?$deque@PEAVTask@v8@@V?$allocator@PEAVTask@v8@@@std@@@std@@@std@@@std@@@4@$0A@@std@@@std@@IEAA?AV?$_Tree_iterator@V?$_Tree_val@U?$_Tree_simple_types@U?$pair@QEAVIsolate@v8@@V?$queue@PEAVTask@v8@@V?$deque@PEAVTask@v8@@V?$allocator@PEAVTask@v8@@@std@@@std@@@std@@@std@@@std@@@std@@@1@_NPEAU?$_Tree_node@U?$pair@QEAVIsolate@v8@@V?$queue@PEAVTask@v8@@V?$deque@PEAVTask@v8@@V?$allocator@PEAVTask@v8@@@std@@@std@@@std@@@std@@PEAX@1@AEAU?$pair@QEAVIsolate@v8@@V?$queue@PEAVTask@v8@@V?$deque@PEAVTask@v8@@V?$allocator@PEAVTask@v8@@@std@@@std@@@std@@@1@1@Z 000000018001533c     v8_libplatform:default-platform.obj
 0002:0000534c       $unwind$??$_Insert_nohint@AEAU?$pair@QEAVIsolate@v8@@V?$queue@PEAVTask@v8@@V?$deque@PEAVTask@v8@@V?$allocator@PEAVTask@v8@@@std@@@std@@@std@@@std@@PEAU?$_Tree_node@U?$pair@QEAVIsolate@v8@@V?$queue@PEAVTask@v8@@V?$deque@PEAVTask@v8@@V?$allocator@PEAVTask@v8@@@std@@@std@@@std@@@std@@PEAX@2@@?$_Tree@V?$_Tmap_traits@PEAVIsolate@v8@@V?$queue@PEAVTask@v8@@V?$deque@PEAVTask@v8@@V?$allocator@PEAVTask@v8@@@std@@@std@@@std@@U?$less@PEAVIsolate@v8@@@4@V?$allocator@U?$pair@QEAVIsolate@v8@@V?$queue@PEAVTask@v8@@V?$deque@PEAVTask@v8@@V?$allocator@PEAVTask@v8@@@std@@@std@@@std@@@std@@@4@$0A@@std@@@std@@IEAA?AU?$pair@V?$_Tree_iterator@V?$_Tree_val@U?$_Tree_simple_types@U?$pair@QEAVIsolate@v8@@V?$queue@PEAVTask@v8@@V?$deque@PEAVTask@v8@@V?$allocator@PEAVTask@v8@@@std@@@std@@@std@@@std@@@std@@@std@@@std@@_N@1@_NAEAU?$pair@QEAVIsolate@v8@@V?$queue@PEAVTask@v8@@V?$deque@PEAVTask@v8@@V?$allocator@PEAVTask@v8@@@std@@@std@@@std@@@1@PEAU?$_Tree_node@U?$pair@QEAVIsolate@v8@@V?$queue@PEAVTask@v8@@V?$deque@PEAVTask@v8@@V?$allocator@PEAVTask@v8@@@std@@@std@@@std@@@std@@PEAX@1@@Z 000000018001534c     v8_libplatform:default-platform.obj
 0002:00005368       $tryMap$??$_Insert_nohint@AEAU?$pair@QEAVIsolate@v8@@V?$queue@PEAVTask@v8@@V?$deque@PEAVTask@v8@@V?$allocator@PEAVTask@v8@@@std@@@std@@@std@@@std@@PEAU?$_Tree_node@U?$pair@QEAVIsolate@v8@@V?$queue@PEAVTask@v8@@V?$deque@PEAVTask@v8@@V?$allocator@PEAVTask@v8@@@std@@@std@@@std@@@std@@PEAX@2@@?$_Tree@V?$_Tmap_traits@PEAVIsolate@v8@@V?$queue@PEAVTask@v8@@V?$deque@PEAVTask@v8@@V?$allocator@PEAVTask@v8@@@std@@@std@@@std@@U?$less@PEAVIsolate@v8@@@4@V?$allocator@U?$pair@QEAVIsolate@v8@@V?$queue@PEAVTask@v8@@V?$deque@PEAVTask@v8@@V?$allocator@PEAVTask@v8@@@std@@@std@@@std@@@std@@@4@$0A@@std@@@std@@IEAA?AU?$pair@V?$_Tree_iterator@V?$_Tree_val@U?$_Tree_simple_types@U?$pair@QEAVIsolate@v8@@V?$queue@PEAVTask@v8@@V?$deque@PEAVTask@v8@@V?$allocator@PEAVTask@v8@@@std@@@std@@@std@@@std@@@std@@@std@@@std@@_N@1@_NAEAU?$pair@QEAVIsolate@v8@@V?$queue@PEAVTask@v8@@V?$deque@PEAVTask@v8@@V?$allocator@PEAVTask@v8@@@std@@@std@@@std@@@1@PEAU?$_Tree_node@U?$pair@QEAVIsolate@v8@@V?$queue@PEAVTask@v8@@V?$deque@PEAVTask@v8@@V?$allocator@PEAVTask@v8@@@std@@@std@@@std@@@std@@PEAX@1@@Z 0000000180015368     v8_libplatform:default-platform.obj
 0002:0000537c       $handlerMap$0$??$_Insert_nohint@AEAU?$pair@QEAVIsolate@v8@@V?$queue@PEAVTask@v8@@V?$deque@PEAVTask@v8@@V?$allocator@PEAVTask@v8@@@std@@@std@@@std@@@std@@PEAU?$_Tree_node@U?$pair@QEAVIsolate@v8@@V?$queue@PEAVTask@v8@@V?$deque@PEAVTask@v8@@V?$allocator@PEAVTask@v8@@@std@@@std@@@std@@@std@@PEAX@2@@?$_Tree@V?$_Tmap_traits@PEAVIsolate@v8@@V?$queue@PEAVTask@v8@@V?$deque@PEAVTask@v8@@V?$allocator@PEAVTask@v8@@@std@@@std@@@std@@U?$less@PEAVIsolate@v8@@@4@V?$allocator@U?$pair@QEAVIsolate@v8@@V?$queue@PEAVTask@v8@@V?$deque@PEAVTask@v8@@V?$allocator@PEAVTask@v8@@@std@@@std@@@std@@@std@@@4@$0A@@std@@@std@@IEAA?AU?$pair@V?$_Tree_iterator@V?$_Tree_val@U?$_Tree_simple_types@U?$pair@QEAVIsolate@v8@@V?$queue@PEAVTask@v8@@V?$deque@PEAVTask@v8@@V?$allocator@PEAVTask@v8@@@std@@@std@@@std@@@std@@@std@@@std@@@std@@_N@1@_NAEAU?$pair@QEAVIsolate@v8@@V?$queue@PEAVTask@v8@@V?$deque@PEAVTask@v8@@V?$allocator@PEAVTask@v8@@@std@@@std@@@std@@@1@PEAU?$_Tree_node@U?$pair@QEAVIsolate@v8@@V?$queue@PEAVTask@v8@@V?$deque@PEAVTask@v8@@V?$allocator@PEAVTask@v8@@@std@@@std@@@std@@@std@@PEAX@1@@Z 000000018001537c     v8_libplatform:default-platform.obj
 0002:00005390       $ip2state$??$_Insert_nohint@AEAU?$pair@QEAVIsolate@v8@@V?$queue@PEAVTask@v8@@V?$deque@PEAVTask@v8@@V?$allocator@PEAVTask@v8@@@std@@@std@@@std@@@std@@PEAU?$_Tree_node@U?$pair@QEAVIsolate@v8@@V?$queue@PEAVTask@v8@@V?$deque@PEAVTask@v8@@V?$allocator@PEAVTask@v8@@@std@@@std@@@std@@@std@@PEAX@2@@?$_Tree@V?$_Tmap_traits@PEAVIsolate@v8@@V?$queue@PEAVTask@v8@@V?$deque@PEAVTask@v8@@V?$allocator@PEAVTask@v8@@@std@@@std@@@std@@U?$less@PEAVIsolate@v8@@@4@V?$allocator@U?$pair@QEAVIsolate@v8@@V?$queue@PEAVTask@v8@@V?$deque@PEAVTask@v8@@V?$allocator@PEAVTask@v8@@@std@@@std@@@std@@@std@@@4@$0A@@std@@@std@@IEAA?AU?$pair@V?$_Tree_iterator@V?$_Tree_val@U?$_Tree_simple_types@U?$pair@QEAVIsolate@v8@@V?$queue@PEAVTask@v8@@V?$deque@PEAVTask@v8@@V?$allocator@PEAVTask@v8@@@std@@@std@@@std@@@std@@@std@@@std@@@std@@_N@1@_NAEAU?$pair@QEAVIsolate@v8@@V?$queue@PEAVTask@v8@@V?$deque@PEAVTask@v8@@V?$allocator@PEAVTask@v8@@@std@@@std@@@std@@@1@PEAU?$_Tree_node@U?$pair@QEAVIsolate@v8@@V?$queue@PEAVTask@v8@@V?$deque@PEAVTask@v8@@V?$allocator@PEAVTask@v8@@@std@@@std@@@std@@@std@@PEAX@1@@Z 0000000180015390     v8_libplatform:default-platform.obj
 0002:000053a8       $unwind$?catch$0@?0???$_Insert_nohint@AEAU?$pair@QEAVIsolate@v8@@V?$queue@PEAVTask@v8@@V?$deque@PEAVTask@v8@@V?$allocator@PEAVTask@v8@@@std@@@std@@@std@@@std@@PEAU?$_Tree_node@U?$pair@QEAVIsolate@v8@@V?$queue@PEAVTask@v8@@V?$deque@PEAVTask@v8@@V?$allocator@PEAVTask@v8@@@std@@@std@@@std@@@std@@PEAX@2@@?$_Tree@V?$_Tmap_traits@PEAVIsolate@v8@@V?$queue@PEAVTask@v8@@V?$deque@PEAVTask@v8@@V?$allocator@PEAVTask@v8@@@std@@@std@@@std@@U?$less@PEAVIsolate@v8@@@4@V?$allocator@U?$pair@QEAVIsolate@v8@@V?$queue@PEAVTask@v8@@V?$deque@PEAVTask@v8@@V?$allocator@PEAVTask@v8@@@std@@@std@@@std@@@std@@@4@$0A@@std@@@std@@IEAA?AU?$pair@V?$_Tree_iterator@V?$_Tree_val@U?$_Tree_simple_types@U?$pair@QEAVIsolate@v8@@V?$queue@PEAVTask@v8@@V?$deque@PEAVTask@v8@@V?$allocator@PEAVTask@v8@@@std@@@std@@@std@@@std@@@std@@@std@@@std@@_N@1@_NAEAU?$pair@QEAVIsolate@v8@@V?$queue@PEAVTask@v8@@V?$deque@PEAVTask@v8@@V?$allocator@PEAVTask@v8@@@std@@@std@@@std@@@1@PEAU?$_Tree_node@U?$pair@QEAVIsolate@v8@@V?$queue@PEAVTask@v8@@V?$deque@PEAVTask@v8@@V?$allocator@PEAVTask@v8@@@std@@@std@@@std@@@std@@PEAX@1@@Z@4HA 00000001800153a8     v8_libplatform:default-platform.obj
 0002:000053b8       $unwind$??0TaskQueue@platform@v8@@QEAA@XZ 00000001800153b8     v8_libplatform:task-queue.obj
 0002:000053cc       $stateUnwindMap$??0TaskQueue@platform@v8@@QEAA@XZ 00000001800153cc     v8_libplatform:task-queue.obj
 0002:000053f8       $ip2state$??0TaskQueue@platform@v8@@QEAA@XZ 00000001800153f8     v8_libplatform:task-queue.obj
 0002:00005420       $unwind$?Run@WorkerThread@platform@v8@@UEAAXXZ 0000000180015420     v8_libplatform:worker-thread.obj
 0002:00005438       $xdatasym                  0000000180015438     MSVCRT:amdsecgs.obj
 0002:0000543c       $unwind$_onexit            000000018001543c     MSVCRT:atonexit.obj
 0002:0000545c       $unwind$_CRT_INIT          000000018001545c     MSVCRT:crtdll.obj
 0002:00005478       $unwind$__DllMainCRTStartup 0000000180015478     MSVCRT:crtdll.obj
 0002:000054b4       $unwind$__report_gsfailure 00000001800154b4     MSVCRT:gs_report.obj
 0002:000054bc       $unwind$??_M@YAXPEAX_KHP6AX0@Z@Z 00000001800154bc     MSVCRT:ehvecdtr.obj
 0002:000054e4       $unwind$?__ArrayUnwind@@YAXPEAX_KHP6AX0@Z@Z 00000001800154e4     MSVCRT:ehvecdtr.obj
 0002:0000550c       $unwind$_IsNonwritableInCurrentImage 000000018001550c     MSVCRT:pesect.obj
 0002:00005530       $unwind$__security_init_cookie 0000000180015530     MSVCRT:gs_support.obj
 0002:000055a0       .edata                     00000001800155a0     V8_Net_Proxy_x64.exp
 0002:000055c8       rgpv                       00000001800155c8     V8_Net_Proxy_x64.exp
 0002:000056b8       rgszName                   00000001800156b8     V8_Net_Proxy_x64.exp
 0002:000057a8       rgwOrd                     00000001800157a8     V8_Net_Proxy_x64.exp
 0002:00005820       szName                     0000000180015820     V8_Net_Proxy_x64.exp
 0002:00005835       $N00001                    0000000180015835     V8_Net_Proxy_x64.exp
 0002:0000583a       $N00002                    000000018001583a     V8_Net_Proxy_x64.exp
 0002:00005848       $N00003                    0000000180015848     V8_Net_Proxy_x64.exp
 0002:00005854       $N00004                    0000000180015854     V8_Net_Proxy_x64.exp
 0002:00005862       $N00005                    0000000180015862     V8_Net_Proxy_x64.exp
 0002:0000586d       $N00006                    000000018001586d     V8_Net_Proxy_x64.exp
 0002:00005879       $N00007                    0000000180015879     V8_Net_Proxy_x64.exp
 0002:00005890       $N00008                    0000000180015890     V8_Net_Proxy_x64.exp
 0002:000058ac       $N00009                    00000001800158ac     V8_Net_Proxy_x64.exp
 0002:000058cc       $N00010                    00000001800158cc     V8_Net_Proxy_x64.exp
 0002:000058e2       $N00011                    00000001800158e2     V8_Net_Proxy_x64.exp
 0002:000058f0       $N00012                    00000001800158f0     V8_Net_Proxy_x64.exp
 0002:00005900       $N00013                    0000000180015900     V8_Net_Proxy_x64.exp
 0002:0000590d       $N00014                    000000018001590d     V8_Net_Proxy_x64.exp
 0002:0000591a       $N00015                    000000018001591a     V8_Net_Proxy_x64.exp
 0002:00005933       $N00016                    0000000180015933     V8_Net_Proxy_x64.exp
 0002:0000594d       $N00017                    000000018001594d     V8_Net_Proxy_x64.exp
 0002:0000596b       $N00018                    000000018001596b     V8_Net_Proxy_x64.exp
 0002:00005978       $N00019                    0000000180015978     V8_Net_Proxy_x64.exp
 0002:0000598a       $N00020                    000000018001598a     V8_Net_Proxy_x64.exp
 0002:0000599e       $N00021                    000000018001599e     V8_Net_Proxy_x64.exp
 0002:000059b6       $N00022                    00000001800159b6     V8_Net_Proxy_x64.exp
 0002:000059d2       $N00023                    00000001800159d2     V8_Net_Proxy_x64.exp
 0002:000059ee       $N00024                    00000001800159ee     V8_Net_Proxy_x64.exp
 0002:00005a09       $N00025                    0000000180015a09     V8_Net_Proxy_x64.exp
 0002:00005a23       $N00026                    0000000180015a23     V8_Net_Proxy_x64.exp
 0002:00005a32       $N00027                    0000000180015a32     V8_Net_Proxy_x64.exp
 0002:00005a47       $N00028                    0000000180015a47     V8_Net_Proxy_x64.exp
 0002:00005a5a       $N00029                    0000000180015a5a     V8_Net_Proxy_x64.exp
 0002:00005a6d       $N00030                    0000000180015a6d     V8_Net_Proxy_x64.exp
 0002:00005a75       $N00031                    0000000180015a75     V8_Net_Proxy_x64.exp
 0002:00005a84       $N00032                    0000000180015a84     V8_Net_Proxy_x64.exp
 0002:00005a90       $N00033                    0000000180015a90     V8_Net_Proxy_x64.exp
 0002:00005ab1       $N00034                    0000000180015ab1     V8_Net_Proxy_x64.exp
 0002:00005ad3       $N00035                    0000000180015ad3     V8_Net_Proxy_x64.exp
 0002:00005aec       $N00036                    0000000180015aec     V8_Net_Proxy_x64.exp
 0002:00005b05       $N00037                    0000000180015b05     V8_Net_Proxy_x64.exp
 0002:00005b1d       $N00038                    0000000180015b1d     V8_Net_Proxy_x64.exp
 0002:00005b30       $N00039                    0000000180015b30     V8_Net_Proxy_x64.exp
 0002:00005b44       $N00040                    0000000180015b44     V8_Net_Proxy_x64.exp
 0002:00005b5a       $N00041                    0000000180015b5a     V8_Net_Proxy_x64.exp
 0002:00005b6b       $N00042                    0000000180015b6b     V8_Net_Proxy_x64.exp
 0002:00005b7c       $N00043                    0000000180015b7c     V8_Net_Proxy_x64.exp
 0002:00005b8b       $N00044                    0000000180015b8b     V8_Net_Proxy_x64.exp
 0002:00005b9e       $N00045                    0000000180015b9e     V8_Net_Proxy_x64.exp
 0002:00005bbe       $N00046                    0000000180015bbe     V8_Net_Proxy_x64.exp
 0002:00005bd4       $N00047                    0000000180015bd4     V8_Net_Proxy_x64.exp
 0002:00005bf2       $N00048                    0000000180015bf2     V8_Net_Proxy_x64.exp
 0002:00005c0e       $N00049                    0000000180015c0e     V8_Net_Proxy_x64.exp
 0002:00005c26       $N00050                    0000000180015c26     V8_Net_Proxy_x64.exp
 0002:00005c38       $N00051                    0000000180015c38     V8_Net_Proxy_x64.exp
 0002:00005c51       $N00052                    0000000180015c51     V8_Net_Proxy_x64.exp
 0002:00005c69       $N00053                    0000000180015c69     V8_Net_Proxy_x64.exp
 0002:00005c83       $N00054                    0000000180015c83     V8_Net_Proxy_x64.exp
 0002:00005c9d       $N00055                    0000000180015c9d     V8_Net_Proxy_x64.exp
 0002:00005cbf       $N00056                    0000000180015cbf     V8_Net_Proxy_x64.exp
 0002:00005cdf       $N00057                    0000000180015cdf     V8_Net_Proxy_x64.exp
 0002:00005cf1       $N00058                    0000000180015cf1     V8_Net_Proxy_x64.exp
 0002:00005cfb       $N00059                    0000000180015cfb     V8_Net_Proxy_x64.exp
 0002:00005d05       $N00060                    0000000180015d05     V8_Net_Proxy_x64.exp
 0002:00007d9a       .idata$6                   0000000180017d9a     v8-x64:v8-x64.dll
 0002:00007dd2       .idata$6                   0000000180017dd2     kernel32:KERNEL32.dll
 0002:00007ed2       .idata$6                   0000000180017ed2     msvcprt:MSVCP120.dll
 0002:00007fb0       .idata$6                   0000000180017fb0     MSVCRT:MSVCR120.dll
 0003:00000080       __proc_attached            0000000180019080     MSVCRT:crtdll.obj
 0003:00000090       GS_ExceptionRecord         0000000180019090     MSVCRT:gs_report.obj
 0003:00000130       GS_ContextRecord           0000000180019130     MSVCRT:gs_report.obj
 0003:00000600       DebuggerWasPresent         0000000180019600     MSVCRT:gs_report.obj
 0003:00000620       _V8Initialized             0000000180019620     V8EngineProxy.obj
 0003:00000660       platform_random_number_generator 0000000180019660     v8_libbase:platform-win32.obj
 0003:00000680       output_mode                0000000180019680     v8_libbase:platform-win32.obj
 0003:000006b8       high_res_tick_clock        00000001800196b8     v8_libbase:time.obj
 0003:000006c8       entropy_source             00000001800196c8     v8_libbase:random-number-generator.obj
 0003:000006d0       tick_clock                 00000001800196d0     v8_libbase:time.obj
 0003:00000720       clock                      0000000180019720     v8_libbase:time.obj
 0003:00000770       entropy_mutex              0000000180019770     v8_libbase:random-number-generator.obj
 0003:000007b0       _Tuple_alloc               00000001800197b0     Exports.obj
 0003:000007b1       ignore                     00000001800197b1     Exports.obj
 0003:000007b2       allocator_arg              00000001800197b2     Exports.obj
 0003:000007b3       piecewise_construct        00000001800197b3     Exports.obj
 0003:000007b4       _Tuple_alloc               00000001800197b4     FunctionTemplateProxy.obj
 0003:000007b5       ignore                     00000001800197b5     FunctionTemplateProxy.obj
 0003:000007b6       allocator_arg              00000001800197b6     FunctionTemplateProxy.obj
 0003:000007b7       piecewise_construct        00000001800197b7     FunctionTemplateProxy.obj
 0003:000007b8       _Tuple_alloc               00000001800197b8     HandleProxy.obj
 0003:000007b9       ignore                     00000001800197b9     HandleProxy.obj
 0003:000007ba       allocator_arg              00000001800197ba     HandleProxy.obj
 0003:000007bb       piecewise_construct        00000001800197bb     HandleProxy.obj
 0003:000007bc       _Tuple_alloc               00000001800197bc     ObjectTemplateProxy.obj
 0003:000007bd       ignore                     00000001800197bd     ObjectTemplateProxy.obj
 0003:000007be       allocator_arg              00000001800197be     ObjectTemplateProxy.obj
 0003:000007bf       piecewise_construct        00000001800197bf     ObjectTemplateProxy.obj
 0003:000007c0       _Tuple_alloc               00000001800197c0     Utilities.obj
 0003:000007c1       ignore                     00000001800197c1     Utilities.obj
 0003:000007c2       allocator_arg              00000001800197c2     Utilities.obj
 0003:000007c3       piecewise_construct        00000001800197c3     Utilities.obj
 0003:000007c4       _Tuple_alloc               00000001800197c4     V8EngineProxy.obj
 0003:000007c5       ignore                     00000001800197c5     V8EngineProxy.obj
 0003:000007c6       allocator_arg              00000001800197c6     V8EngineProxy.obj
 0003:000007c7       piecewise_construct        00000001800197c7     V8EngineProxy.obj
 0003:000007e8       _Tuple_alloc               00000001800197e8     ValueProxy.obj
 0003:000007e9       ignore                     00000001800197e9     ValueProxy.obj
 0003:000007ea       allocator_arg              00000001800197ea     ValueProxy.obj
 0003:000007eb       piecewise_construct        00000001800197eb     ValueProxy.obj
 0003:000007ec       _Tuple_alloc               00000001800197ec     v8_libplatform:default-platform.obj
 0003:000007ed       ignore                     00000001800197ed     v8_libplatform:default-platform.obj
 0003:000007ee       allocator_arg              00000001800197ee     v8_libplatform:default-platform.obj
 0003:000007ef       piecewise_construct        00000001800197ef     v8_libplatform:default-platform.obj
 0003:000007f0       allocator_arg              00000001800197f0     v8_libplatform:task-queue.obj
 0003:000007f1       piecewise_construct        00000001800197f1     v8_libplatform:task-queue.obj
 0003:000007f2       allocator_arg              00000001800197f2     v8_libplatform:worker-thread.obj
 0003:000007f3       piecewise_construct        00000001800197f3     v8_libplatform:worker-thread.obj
 0003:000007f4       allocator_arg              00000001800197f4     v8_libbase:platform-win32.obj
 0003:000007f5       piecewise_construct        00000001800197f5     v8_libbase:platform-win32.obj
 0003:000007f6       allocator_arg              00000001800197f6     v8_libbase:time.obj
 0003:000007f7       piecewise_construct        00000001800197f7     v8_libbase:time.obj
 0003:000007f8       allocator_arg              00000001800197f8     v8_libbase:cpu.obj
 0003:000007f9       piecewise_construct        00000001800197f9     v8_libbase:cpu.obj
 0004:00000000       $pdata$??__E?_DisposedEngines@V8EngineProxy@@1V?$vector@_NV?$allocator@_N@std@@@std@@A@@YAXXZ 000000018001a000     V8EngineProxy.obj
 0004:0000000c       $pdata$CreateV8EngineProxy 000000018001a00c     Exports.obj
 0004:00000018       $pdata$DestroyV8EngineProxy 000000018001a018     Exports.obj
 0004:00000024       $pdata$RegisterGCCallback  000000018001a024     Exports.obj
 0004:00000030       $pdata$ForceGC             000000018001a030     Exports.obj
 0004:0000003c       $pdata$V8Execute           000000018001a03c     Exports.obj
 0004:00000048       $pdata$V8Compile           000000018001a048     Exports.obj
 0004:00000054       $pdata$V8ExecuteCompiledScript 000000018001a054     Exports.obj
 0004:00000060       $pdata$CreateObjectTemplateProxy 000000018001a060     Exports.obj
 0004:0000006c       $pdata$DeleteObjectTemplateProxy 000000018001a06c     Exports.obj
 0004:00000078       $pdata$SetGlobalObjectTemplate 000000018001a078     Exports.obj
 0004:00000084       $pdata$RegisterNamedPropertyHandlers 000000018001a084     Exports.obj
 0004:00000090       $pdata$RegisterIndexedPropertyHandlers 000000018001a090     Exports.obj
 0004:0000009c       $pdata$UnregisterNamedPropertyHandlers 000000018001a09c     Exports.obj
 0004:000000a8       $pdata$UnregisterIndexedPropertyHandlers 000000018001a0a8     Exports.obj
 0004:000000b4       $pdata$RegisterInvokeHandler 000000018001a0b4     Exports.obj
 0004:000000c0       $pdata$CreateObjectFromTemplate 000000018001a0c0     Exports.obj
 0004:000000cc       $pdata$ConnectObject       000000018001a0cc     Exports.obj
 0004:000000d8       $pdata$GetObjectPrototype  000000018001a0d8     Exports.obj
 0004:000000e4       $pdata$Call                000000018001a0e4     Exports.obj
 0004:000000f0       $pdata$SetObjectPropertyByName 000000018001a0f0     Exports.obj
 0004:000000fc       $pdata$SetObjectPropertyByIndex 000000018001a0fc     Exports.obj
 0004:00000108       $pdata$GetObjectPropertyByName 000000018001a108     Exports.obj
 0004:00000114       $pdata$GetObjectPropertyByIndex 000000018001a114     Exports.obj
 0004:00000120       $pdata$DeleteObjectPropertyByName 000000018001a120     Exports.obj
 0004:0000012c       $pdata$DeleteObjectPropertyByIndex 000000018001a12c     Exports.obj
 0004:00000138       $pdata$SetObjectAccessor   000000018001a138     Exports.obj
 0004:00000144       $pdata$SetObjectTemplateAccessor 000000018001a144     Exports.obj
 0004:00000150       $pdata$SetObjectTemplateProperty 000000018001a150     Exports.obj
 0004:0000015c       $pdata$GetPropertyNames    000000018001a15c     Exports.obj
 0004:00000168       $pdata$GetOwnPropertyNames 000000018001a168     Exports.obj
 0004:00000174       $pdata$GetPropertyAttributes 000000018001a174     Exports.obj
 0004:00000180       $pdata$GetArrayLength      000000018001a180     Exports.obj
 0004:0000018c       $pdata$CreateFunctionTemplateProxy 000000018001a18c     Exports.obj
 0004:00000198       $pdata$DeleteFunctionTemplateProxy 000000018001a198     Exports.obj
 0004:000001a4       $pdata$GetFunctionInstanceTemplateProxy 000000018001a1a4     Exports.obj
 0004:000001b0       $pdata$GetFunctionPrototypeTemplateProxy 000000018001a1b0     Exports.obj
 0004:000001bc       $pdata$GetFunction         000000018001a1bc     Exports.obj
 0004:000001c8       $pdata$CreateFunctionInstance 000000018001a1c8     Exports.obj
 0004:000001d4       $pdata$SetFunctionTemplateProperty 000000018001a1d4     Exports.obj
 0004:000001e0       $pdata$CreateBoolean       000000018001a1e0     Exports.obj
 0004:000001ec       $pdata$CreateInteger       000000018001a1ec     Exports.obj
 0004:000001f8       $pdata$CreateNumber        000000018001a1f8     Exports.obj
 0004:00000204       $pdata$CreateString        000000018001a204     Exports.obj
 0004:00000210       $pdata$CreateDate          000000018001a210     Exports.obj
 0004:0000021c       $pdata$CreateObject        000000018001a21c     Exports.obj
 0004:00000228       $pdata$CreateArray         000000018001a228     Exports.obj
 0004:00000234       $pdata$CreateStringArray   000000018001a234     Exports.obj
 0004:00000240       $pdata$CreateNullValue     000000018001a240     Exports.obj
 0004:0000024c       $pdata$CreateError         000000018001a24c     Exports.obj
 0004:00000258       $pdata$MakeWeakHandle      000000018001a258     Exports.obj
 0004:00000264       $pdata$MakeStrongHandle    000000018001a264     Exports.obj
 0004:00000270       $pdata$DisposeHandleProxy  000000018001a270     Exports.obj
 0004:0000027c       $pdata$UpdateHandleValue   000000018001a27c     Exports.obj
 0004:00000288       $pdata$GetHandleManagedObjectID 000000018001a288     Exports.obj
 0004:00000294       $pdata$CreateHandleProxyTest 000000018001a294     Exports.obj
 0004:000002a0       $pdata$CreateV8EngineProxyTest 000000018001a2a0     Exports.obj
 0004:000002ac       $pdata$CreateObjectTemplateProxyTest 000000018001a2ac     Exports.obj
 0004:000002b8       $pdata$CreateFunctionTemplateProxyTest 000000018001a2b8     Exports.obj
 0004:000002c4       $pdata$DeleteTestData      000000018001a2c4     Exports.obj
 0004:000002d0       $pdata$??0FunctionTemplateProxy@@QEAA@PEAVV8EngineProxy@@PEAGP6APEAUHandleProxy@@H_NPEAU2@PEAPEAU2@I@Z@Z 000000018001a2d0     FunctionTemplateProxy.obj
 0004:000002dc       $pdata$??1FunctionTemplateProxy@@QEAA@XZ 000000018001a2dc     FunctionTemplateProxy.obj
 0004:000002e8       $pdata$?InvocationCallbackProxy@FunctionTemplateProxy@@SAXAEBV?$FunctionCallbackInfo@VValue@v8@@@v8@@@Z 000000018001a2e8     FunctionTemplateProxy.obj
 0004:000002f4       $pdata$0$?InvocationCallbackProxy@FunctionTemplateProxy@@SAXAEBV?$FunctionCallbackInfo@VValue@v8@@@v8@@@Z 000000018001a2f4     FunctionTemplateProxy.obj
 0004:00000300       $pdata$5$?InvocationCallbackProxy@FunctionTemplateProxy@@SAXAEBV?$FunctionCallbackInfo@VValue@v8@@@v8@@@Z 000000018001a300     FunctionTemplateProxy.obj
 0004:0000030c       $pdata$6$?InvocationCallbackProxy@FunctionTemplateProxy@@SAXAEBV?$FunctionCallbackInfo@VValue@v8@@@v8@@@Z 000000018001a30c     FunctionTemplateProxy.obj
 0004:00000318       $pdata$7$?InvocationCallbackProxy@FunctionTemplateProxy@@SAXAEBV?$FunctionCallbackInfo@VValue@v8@@@v8@@@Z 000000018001a318     FunctionTemplateProxy.obj
 0004:00000324       $pdata$8$?InvocationCallbackProxy@FunctionTemplateProxy@@SAXAEBV?$FunctionCallbackInfo@VValue@v8@@@v8@@@Z 000000018001a324     FunctionTemplateProxy.obj
 0004:00000330       $pdata$9$?InvocationCallbackProxy@FunctionTemplateProxy@@SAXAEBV?$FunctionCallbackInfo@VValue@v8@@@v8@@@Z 000000018001a330     FunctionTemplateProxy.obj
 0004:0000033c       $pdata$?CreateInstance@FunctionTemplateProxy@@QEAAPEAUHandleProxy@@HHPEAPEAU2@@Z 000000018001a33c     FunctionTemplateProxy.obj
 0004:00000348       $pdata$?Set@FunctionTemplateProxy@@QEAAXPEBGPEAUHandleProxy@@W4PropertyAttribute@v8@@@Z 000000018001a348     FunctionTemplateProxy.obj
 0004:00000354       $pdata$??1?$CopyablePersistent@VScript@v8@@@@QEAA@XZ 000000018001a354     HandleProxy.obj
 0004:00000354       $pdata$??1?$CopyablePersistent@VFunctionTemplate@v8@@@@QEAA@XZ 000000018001a354     FunctionTemplateProxy.obj
 0004:00000354       $pdata$??1?$CopyablePersistent@VObject@v8@@@@QEAA@XZ 000000018001a354     V8EngineProxy.obj
 0004:00000354       $pdata$??1?$CopyablePersistent@VObjectTemplate@v8@@@@QEAA@XZ 000000018001a354     ObjectTemplateProxy.obj
 0004:00000354       $pdata$??1?$CopyablePersistent@VContext@v8@@@@QEAA@XZ 000000018001a354     V8EngineProxy.obj
 0004:00000354       $pdata$??1?$CopyablePersistent@VValue@v8@@@@QEAA@XZ 000000018001a354     HandleProxy.obj
 0004:00000360       $pdata$??1?$Persistent@VObjectTemplate@v8@@U?$CopyablePersistentTraits@VObjectTemplate@v8@@@2@@v8@@QEAA@XZ 000000018001a360     ObjectTemplateProxy.obj
 0004:00000360       $pdata$??1?$Persistent@VObject@v8@@U?$CopyablePersistentTraits@VObject@v8@@@2@@v8@@QEAA@XZ 000000018001a360     V8EngineProxy.obj
 0004:00000360       $pdata$??1?$Persistent@VScript@v8@@U?$CopyablePersistentTraits@VScript@v8@@@2@@v8@@QEAA@XZ 000000018001a360     HandleProxy.obj
 0004:00000360       $pdata$??1?$Persistent@VValue@v8@@U?$CopyablePersistentTraits@VValue@v8@@@2@@v8@@QEAA@XZ 000000018001a360     HandleProxy.obj
 0004:00000360       $pdata$??1?$Persistent@VFunctionTemplate@v8@@U?$CopyablePersistentTraits@VFunctionTemplate@v8@@@2@@v8@@QEAA@XZ 000000018001a360     FunctionTemplateProxy.obj
 0004:00000360       $pdata$??1?$Persistent@VContext@v8@@U?$CopyablePersistentTraits@VContext@v8@@@2@@v8@@QEAA@XZ 000000018001a360     V8EngineProxy.obj
 0004:0000036c       $pdata$??1HandleProxy@@IEAA@XZ 000000018001a36c     HandleProxy.obj
 0004:00000378       $pdata$?_Dispose@HandleProxy@@IEAA_N_N@Z 000000018001a378     HandleProxy.obj
 0004:00000384       $pdata$?_ClearHandleValue@HandleProxy@@IEAAXXZ 000000018001a384     HandleProxy.obj
 0004:00000390       $pdata$?SetHandle@HandleProxy@@IEAAPEAU1@V?$Handle@VScript@v8@@@v8@@@Z 000000018001a390     HandleProxy.obj
 0004:0000039c       $pdata$?SetHandle@HandleProxy@@IEAAPEAU1@V?$Handle@VValue@v8@@@v8@@@Z 000000018001a39c     HandleProxy.obj
 0004:000003a8       $pdata$?GetManagedObjectID@HandleProxy@@QEAAHXZ 000000018001a3a8     HandleProxy.obj
 0004:000003b4       $pdata$0$?GetManagedObjectID@HandleProxy@@QEAAHXZ 000000018001a3b4     HandleProxy.obj
 0004:000003c0       $pdata$1$?GetManagedObjectID@HandleProxy@@QEAAHXZ 000000018001a3c0     HandleProxy.obj
 0004:000003cc       $pdata$2$?GetManagedObjectID@HandleProxy@@QEAAHXZ 000000018001a3cc     HandleProxy.obj
 0004:000003d8       $pdata$3$?GetManagedObjectID@HandleProxy@@QEAAHXZ 000000018001a3d8     HandleProxy.obj
 0004:000003e4       $pdata$?_RevivableCallback@HandleProxy@@CAXAEBV?$WeakCallbackData@VValue@v8@@UHandleProxy@@@v8@@@Z 000000018001a3e4     HandleProxy.obj
 0004:000003f0       $pdata$?UpdateValue@HandleProxy@@QEAAXXZ 000000018001a3f0     HandleProxy.obj
 0004:000003fc       $pdata$2$?UpdateValue@HandleProxy@@QEAAXXZ 000000018001a3fc     HandleProxy.obj
 0004:00000408       $pdata$3$?UpdateValue@HandleProxy@@QEAAXXZ 000000018001a408     HandleProxy.obj
 0004:00000414       $pdata$??C?$CopyablePersistent@VValue@v8@@@@QEBAPEAVValue@v8@@XZ 000000018001a414     HandleProxy.obj
 0004:00000420       $pdata$??1?$lock_guard@Vrecursive_mutex@std@@@std@@QEAA@XZ 000000018001a420     HandleProxy.obj
 0004:0000042c       $pdata$??0ObjectTemplateProxy@@QEAA@PEAVV8EngineProxy@@@Z 000000018001a42c     ObjectTemplateProxy.obj
 0004:00000438       $pdata$??0ObjectTemplateProxy@@QEAA@PEAVV8EngineProxy@@V?$Local@VObjectTemplate@v8@@@v8@@@Z 000000018001a438     ObjectTemplateProxy.obj
 0004:00000444       $pdata$??1ObjectTemplateProxy@@QEAA@XZ 000000018001a444     ObjectTemplateProxy.obj
 0004:00000450       $pdata$?RegisterNamedPropertyHandlers@ObjectTemplateProxy@@QEAAXP6APEAUHandleProxy@@PEAGAEBUManagedAccessorInfo@@@ZP6APEAU2@0PEAU2@1@ZP6A?AW4PropertyAttribute@v8@@01@ZP6AH01@ZP6APEAU2@1@Z@Z 000000018001a450     ObjectTemplateProxy.obj
 0004:0000045c       $pdata$?RegisterIndexedPropertyHandlers@ObjectTemplateProxy@@QEAAXP6APEAUHandleProxy@@IAEBUManagedAccessorInfo@@@ZP6APEAU2@IPEAU2@0@ZP6A?AW4PropertyAttribute@v8@@I0@ZP6AHI0@ZP6APEAU2@0@Z@Z 000000018001a45c     ObjectTemplateProxy.obj
 0004:00000468       $pdata$?GetProperty@ObjectTemplateProxy@@SAXV?$Local@VString@v8@@@v8@@AEBV?$PropertyCallbackInfo@VValue@v8@@@3@@Z 000000018001a468     ObjectTemplateProxy.obj
 0004:00000474       $pdata$0$?GetProperty@ObjectTemplateProxy@@SAXV?$Local@VString@v8@@@v8@@AEBV?$PropertyCallbackInfo@VValue@v8@@@3@@Z 000000018001a474     ObjectTemplateProxy.obj
 0004:00000480       $pdata$2$?GetProperty@ObjectTemplateProxy@@SAXV?$Local@VString@v8@@@v8@@AEBV?$PropertyCallbackInfo@VValue@v8@@@3@@Z 000000018001a480     ObjectTemplateProxy.obj
 0004:0000048c       $pdata$4$?GetProperty@ObjectTemplateProxy@@SAXV?$Local@VString@v8@@@v8@@AEBV?$PropertyCallbackInfo@VValue@v8@@@3@@Z 000000018001a48c     ObjectTemplateProxy.obj
 0004:00000498       $pdata$6$?GetProperty@ObjectTemplateProxy@@SAXV?$Local@VString@v8@@@v8@@AEBV?$PropertyCallbackInfo@VValue@v8@@@3@@Z 000000018001a498     ObjectTemplateProxy.obj
 0004:000004a4       $pdata$7$?GetProperty@ObjectTemplateProxy@@SAXV?$Local@VString@v8@@@v8@@AEBV?$PropertyCallbackInfo@VValue@v8@@@3@@Z 000000018001a4a4     ObjectTemplateProxy.obj
 0004:000004b0       $pdata$?SetProperty@ObjectTemplateProxy@@SAXV?$Local@VString@v8@@@v8@@V?$Local@VValue@v8@@@3@AEBV?$PropertyCallbackInfo@VValue@v8@@@3@@Z 000000018001a4b0     ObjectTemplateProxy.obj
 0004:000004bc       $pdata$0$?SetProperty@ObjectTemplateProxy@@SAXV?$Local@VString@v8@@@v8@@V?$Local@VValue@v8@@@3@AEBV?$PropertyCallbackInfo@VValue@v8@@@3@@Z 000000018001a4bc     ObjectTemplateProxy.obj
 0004:000004c8       $pdata$2$?SetProperty@ObjectTemplateProxy@@SAXV?$Local@VString@v8@@@v8@@V?$Local@VValue@v8@@@3@AEBV?$PropertyCallbackInfo@VValue@v8@@@3@@Z 000000018001a4c8     ObjectTemplateProxy.obj
 0004:000004d4       $pdata$4$?SetProperty@ObjectTemplateProxy@@SAXV?$Local@VString@v8@@@v8@@V?$Local@VValue@v8@@@3@AEBV?$PropertyCallbackInfo@VValue@v8@@@3@@Z 000000018001a4d4     ObjectTemplateProxy.obj
 0004:000004e0       $pdata$6$?SetProperty@ObjectTemplateProxy@@SAXV?$Local@VString@v8@@@v8@@V?$Local@VValue@v8@@@3@AEBV?$PropertyCallbackInfo@VValue@v8@@@3@@Z 000000018001a4e0     ObjectTemplateProxy.obj
 0004:000004ec       $pdata$7$?SetProperty@ObjectTemplateProxy@@SAXV?$Local@VString@v8@@@v8@@V?$Local@VValue@v8@@@3@AEBV?$PropertyCallbackInfo@VValue@v8@@@3@@Z 000000018001a4ec     ObjectTemplateProxy.obj
 0004:000004f8       $pdata$?GetPropertyAttributes@ObjectTemplateProxy@@SAXV?$Local@VString@v8@@@v8@@AEBV?$PropertyCallbackInfo@VInteger@v8@@@3@@Z 000000018001a4f8     ObjectTemplateProxy.obj
 0004:00000504       $pdata$0$?GetPropertyAttributes@ObjectTemplateProxy@@SAXV?$Local@VString@v8@@@v8@@AEBV?$PropertyCallbackInfo@VInteger@v8@@@3@@Z 000000018001a504     ObjectTemplateProxy.obj
 0004:00000510       $pdata$2$?GetPropertyAttributes@ObjectTemplateProxy@@SAXV?$Local@VString@v8@@@v8@@AEBV?$PropertyCallbackInfo@VInteger@v8@@@3@@Z 000000018001a510     ObjectTemplateProxy.obj
 0004:0000051c       $pdata$3$?GetPropertyAttributes@ObjectTemplateProxy@@SAXV?$Local@VString@v8@@@v8@@AEBV?$PropertyCallbackInfo@VInteger@v8@@@3@@Z 000000018001a51c     ObjectTemplateProxy.obj
 0004:00000528       $pdata$?DeleteProperty@ObjectTemplateProxy@@SAXV?$Local@VString@v8@@@v8@@AEBV?$PropertyCallbackInfo@VBoolean@v8@@@3@@Z 000000018001a528     ObjectTemplateProxy.obj
 0004:00000534       $pdata$0$?DeleteProperty@ObjectTemplateProxy@@SAXV?$Local@VString@v8@@@v8@@AEBV?$PropertyCallbackInfo@VBoolean@v8@@@3@@Z 000000018001a534     ObjectTemplateProxy.obj
 0004:00000540       $pdata$2$?DeleteProperty@ObjectTemplateProxy@@SAXV?$Local@VString@v8@@@v8@@AEBV?$PropertyCallbackInfo@VBoolean@v8@@@3@@Z 000000018001a540     ObjectTemplateProxy.obj
 0004:0000054c       $pdata$3$?DeleteProperty@ObjectTemplateProxy@@SAXV?$Local@VString@v8@@@v8@@AEBV?$PropertyCallbackInfo@VBoolean@v8@@@3@@Z 000000018001a54c     ObjectTemplateProxy.obj
 0004:00000558       $pdata$?GetPropertyNames@ObjectTemplateProxy@@SAXAEBV?$PropertyCallbackInfo@VArray@v8@@@v8@@@Z 000000018001a558     ObjectTemplateProxy.obj
 0004:00000564       $pdata$0$?GetPropertyNames@ObjectTemplateProxy@@SAXAEBV?$PropertyCallbackInfo@VArray@v8@@@v8@@@Z 000000018001a564     ObjectTemplateProxy.obj
 0004:00000570       $pdata$2$?GetPropertyNames@ObjectTemplateProxy@@SAXAEBV?$PropertyCallbackInfo@VArray@v8@@@v8@@@Z 000000018001a570     ObjectTemplateProxy.obj
 0004:0000057c       $pdata$4$?GetPropertyNames@ObjectTemplateProxy@@SAXAEBV?$PropertyCallbackInfo@VArray@v8@@@v8@@@Z 000000018001a57c     ObjectTemplateProxy.obj
 0004:00000588       $pdata$6$?GetPropertyNames@ObjectTemplateProxy@@SAXAEBV?$PropertyCallbackInfo@VArray@v8@@@v8@@@Z 000000018001a588     ObjectTemplateProxy.obj
 0004:00000594       $pdata$7$?GetPropertyNames@ObjectTemplateProxy@@SAXAEBV?$PropertyCallbackInfo@VArray@v8@@@v8@@@Z 000000018001a594     ObjectTemplateProxy.obj
 0004:000005a0       $pdata$?GetProperty@ObjectTemplateProxy@@SAXIAEBV?$PropertyCallbackInfo@VValue@v8@@@v8@@@Z 000000018001a5a0     ObjectTemplateProxy.obj
 0004:000005ac       $pdata$0$?GetProperty@ObjectTemplateProxy@@SAXIAEBV?$PropertyCallbackInfo@VValue@v8@@@v8@@@Z 000000018001a5ac     ObjectTemplateProxy.obj
 0004:000005b8       $pdata$2$?GetProperty@ObjectTemplateProxy@@SAXIAEBV?$PropertyCallbackInfo@VValue@v8@@@v8@@@Z 000000018001a5b8     ObjectTemplateProxy.obj
 0004:000005c4       $pdata$4$?GetProperty@ObjectTemplateProxy@@SAXIAEBV?$PropertyCallbackInfo@VValue@v8@@@v8@@@Z 000000018001a5c4     ObjectTemplateProxy.obj
 0004:000005d0       $pdata$6$?GetProperty@ObjectTemplateProxy@@SAXIAEBV?$PropertyCallbackInfo@VValue@v8@@@v8@@@Z 000000018001a5d0     ObjectTemplateProxy.obj
 0004:000005dc       $pdata$7$?GetProperty@ObjectTemplateProxy@@SAXIAEBV?$PropertyCallbackInfo@VValue@v8@@@v8@@@Z 000000018001a5dc     ObjectTemplateProxy.obj
 0004:000005e8       $pdata$?SetProperty@ObjectTemplateProxy@@SAXIV?$Local@VValue@v8@@@v8@@AEBV?$PropertyCallbackInfo@VValue@v8@@@3@@Z 000000018001a5e8     ObjectTemplateProxy.obj
 0004:000005f4       $pdata$0$?SetProperty@ObjectTemplateProxy@@SAXIV?$Local@VValue@v8@@@v8@@AEBV?$PropertyCallbackInfo@VValue@v8@@@3@@Z 000000018001a5f4     ObjectTemplateProxy.obj
 0004:00000600       $pdata$2$?SetProperty@ObjectTemplateProxy@@SAXIV?$Local@VValue@v8@@@v8@@AEBV?$PropertyCallbackInfo@VValue@v8@@@3@@Z 000000018001a600     ObjectTemplateProxy.obj
 0004:0000060c       $pdata$4$?SetProperty@ObjectTemplateProxy@@SAXIV?$Local@VValue@v8@@@v8@@AEBV?$PropertyCallbackInfo@VValue@v8@@@3@@Z 000000018001a60c     ObjectTemplateProxy.obj
 0004:00000618       $pdata$6$?SetProperty@ObjectTemplateProxy@@SAXIV?$Local@VValue@v8@@@v8@@AEBV?$PropertyCallbackInfo@VValue@v8@@@3@@Z 000000018001a618     ObjectTemplateProxy.obj
 0004:00000624       $pdata$7$?SetProperty@ObjectTemplateProxy@@SAXIV?$Local@VValue@v8@@@v8@@AEBV?$PropertyCallbackInfo@VValue@v8@@@3@@Z 000000018001a624     ObjectTemplateProxy.obj
 0004:00000630       $pdata$?GetPropertyAttributes@ObjectTemplateProxy@@SAXIAEBV?$PropertyCallbackInfo@VInteger@v8@@@v8@@@Z 000000018001a630     ObjectTemplateProxy.obj
 0004:0000063c       $pdata$0$?GetPropertyAttributes@ObjectTemplateProxy@@SAXIAEBV?$PropertyCallbackInfo@VInteger@v8@@@v8@@@Z 000000018001a63c     ObjectTemplateProxy.obj
 0004:00000648       $pdata$2$?GetPropertyAttributes@ObjectTemplateProxy@@SAXIAEBV?$PropertyCallbackInfo@VInteger@v8@@@v8@@@Z 000000018001a648     ObjectTemplateProxy.obj
 0004:00000654       $pdata$3$?GetPropertyAttributes@ObjectTemplateProxy@@SAXIAEBV?$PropertyCallbackInfo@VInteger@v8@@@v8@@@Z 000000018001a654     ObjectTemplateProxy.obj
 0004:00000660       $pdata$?DeleteProperty@ObjectTemplateProxy@@SAXIAEBV?$PropertyCallbackInfo@VBoolean@v8@@@v8@@@Z 000000018001a660     ObjectTemplateProxy.obj
 0004:0000066c       $pdata$0$?DeleteProperty@ObjectTemplateProxy@@SAXIAEBV?$PropertyCallbackInfo@VBoolean@v8@@@v8@@@Z 000000018001a66c     ObjectTemplateProxy.obj
 0004:00000678       $pdata$2$?DeleteProperty@ObjectTemplateProxy@@SAXIAEBV?$PropertyCallbackInfo@VBoolean@v8@@@v8@@@Z 000000018001a678     ObjectTemplateProxy.obj
 0004:00000684       $pdata$3$?DeleteProperty@ObjectTemplateProxy@@SAXIAEBV?$PropertyCallbackInfo@VBoolean@v8@@@v8@@@Z 000000018001a684     ObjectTemplateProxy.obj
 0004:00000690       $pdata$?GetPropertyIndices@ObjectTemplateProxy@@SAXAEBV?$PropertyCallbackInfo@VArray@v8@@@v8@@@Z 000000018001a690     ObjectTemplateProxy.obj
 0004:0000069c       $pdata$0$?GetPropertyIndices@ObjectTemplateProxy@@SAXAEBV?$PropertyCallbackInfo@VArray@v8@@@v8@@@Z 000000018001a69c     ObjectTemplateProxy.obj
 0004:000006a8       $pdata$2$?GetPropertyIndices@ObjectTemplateProxy@@SAXAEBV?$PropertyCallbackInfo@VArray@v8@@@v8@@@Z 000000018001a6a8     ObjectTemplateProxy.obj
 0004:000006b4       $pdata$4$?GetPropertyIndices@ObjectTemplateProxy@@SAXAEBV?$PropertyCallbackInfo@VArray@v8@@@v8@@@Z 000000018001a6b4     ObjectTemplateProxy.obj
 0004:000006c0       $pdata$6$?GetPropertyIndices@ObjectTemplateProxy@@SAXAEBV?$PropertyCallbackInfo@VArray@v8@@@v8@@@Z 000000018001a6c0     ObjectTemplateProxy.obj
 0004:000006cc       $pdata$7$?GetPropertyIndices@ObjectTemplateProxy@@SAXAEBV?$PropertyCallbackInfo@VArray@v8@@@v8@@@Z 000000018001a6cc     ObjectTemplateProxy.obj
 0004:000006d8       $pdata$?CreateObject@ObjectTemplateProxy@@QEAAPEAUHandleProxy@@H@Z 000000018001a6d8     ObjectTemplateProxy.obj
 0004:000006e4       $pdata$?AccessorGetterCallbackProxy@ObjectTemplateProxy@@SAXV?$Local@VString@v8@@@v8@@AEBV?$PropertyCallbackInfo@VValue@v8@@@3@@Z 000000018001a6e4     ObjectTemplateProxy.obj
 0004:000006f0       $pdata$?AccessorSetterCallbackProxy@ObjectTemplateProxy@@SAXV?$Local@VString@v8@@@v8@@V?$Local@VValue@v8@@@3@AEBV?$PropertyCallbackInfo@X@3@@Z 000000018001a6f0     ObjectTemplateProxy.obj
 0004:000006fc       $pdata$?SetAccessor@ObjectTemplateProxy@@QEAAXHPEBGP6APEAUHandleProxy@@PEAU2@PEAG@ZP6APEAU2@121@ZW4AccessControl@v8@@W4PropertyAttribute@4@@Z 000000018001a6fc     ObjectTemplateProxy.obj
 0004:00000708       $pdata$?Set@ObjectTemplateProxy@@QEAAXPEBGPEAUHandleProxy@@W4PropertyAttribute@v8@@@Z 000000018001a708     ObjectTemplateProxy.obj
 0004:00000714       $pdata$??0_StringItem@@QEAA@PEAVV8EngineProxy@@PEAVString@v8@@@Z 000000018001a714     V8EngineProxy.obj
 0004:00000720       $pdata$??0V8EngineProxy@@QEAA@_NP6AXXZH@Z 000000018001a720     V8EngineProxy.obj
 0004:0000072c       $pdata$??1recursive_mutex@std@@QEAA@XZ 000000018001a72c     V8EngineProxy.obj
 0004:00000738       $pdata$??1V8EngineProxy@@QEAA@XZ 000000018001a738     V8EngineProxy.obj
 0004:00000744       $pdata$?GetNativeString@V8EngineProxy@@QEAA?AU_StringItem@@PEAVString@v8@@@Z 000000018001a744     V8EngineProxy.obj
 0004:00000750       $pdata$1$?GetNativeString@V8EngineProxy@@QEAA?AU_StringItem@@PEAVString@v8@@@Z 000000018001a750     V8EngineProxy.obj
 0004:0000075c       $pdata$2$?GetNativeString@V8EngineProxy@@QEAA?AU_StringItem@@PEAVString@v8@@@Z 000000018001a75c     V8EngineProxy.obj
 0004:00000768       $pdata$?GetHandleProxy@V8EngineProxy@@QEAAPEAUHandleProxy@@V?$Handle@VValue@v8@@@v8@@@Z 000000018001a768     V8EngineProxy.obj
 0004:00000774       $pdata$?DisposeHandleProxy@V8EngineProxy@@QEAAXPEAUHandleProxy@@@Z 000000018001a774     V8EngineProxy.obj
 0004:00000780       $pdata$?SetGlobalObjectTemplate@V8EngineProxy@@QEAAPEAUHandleProxy@@PEAVObjectTemplateProxy@@@Z 000000018001a780     V8EngineProxy.obj
 0004:0000078c       $pdata$?GetErrorMessage@V8EngineProxy@@SA?AV?$Local@VString@v8@@@v8@@AEAVTryCatch@3@@Z 000000018001a78c     V8EngineProxy.obj
 0004:00000798       $pdata$1$?GetErrorMessage@V8EngineProxy@@SA?AV?$Local@VString@v8@@@v8@@AEAVTryCatch@3@@Z 000000018001a798     V8EngineProxy.obj
 0004:000007a4       $pdata$3$?GetErrorMessage@V8EngineProxy@@SA?AV?$Local@VString@v8@@@v8@@AEAVTryCatch@3@@Z 000000018001a7a4     V8EngineProxy.obj
 0004:000007b0       $pdata$4$?GetErrorMessage@V8EngineProxy@@SA?AV?$Local@VString@v8@@@v8@@AEAVTryCatch@3@@Z 000000018001a7b0     V8EngineProxy.obj
 0004:000007bc       $pdata$5$?GetErrorMessage@V8EngineProxy@@SA?AV?$Local@VString@v8@@@v8@@AEAVTryCatch@3@@Z 000000018001a7bc     V8EngineProxy.obj
 0004:000007c8       $pdata$?Execute@V8EngineProxy@@QEAAPEAUHandleProxy@@PEBGPEAG@Z 000000018001a7c8     V8EngineProxy.obj
 0004:000007d4       $pdata$?Execute@V8EngineProxy@@QEAAPEAUHandleProxy@@V?$Handle@VScript@v8@@@v8@@@Z 000000018001a7d4     V8EngineProxy.obj
 0004:000007e0       $pdata$?Compile@V8EngineProxy@@QEAAPEAUHandleProxy@@PEBGPEAG@Z 000000018001a7e0     V8EngineProxy.obj
 0004:000007ec       $pdata$?Call@V8EngineProxy@@QEAAPEAUHandleProxy@@PEAU2@PEBG0GPEAPEAU2@@Z 000000018001a7ec     V8EngineProxy.obj
 0004:000007f8       $pdata$?CreateError@V8EngineProxy@@QEAAPEAUHandleProxy@@PEBGW4JSValueType@@@Z 000000018001a7f8     V8EngineProxy.obj
 0004:00000804       $pdata$?CreateArray@V8EngineProxy@@QEAAPEAUHandleProxy@@PEAPEAU2@G@Z 000000018001a804     V8EngineProxy.obj
 0004:00000810       $pdata$0$?CreateArray@V8EngineProxy@@QEAAPEAUHandleProxy@@PEAPEAU2@G@Z 000000018001a810     V8EngineProxy.obj
 0004:0000081c       $pdata$1$?CreateArray@V8EngineProxy@@QEAAPEAUHandleProxy@@PEAPEAU2@G@Z 000000018001a81c     V8EngineProxy.obj
 0004:00000828       $pdata$?CreateArray@V8EngineProxy@@QEAAPEAUHandleProxy@@PEAPEAGG@Z 000000018001a828     V8EngineProxy.obj
 0004:00000834       $pdata$?resize@?$vector@_NV?$allocator@_N@std@@@std@@QEAAX_K_N@Z 000000018001a834     V8EngineProxy.obj
 0004:00000840       $pdata$?clear@?$vector@_NV?$allocator@_N@std@@@std@@QEAAXXZ 000000018001a840     V8EngineProxy.obj
 0004:0000084c       $pdata$??1?$vector@HV?$allocator@H@std@@@std@@QEAA@XZ 000000018001a84c     V8EngineProxy.obj
 0004:0000084c       $pdata$??1?$vector@PEAVWorkerThread@platform@v8@@V?$allocator@PEAVWorkerThread@platform@v8@@@std@@@std@@QEAA@XZ 000000018001a84c     v8_libplatform:default-platform.obj
 0004:0000084c       $pdata$??1?$vector@PEAUHandleProxy@@V?$allocator@PEAUHandleProxy@@@std@@@std@@QEAA@XZ 000000018001a84c     V8EngineProxy.obj
 0004:0000084c       $pdata$??1?$vector@U_StringItem@@V?$allocator@U_StringItem@@@std@@@std@@QEAA@XZ 000000018001a84c     V8EngineProxy.obj
 0004:00000858       $pdata$?push_back@?$vector@U_StringItem@@V?$allocator@U_StringItem@@@std@@@std@@QEAAXAEBU_StringItem@@@Z 000000018001a858     V8EngineProxy.obj
 0004:00000864       $pdata$?push_back@?$vector@HV?$allocator@H@std@@@std@@QEAAXAEBH@Z 000000018001a864     V8EngineProxy.obj
 0004:00000870       $pdata$?erase@?$vector@_NV?$allocator@_N@std@@@std@@QEAA?AV?$_Vb_iterator@U?$_Wrap_alloc@V?$allocator@I@std@@@std@@@2@V?$_Vb_const_iterator@U?$_Wrap_alloc@V?$allocator@I@std@@@std@@@2@0@Z 000000018001a870     V8EngineProxy.obj
 0004:0000087c       $pdata$?_Insert_n@?$vector@_NV?$allocator@_N@std@@@std@@QEAA?AV?$_Vb_iterator@U?$_Wrap_alloc@V?$allocator@I@std@@@std@@@2@V?$_Vb_const_iterator@U?$_Wrap_alloc@V?$allocator@I@std@@@std@@@2@_KAEB_N@Z 000000018001a87c     V8EngineProxy.obj
 0004:00000888       $pdata$?_Trim@?$vector@_NV?$allocator@_N@std@@@std@@QEAAX_K@Z 000000018001a888     V8EngineProxy.obj
 0004:00000894       $pdata$1$?_Trim@?$vector@_NV?$allocator@_N@std@@@std@@QEAAX_K@Z 000000018001a894     V8EngineProxy.obj
 0004:000008a0       $pdata$2$?_Trim@?$vector@_NV?$allocator@_N@std@@@std@@QEAAX_K@Z 000000018001a8a0     V8EngineProxy.obj
 0004:000008ac       $pdata$3$?_Trim@?$vector@_NV?$allocator@_N@std@@@std@@QEAAX_K@Z 000000018001a8ac     V8EngineProxy.obj
 0004:000008b8       $pdata$4$?_Trim@?$vector@_NV?$allocator@_N@std@@@std@@QEAAX_K@Z 000000018001a8b8     V8EngineProxy.obj
 0004:000008c4       $pdata$??1?$_Vb_val@V?$allocator@_N@std@@@std@@QEAA@XZ 000000018001a8c4     V8EngineProxy.obj
 0004:000008d0       $pdata$?_Construct_n@?$vector@U_StringItem@@V?$allocator@U_StringItem@@@std@@@std@@QEAAX_KPEBU_StringItem@@@Z 000000018001a8d0     V8EngineProxy.obj
 0004:000008dc       $pdata$?_Reserve@?$vector@U_StringItem@@V?$allocator@U_StringItem@@@std@@@std@@IEAAX_K@Z 000000018001a8dc     V8EngineProxy.obj
 0004:000008e8       $pdata$?_Construct_n@?$vector@PEAUHandleProxy@@V?$allocator@PEAUHandleProxy@@@std@@@std@@QEAAX_KPEBQEAUHandleProxy@@@Z 000000018001a8e8     V8EngineProxy.obj
 0004:000008f4       $pdata$?_Reserve@?$vector@PEAUHandleProxy@@V?$allocator@PEAUHandleProxy@@@std@@@std@@IEAAX_K@Z 000000018001a8f4     V8EngineProxy.obj
 0004:00000900       $pdata$?_Construct_n@?$vector@HV?$allocator@H@std@@@std@@QEAAX_KPEBH@Z 000000018001a900     V8EngineProxy.obj
 0004:0000090c       $pdata$?_Reserve@?$vector@HV?$allocator@H@std@@@std@@IEAAX_K@Z 000000018001a90c     V8EngineProxy.obj
 0004:00000918       $pdata$?_Insert_x@?$vector@_NV?$allocator@_N@std@@@std@@QEAA_KV?$_Vb_const_iterator@U?$_Wrap_alloc@V?$allocator@I@std@@@std@@@2@_K@Z 000000018001a918     V8EngineProxy.obj
 0004:00000924       $pdata$0$?_Insert_x@?$vector@_NV?$allocator@_N@std@@@std@@QEAA_KV?$_Vb_const_iterator@U?$_Wrap_alloc@V?$allocator@I@std@@@std@@@2@_K@Z 000000018001a924     V8EngineProxy.obj
 0004:00000930       $pdata$1$?_Insert_x@?$vector@_NV?$allocator@_N@std@@@std@@QEAA_KV?$_Vb_const_iterator@U?$_Wrap_alloc@V?$allocator@I@std@@@std@@@2@_K@Z 000000018001a930     V8EngineProxy.obj
 0004:0000093c       $pdata$2$?_Insert_x@?$vector@_NV?$allocator@_N@std@@@std@@QEAA_KV?$_Vb_const_iterator@U?$_Wrap_alloc@V?$allocator@I@std@@@std@@@2@_K@Z 000000018001a93c     V8EngineProxy.obj
 0004:00000948       $pdata$?_Tidy@?$vector@IV?$allocator@_N@std@@@std@@IEAAXXZ 000000018001a948     V8EngineProxy.obj
 0004:00000948       $pdata$??1?$vector@IV?$allocator@_N@std@@@std@@QEAA@XZ 000000018001a948     V8EngineProxy.obj
 0004:00000954       $pdata$?_Reallocate@?$vector@U_StringItem@@V?$allocator@U_StringItem@@@std@@@std@@IEAAX_K@Z 000000018001a954     V8EngineProxy.obj
 0004:00000960       $pdata$?_Reallocate@?$vector@PEAUHandleProxy@@V?$allocator@PEAUHandleProxy@@@std@@@std@@IEAAX_K@Z 000000018001a960     V8EngineProxy.obj
 0004:0000096c       $pdata$?_Reallocate@?$vector@HV?$allocator@H@std@@@std@@IEAAX_K@Z 000000018001a96c     V8EngineProxy.obj
 0004:00000978       $pdata$?_Construct_n@?$vector@IV?$allocator@_N@std@@@std@@QEAAX_KPEBI@Z 000000018001a978     V8EngineProxy.obj
 0004:00000984       $pdata$?resize@?$vector@IV?$allocator@_N@std@@@std@@QEAAX_KAEBI@Z 000000018001a984     V8EngineProxy.obj
 0004:00000990       $pdata$?_Buy@?$vector@IV?$allocator@_N@std@@@std@@IEAA_N_K@Z 000000018001a990     V8EngineProxy.obj
 0004:0000099c       $pdata$0$?_Buy@?$vector@IV?$allocator@_N@std@@@std@@IEAA_N_K@Z 000000018001a99c     V8EngineProxy.obj
 0004:000009a8       $pdata$2$?_Buy@?$vector@IV?$allocator@_N@std@@@std@@IEAA_N_K@Z 000000018001a9a8     V8EngineProxy.obj
 0004:000009b4       $pdata$?_Reserve@?$vector@IV?$allocator@_N@std@@@std@@IEAAX_K@Z 000000018001a9b4     V8EngineProxy.obj
 0004:000009c0       $pdata$?_Reallocate@?$vector@IV?$allocator@_N@std@@@std@@IEAAX_K@Z 000000018001a9c0     V8EngineProxy.obj
 0004:000009cc       $pdata$??$_Uninit_fill_n@PEAU_StringItem@@_KU1@V?$allocator@U_StringItem@@@std@@U1@@std@@YAXPEAU_StringItem@@_KPEBU1@AEAU?$_Wrap_alloc@V?$allocator@U_StringItem@@@std@@@0@0U_Nonscalar_ptr_iterator_tag@0@@Z 000000018001a9cc     V8EngineProxy.obj
 0004:000009d8       $pdata$??$_Uninit_move@PEAU_StringItem@@PEAU1@V?$allocator@U_StringItem@@@std@@U1@@std@@YAPEAU_StringItem@@PEAU1@00AEAU?$_Wrap_alloc@V?$allocator@U_StringItem@@@std@@@0@0U_Nonscalar_ptr_iterator_tag@0@@Z 000000018001a9d8     V8EngineProxy.obj
 0004:000009e4       $pdata$??1HandleValue@@QEAA@XZ 000000018001a9e4     ValueProxy.obj
 0004:000009f0       $pdata$??_GPlatform@v8@@UEAAPEAXI@Z 000000018001a9f0     v8_libplatform:default-platform.obj
 0004:000009fc       $pdata$??_G_System_error_category@std@@UEAAPEAXI@Z 000000018001a9fc     v8_libplatform:default-platform.obj
 0004:000009fc       $pdata$??_G_Generic_error_category@std@@UEAAPEAXI@Z 000000018001a9fc     v8_libplatform:default-platform.obj
 0004:000009fc       $pdata$??_Gerror_category@std@@UEAAPEAXI@Z 000000018001a9fc     v8_libplatform:default-platform.obj
 0004:000009fc       $pdata$??_G_Iostream_error_category@std@@UEAAPEAXI@Z 000000018001a9fc     v8_libplatform:default-platform.obj
 0004:00000a08       $pdata$?equivalent@error_category@std@@UEBA_NHAEBVerror_condition@2@@Z 000000018001aa08     v8_libplatform:default-platform.obj
 0004:00000a14       $pdata$?message@_Generic_error_category@std@@UEBA?AV?$basic_string@DU?$char_traits@D@std@@V?$allocator@D@2@@2@H@Z 000000018001aa14     v8_libplatform:default-platform.obj
 0004:00000a20       $pdata$?message@_Iostream_error_category@std@@UEBA?AV?$basic_string@DU?$char_traits@D@std@@V?$allocator@D@2@@2@H@Z 000000018001aa20     v8_libplatform:default-platform.obj
 0004:00000a2c       $pdata$?message@_System_error_category@std@@UEBA?AV?$basic_string@DU?$char_traits@D@std@@V?$allocator@D@2@@2@H@Z 000000018001aa2c     v8_libplatform:default-platform.obj
 0004:00000a38       $pdata$?default_error_condition@_System_error_category@std@@UEBA?AVerror_condition@2@H@Z 000000018001aa38     v8_libplatform:default-platform.obj
 0004:00000a44       $pdata$?CreateDefaultPlatform@platform@v8@@YAPEAVPlatform@2@H@Z 000000018001aa44     v8_libplatform:default-platform.obj
 0004:00000a50       $pdata$??0DefaultPlatform@platform@v8@@QEAA@XZ 000000018001aa50     v8_libplatform:default-platform.obj
 0004:00000a5c       $pdata$??_GDefaultPlatform@platform@v8@@UEAAPEAXI@Z 000000018001aa5c     v8_libplatform:default-platform.obj
 0004:00000a68       $pdata$??1?$map@PEAVIsolate@v8@@V?$queue@PEAVTask@v8@@V?$deque@PEAVTask@v8@@V?$allocator@PEAVTask@v8@@@std@@@std@@@std@@U?$less@PEAVIsolate@v8@@@4@V?$allocator@U?$pair@QEAVIsolate@v8@@V?$queue@PEAVTask@v8@@V?$deque@PEAVTask@v8@@V?$allocator@PEAVTask@v8@@@std@@@std@@@std@@@std@@@4@@std@@QEAA@XZ 000000018001aa68     v8_libplatform:default-platform.obj
 0004:00000a74       $pdata$??1DefaultPlatform@platform@v8@@UEAA@XZ 000000018001aa74     v8_libplatform:default-platform.obj
 0004:00000a80       $pdata$?SetThreadPoolSize@DefaultPlatform@platform@v8@@QEAAXH@Z 000000018001aa80     v8_libplatform:default-platform.obj
 0004:00000a8c       $pdata$?EnsureInitialized@DefaultPlatform@platform@v8@@QEAAXXZ 000000018001aa8c     v8_libplatform:default-platform.obj
 0004:00000a98       $pdata$?CallOnBackgroundThread@DefaultPlatform@platform@v8@@UEAAXPEAVTask@3@W4ExpectedRuntime@Platform@3@@Z 000000018001aa98     v8_libplatform:default-platform.obj
 0004:00000aa4       $pdata$?CallOnForegroundThread@DefaultPlatform@platform@v8@@UEAAXPEAVIsolate@3@PEAVTask@3@@Z 000000018001aaa4     v8_libplatform:default-platform.obj
 0004:00000ab0       $pdata$?assign@?$basic_string@DU?$char_traits@D@std@@V?$allocator@D@2@@std@@QEAAAEAV12@AEBV12@_K1@Z 000000018001aab0     v8_libplatform:default-platform.obj
 0004:00000abc       $pdata$?push_back@?$deque@PEAVTask@v8@@V?$allocator@PEAVTask@v8@@@std@@@std@@QEAAXAEBQEAVTask@v8@@@Z 000000018001aabc     v8_libplatform:default-platform.obj
 0004:00000ac8       $pdata$?_Reserve@?$vector@PEAVWorkerThread@platform@v8@@V?$allocator@PEAVWorkerThread@platform@v8@@@std@@@std@@IEAAX_K@Z 000000018001aac8     v8_libplatform:default-platform.obj
 0004:00000ad4       $pdata$?assign@?$basic_string@DU?$char_traits@D@std@@V?$allocator@D@2@@std@@QEAAAEAV12@PEBD_K@Z 000000018001aad4     v8_libplatform:default-platform.obj
 0004:00000ae0       $pdata$?erase@?$basic_string@DU?$char_traits@D@std@@V?$allocator@D@2@@std@@QEAAAEAV12@_K0@Z 000000018001aae0     v8_libplatform:default-platform.obj
 0004:00000aec       $pdata$?_Grow@?$basic_string@DU?$char_traits@D@std@@V?$allocator@D@2@@std@@QEAA_N_K_N@Z 000000018001aaec     v8_libplatform:default-platform.obj
 0004:00000af8       $pdata$0$?_Grow@?$basic_string@DU?$char_traits@D@std@@V?$allocator@D@2@@std@@QEAA_N_K_N@Z 000000018001aaf8     v8_libplatform:default-platform.obj
 0004:00000b04       $pdata$2$?_Grow@?$basic_string@DU?$char_traits@D@std@@V?$allocator@D@2@@std@@QEAA_N_K_N@Z 000000018001ab04     v8_libplatform:default-platform.obj
 0004:00000b10       $pdata$?_Growmap@?$deque@PEAVTask@v8@@V?$allocator@PEAVTask@v8@@@std@@@std@@IEAAX_K@Z 000000018001ab10     v8_libplatform:default-platform.obj
 0004:00000b1c       $pdata$1$?_Growmap@?$deque@PEAVTask@v8@@V?$allocator@PEAVTask@v8@@@std@@@std@@IEAAX_K@Z 000000018001ab1c     v8_libplatform:default-platform.obj
 0004:00000b28       $pdata$3$?_Growmap@?$deque@PEAVTask@v8@@V?$allocator@PEAVTask@v8@@@std@@@std@@IEAAX_K@Z 000000018001ab28     v8_libplatform:default-platform.obj
 0004:00000b34       $pdata$4$?_Growmap@?$deque@PEAVTask@v8@@V?$allocator@PEAVTask@v8@@@std@@@std@@IEAAX_K@Z 000000018001ab34     v8_libplatform:default-platform.obj
 0004:00000b40       $pdata$5$?_Growmap@?$deque@PEAVTask@v8@@V?$allocator@PEAVTask@v8@@@std@@@std@@IEAAX_K@Z 000000018001ab40     v8_libplatform:default-platform.obj
 0004:00000b4c       $pdata$6$?_Growmap@?$deque@PEAVTask@v8@@V?$allocator@PEAVTask@v8@@@std@@@std@@IEAAX_K@Z 000000018001ab4c     v8_libplatform:default-platform.obj
 0004:00000b58       $pdata$7$?_Growmap@?$deque@PEAVTask@v8@@V?$allocator@PEAVTask@v8@@@std@@@std@@IEAAX_K@Z 000000018001ab58     v8_libplatform:default-platform.obj
 0004:00000b64       $pdata$?_Reallocate@?$vector@PEAVWorkerThread@platform@v8@@V?$allocator@PEAVWorkerThread@platform@v8@@@std@@@std@@IEAAX_K@Z 000000018001ab64     v8_libplatform:default-platform.obj
 0004:00000b70       $pdata$?erase@?$_Tree@V?$_Tmap_traits@PEAVIsolate@v8@@V?$queue@PEAVTask@v8@@V?$deque@PEAVTask@v8@@V?$allocator@PEAVTask@v8@@@std@@@std@@@std@@U?$less@PEAVIsolate@v8@@@4@V?$allocator@U?$pair@QEAVIsolate@v8@@V?$queue@PEAVTask@v8@@V?$deque@PEAVTask@v8@@V?$allocator@PEAVTask@v8@@@std@@@std@@@std@@@std@@@4@$0A@@std@@@std@@QEAA?AV?$_Tree_iterator@V?$_Tree_val@U?$_Tree_simple_types@U?$pair@QEAVIsolate@v8@@V?$queue@PEAVTask@v8@@V?$deque@PEAVTask@v8@@V?$allocator@PEAVTask@v8@@@std@@@std@@@std@@@std@@@std@@@std@@@2@V?$_Tree_const_iterator@V?$_Tree_val@U?$_Tree_simple_types@U?$pair@QEAVIsolate@v8@@V?$queue@PEAVTask@v8@@V?$deque@PEAVTask@v8@@V?$allocator@PEAVTask@v8@@@std@@@std@@@std@@@std@@@std@@@std@@@2@0@Z 000000018001ab70     v8_libplatform:default-platform.obj
 0004:00000b7c       $pdata$?_Copy@?$basic_string@DU?$char_traits@D@std@@V?$allocator@D@2@@std@@QEAAX_K0@Z 000000018001ab7c     v8_libplatform:default-platform.obj
 0004:00000b88       $pdata$?erase@?$_Tree@V?$_Tmap_traits@PEAVIsolate@v8@@V?$queue@PEAVTask@v8@@V?$deque@PEAVTask@v8@@V?$allocator@PEAVTask@v8@@@std@@@std@@@std@@U?$less@PEAVIsolate@v8@@@4@V?$allocator@U?$pair@QEAVIsolate@v8@@V?$queue@PEAVTask@v8@@V?$deque@PEAVTask@v8@@V?$allocator@PEAVTask@v8@@@std@@@std@@@std@@@std@@@4@$0A@@std@@@std@@QEAA?AV?$_Tree_iterator@V?$_Tree_val@U?$_Tree_simple_types@U?$pair@QEAVIsolate@v8@@V?$queue@PEAVTask@v8@@V?$deque@PEAVTask@v8@@V?$allocator@PEAVTask@v8@@@std@@@std@@@std@@@std@@@std@@@std@@@2@V?$_Tree_const_iterator@V?$_Tree_val@U?$_Tree_simple_types@U?$pair@QEAVIsolate@v8@@V?$queue@PEAVTask@v8@@V?$deque@PEAVTask@v8@@V?$allocator@PEAVTask@v8@@@std@@@std@@@std@@@std@@@std@@@std@@@2@@Z 000000018001ab88     v8_libplatform:default-platform.obj
 0004:00000b94       $pdata$?_Erase@?$_Tree@V?$_Tmap_traits@PEAVIsolate@v8@@V?$queue@PEAVTask@v8@@V?$deque@PEAVTask@v8@@V?$allocator@PEAVTask@v8@@@std@@@std@@@std@@U?$less@PEAVIsolate@v8@@@4@V?$allocator@U?$pair@QEAVIsolate@v8@@V?$queue@PEAVTask@v8@@V?$deque@PEAVTask@v8@@V?$allocator@PEAVTask@v8@@@std@@@std@@@std@@@std@@@4@$0A@@std@@@std@@IEAAXPEAU?$_Tree_node@U?$pair@QEAVIsolate@v8@@V?$queue@PEAVTask@v8@@V?$deque@PEAVTask@v8@@V?$allocator@PEAVTask@v8@@@std@@@std@@@std@@@std@@PEAX@2@@Z 000000018001ab94     v8_libplatform:default-platform.obj
 0004:00000ba0       $pdata$0$?_Erase@?$_Tree@V?$_Tmap_traits@PEAVIsolate@v8@@V?$queue@PEAVTask@v8@@V?$deque@PEAVTask@v8@@V?$allocator@PEAVTask@v8@@@std@@@std@@@std@@U?$less@PEAVIsolate@v8@@@4@V?$allocator@U?$pair@QEAVIsolate@v8@@V?$queue@PEAVTask@v8@@V?$deque@PEAVTask@v8@@V?$allocator@PEAVTask@v8@@@std@@@std@@@std@@@std@@@4@$0A@@std@@@std@@IEAAXPEAU?$_Tree_node@U?$pair@QEAVIsolate@v8@@V?$queue@PEAVTask@v8@@V?$deque@PEAVTask@v8@@V?$allocator@PEAVTask@v8@@@std@@@std@@@std@@@std@@PEAX@2@@Z 000000018001aba0     v8_libplatform:default-platform.obj
 0004:00000bac       $pdata$1$?_Erase@?$_Tree@V?$_Tmap_traits@PEAVIsolate@v8@@V?$queue@PEAVTask@v8@@V?$deque@PEAVTask@v8@@V?$allocator@PEAVTask@v8@@@std@@@std@@@std@@U?$less@PEAVIsolate@v8@@@4@V?$allocator@U?$pair@QEAVIsolate@v8@@V?$queue@PEAVTask@v8@@V?$deque@PEAVTask@v8@@V?$allocator@PEAVTask@v8@@@std@@@std@@@std@@@std@@@4@$0A@@std@@@std@@IEAAXPEAU?$_Tree_node@U?$pair@QEAVIsolate@v8@@V?$queue@PEAVTask@v8@@V?$deque@PEAVTask@v8@@V?$allocator@PEAVTask@v8@@@std@@@std@@@std@@@std@@PEAX@2@@Z 000000018001abac     v8_libplatform:default-platform.obj
 0004:00000bb8       $pdata$?_Buyheadnode@?$_Tree_alloc@$0A@U?$_Tree_base_types@U?$pair@QEAVIsolate@v8@@V?$queue@PEAVTask@v8@@V?$deque@PEAVTask@v8@@V?$allocator@PEAVTask@v8@@@std@@@std@@@std@@@std@@V?$allocator@U?$pair@QEAVIsolate@v8@@V?$queue@PEAVTask@v8@@V?$deque@PEAVTask@v8@@V?$allocator@PEAVTask@v8@@@std@@@std@@@std@@@std@@@2@@std@@@std@@QEAAPEAU?$_Tree_node@U?$pair@QEAVIsolate@v8@@V?$queue@PEAVTask@v8@@V?$deque@PEAVTask@v8@@V?$allocator@PEAVTask@v8@@@std@@@std@@@std@@@std@@PEAX@2@XZ 000000018001abb8     v8_libplatform:default-platform.obj
 0004:00000bc4       $pdata$??$_Buynode@AEBUpiecewise_construct_t@std@@V?$tuple@AEBQEAVIsolate@v8@@@2@V?$tuple@$$$V@2@@?$_Tree_buy@U?$pair@QEAVIsolate@v8@@V?$queue@PEAVTask@v8@@V?$deque@PEAVTask@v8@@V?$allocator@PEAVTask@v8@@@std@@@std@@@std@@@std@@V?$allocator@U?$pair@QEAVIsolate@v8@@V?$queue@PEAVTask@v8@@V?$deque@PEAVTask@v8@@V?$allocator@PEAVTask@v8@@@std@@@std@@@std@@@std@@@2@@std@@QEAAPEAU?$_Tree_node@U?$pair@QEAVIsolate@v8@@V?$queue@PEAVTask@v8@@V?$deque@PEAVTask@v8@@V?$allocator@PEAVTask@v8@@@std@@@std@@@std@@@std@@PEAX@1@AEBUpiecewise_construct_t@1@$$QEAV?$tuple@AEBQEAVIsolate@v8@@@1@$$QEAV?$tuple@$$$V@1@@Z 000000018001abc4     v8_libplatform:default-platform.obj
 0004:00000bd0       $pdata$??$_Insert_hint@AEAU?$pair@QEAVIsolate@v8@@V?$queue@PEAVTask@v8@@V?$deque@PEAVTask@v8@@V?$allocator@PEAVTask@v8@@@std@@@std@@@std@@@std@@PEAU?$_Tree_node@U?$pair@QEAVIsolate@v8@@V?$queue@PEAVTask@v8@@V?$deque@PEAVTask@v8@@V?$allocator@PEAVTask@v8@@@std@@@std@@@std@@@std@@PEAX@2@@?$_Tree@V?$_Tmap_traits@PEAVIsolate@v8@@V?$queue@PEAVTask@v8@@V?$deque@PEAVTask@v8@@V?$allocator@PEAVTask@v8@@@std@@@std@@@std@@U?$less@PEAVIsolate@v8@@@4@V?$allocator@U?$pair@QEAVIsolate@v8@@V?$queue@PEAVTask@v8@@V?$deque@PEAVTask@v8@@V?$allocator@PEAVTask@v8@@@std@@@std@@@std@@@std@@@4@$0A@@std@@@std@@IEAA?AV?$_Tree_iterator@V?$_Tree_val@U?$_Tree_simple_types@U?$pair@QEAVIsolate@v8@@V?$queue@PEAVTask@v8@@V?$deque@PEAVTask@v8@@V?$allocator@PEAVTask@v8@@@std@@@std@@@std@@@std@@@std@@@std@@@1@V?$_Tree_const_iterator@V?$_Tree_val@U?$_Tree_simple_types@U?$pair@QEAVIsolate@v8@@V?$queue@PEAVTask@v8@@V?$deque@PEAVTask@v8@@V?$allocator@PEAVTask@v8@@@std@@@std@@@std@@@std@@@std@@@std@@@1@AEAU?$pair@QEAVIsolate@v8@@V?$queue@PEAVTask@v8@@V?$deque@PEAVTask@v8@@V?$allocator@PEAVTask@v8@@@std@@@std@@@std@@@1@PEAU?$_Tree_node@U?$pair@QEAVIsolate@v8@@V?$queue@PEAVTask@v8@@V?$deque@PEAVTask@v8@@V?$allocator@PEAVTask@v8@@@std@@@std@@@std@@@std@@PEAX@1@@Z 000000018001abd0     v8_libplatform:default-platform.obj
 0004:00000bdc       $pdata$?_Destroy_if_not_nil@?$_Tree@V?$_Tmap_traits@PEAVIsolate@v8@@V?$queue@PEAVTask@v8@@V?$deque@PEAVTask@v8@@V?$allocator@PEAVTask@v8@@@std@@@std@@@std@@U?$less@PEAVIsolate@v8@@@4@V?$allocator@U?$pair@QEAVIsolate@v8@@V?$queue@PEAVTask@v8@@V?$deque@PEAVTask@v8@@V?$allocator@PEAVTask@v8@@@std@@@std@@@std@@@std@@@4@$0A@@std@@@std@@IEAAXPEAU?$_Tree_node@U?$pair@QEAVIsolate@v8@@V?$queue@PEAVTask@v8@@V?$deque@PEAVTask@v8@@V?$allocator@PEAVTask@v8@@@std@@@std@@@std@@@std@@PEAX@2@@Z 000000018001abdc     v8_libplatform:default-platform.obj
 0004:00000be8       $pdata$?_Buynode0@?$_Tree_buy@U?$pair@QEAVIsolate@v8@@V?$queue@PEAVTask@v8@@V?$deque@PEAVTask@v8@@V?$allocator@PEAVTask@v8@@@std@@@std@@@std@@@std@@V?$allocator@U?$pair@QEAVIsolate@v8@@V?$queue@PEAVTask@v8@@V?$deque@PEAVTask@v8@@V?$allocator@PEAVTask@v8@@@std@@@std@@@std@@@std@@@2@@std@@QEAAPEAU?$_Tree_node@U?$pair@QEAVIsolate@v8@@V?$queue@PEAVTask@v8@@V?$deque@PEAVTask@v8@@V?$allocator@PEAVTask@v8@@@std@@@std@@@std@@@std@@PEAX@2@XZ 000000018001abe8     v8_libplatform:default-platform.obj
 0004:00000bf4       $pdata$??$_Insert_at@AEAU?$pair@QEAVIsolate@v8@@V?$queue@PEAVTask@v8@@V?$deque@PEAVTask@v8@@V?$allocator@PEAVTask@v8@@@std@@@std@@@std@@@std@@PEAU?$_Tree_node@U?$pair@QEAVIsolate@v8@@V?$queue@PEAVTask@v8@@V?$deque@PEAVTask@v8@@V?$allocator@PEAVTask@v8@@@std@@@std@@@std@@@std@@PEAX@2@@?$_Tree@V?$_Tmap_traits@PEAVIsolate@v8@@V?$queue@PEAVTask@v8@@V?$deque@PEAVTask@v8@@V?$allocator@PEAVTask@v8@@@std@@@std@@@std@@U?$less@PEAVIsolate@v8@@@4@V?$allocator@U?$pair@QEAVIsolate@v8@@V?$queue@PEAVTask@v8@@V?$deque@PEAVTask@v8@@V?$allocator@PEAVTask@v8@@@std@@@std@@@std@@@std@@@4@$0A@@std@@@std@@IEAA?AV?$_Tree_iterator@V?$_Tree_val@U?$_Tree_simple_types@U?$pair@QEAVIsolate@v8@@V?$queue@PEAVTask@v8@@V?$deque@PEAVTask@v8@@V?$allocator@PEAVTask@v8@@@std@@@std@@@std@@@std@@@std@@@std@@@1@_NPEAU?$_Tree_node@U?$pair@QEAVIsolate@v8@@V?$queue@PEAVTask@v8@@V?$deque@PEAVTask@v8@@V?$allocator@PEAVTask@v8@@@std@@@std@@@std@@@std@@PEAX@1@AEAU?$pair@QEAVIsolate@v8@@V?$queue@PEAVTask@v8@@V?$deque@PEAVTask@v8@@V?$allocator@PEAVTask@v8@@@std@@@std@@@std@@@1@1@Z 000000018001abf4     v8_libplatform:default-platform.obj
 0004:00000c00       $pdata$0$??$_Insert_at@AEAU?$pair@QEAVIsolate@v8@@V?$queue@PEAVTask@v8@@V?$deque@PEAVTask@v8@@V?$allocator@PEAVTask@v8@@@std@@@std@@@std@@@std@@PEAU?$_Tree_node@U?$pair@QEAVIsolate@v8@@V?$queue@PEAVTask@v8@@V?$deque@PEAVTask@v8@@V?$allocator@PEAVTask@v8@@@std@@@std@@@std@@@std@@PEAX@2@@?$_Tree@V?$_Tmap_traits@PEAVIsolate@v8@@V?$queue@PEAVTask@v8@@V?$deque@PEAVTask@v8@@V?$allocator@PEAVTask@v8@@@std@@@std@@@std@@U?$less@PEAVIsolate@v8@@@4@V?$allocator@U?$pair@QEAVIsolate@v8@@V?$queue@PEAVTask@v8@@V?$deque@PEAVTask@v8@@V?$allocator@PEAVTask@v8@@@std@@@std@@@std@@@std@@@4@$0A@@std@@@std@@IEAA?AV?$_Tree_iterator@V?$_Tree_val@U?$_Tree_simple_types@U?$pair@QEAVIsolate@v8@@V?$queue@PEAVTask@v8@@V?$deque@PEAVTask@v8@@V?$allocator@PEAVTask@v8@@@std@@@std@@@std@@@std@@@std@@@std@@@1@_NPEAU?$_Tree_node@U?$pair@QEAVIsolate@v8@@V?$queue@PEAVTask@v8@@V?$deque@PEAVTask@v8@@V?$allocator@PEAVTask@v8@@@std@@@std@@@std@@@std@@PEAX@1@AEAU?$pair@QEAVIsolate@v8@@V?$queue@PEAVTask@v8@@V?$deque@PEAVTask@v8@@V?$allocator@PEAVTask@v8@@@std@@@std@@@std@@@1@1@Z 000000018001ac00     v8_libplatform:default-platform.obj
 0004:00000c0c       $pdata$1$??$_Insert_at@AEAU?$pair@QEAVIsolate@v8@@V?$queue@PEAVTask@v8@@V?$deque@PEAVTask@v8@@V?$allocator@PEAVTask@v8@@@std@@@std@@@std@@@std@@PEAU?$_Tree_node@U?$pair@QEAVIsolate@v8@@V?$queue@PEAVTask@v8@@V?$deque@PEAVTask@v8@@V?$allocator@PEAVTask@v8@@@std@@@std@@@std@@@std@@PEAX@2@@?$_Tree@V?$_Tmap_traits@PEAVIsolate@v8@@V?$queue@PEAVTask@v8@@V?$deque@PEAVTask@v8@@V?$allocator@PEAVTask@v8@@@std@@@std@@@std@@U?$less@PEAVIsolate@v8@@@4@V?$allocator@U?$pair@QEAVIsolate@v8@@V?$queue@PEAVTask@v8@@V?$deque@PEAVTask@v8@@V?$allocator@PEAVTask@v8@@@std@@@std@@@std@@@std@@@4@$0A@@std@@@std@@IEAA?AV?$_Tree_iterator@V?$_Tree_val@U?$_Tree_simple_types@U?$pair@QEAVIsolate@v8@@V?$queue@PEAVTask@v8@@V?$deque@PEAVTask@v8@@V?$allocator@PEAVTask@v8@@@std@@@std@@@std@@@std@@@std@@@std@@@1@_NPEAU?$_Tree_node@U?$pair@QEAVIsolate@v8@@V?$queue@PEAVTask@v8@@V?$deque@PEAVTask@v8@@V?$allocator@PEAVTask@v8@@@std@@@std@@@std@@@std@@PEAX@1@AEAU?$pair@QEAVIsolate@v8@@V?$queue@PEAVTask@v8@@V?$deque@PEAVTask@v8@@V?$allocator@PEAVTask@v8@@@std@@@std@@@std@@@1@1@Z 000000018001ac0c     v8_libplatform:default-platform.obj
 0004:00000c18       $pdata$??$_Insert_nohint@AEAU?$pair@QEAVIsolate@v8@@V?$queue@PEAVTask@v8@@V?$deque@PEAVTask@v8@@V?$allocator@PEAVTask@v8@@@std@@@std@@@std@@@std@@PEAU?$_Tree_node@U?$pair@QEAVIsolate@v8@@V?$queue@PEAVTask@v8@@V?$deque@PEAVTask@v8@@V?$allocator@PEAVTask@v8@@@std@@@std@@@std@@@std@@PEAX@2@@?$_Tree@V?$_Tmap_traits@PEAVIsolate@v8@@V?$queue@PEAVTask@v8@@V?$deque@PEAVTask@v8@@V?$allocator@PEAVTask@v8@@@std@@@std@@@std@@U?$less@PEAVIsolate@v8@@@4@V?$allocator@U?$pair@QEAVIsolate@v8@@V?$queue@PEAVTask@v8@@V?$deque@PEAVTask@v8@@V?$allocator@PEAVTask@v8@@@std@@@std@@@std@@@std@@@4@$0A@@std@@@std@@IEAA?AU?$pair@V?$_Tree_iterator@V?$_Tree_val@U?$_Tree_simple_types@U?$pair@QEAVIsolate@v8@@V?$queue@PEAVTask@v8@@V?$deque@PEAVTask@v8@@V?$allocator@PEAVTask@v8@@@std@@@std@@@std@@@std@@@std@@@std@@@std@@_N@1@_NAEAU?$pair@QEAVIsolate@v8@@V?$queue@PEAVTask@v8@@V?$deque@PEAVTask@v8@@V?$allocator@PEAVTask@v8@@@std@@@std@@@std@@@1@PEAU?$_Tree_node@U?$pair@QEAVIsolate@v8@@V?$queue@PEAVTask@v8@@V?$deque@PEAVTask@v8@@V?$allocator@PEAVTask@v8@@@std@@@std@@@std@@@std@@PEAX@1@@Z 000000018001ac18     v8_libplatform:default-platform.obj
 0004:00000c24       $pdata$??1?$pair@QEAVIsolate@v8@@V?$queue@PEAVTask@v8@@V?$deque@PEAVTask@v8@@V?$allocator@PEAVTask@v8@@@std@@@std@@@std@@@std@@QEAA@XZ 000000018001ac24     v8_libplatform:default-platform.obj
 0004:00000c30       $pdata$??1?$queue@PEAVTask@v8@@V?$deque@PEAVTask@v8@@V?$allocator@PEAVTask@v8@@@std@@@std@@@std@@QEAA@XZ 000000018001ac30     v8_libplatform:default-platform.obj
 0004:00000c30       $pdata$??1?$deque@PEAVTask@v8@@V?$allocator@PEAVTask@v8@@@std@@@std@@QEAA@XZ 000000018001ac30     v8_libplatform:default-platform.obj
 0004:00000c3c       $pdata$?_Tidy@?$deque@PEAVTask@v8@@V?$allocator@PEAVTask@v8@@@std@@@std@@IEAAXXZ 000000018001ac3c     v8_libplatform:default-platform.obj
 0004:00000c48       $pdata$??1?$_Deque_alloc@$0A@U?$_Deque_base_types@PEAVTask@v8@@V?$allocator@PEAVTask@v8@@@std@@@std@@@std@@QEAA@XZ 000000018001ac48     v8_libplatform:default-platform.obj
 0004:00000c54       $pdata$??0TaskQueue@platform@v8@@QEAA@XZ 000000018001ac54     v8_libplatform:task-queue.obj
 0004:00000c60       $pdata$??1TaskQueue@platform@v8@@QEAA@XZ 000000018001ac60     v8_libplatform:task-queue.obj
 0004:00000c6c       $pdata$??0WorkerThread@platform@v8@@QEAA@PEAVTaskQueue@12@@Z 000000018001ac6c     v8_libplatform:worker-thread.obj
 0004:00000c78       $pdata$??_GWorkerThread@platform@v8@@UEAAPEAXI@Z 000000018001ac78     v8_libplatform:worker-thread.obj
 0004:00000c84       $pdata$?Run@WorkerThread@platform@v8@@UEAAXXZ 000000018001ac84     v8_libplatform:worker-thread.obj
 0004:00000c90       $pdata$?ThreadEntry@base@v8@@YAIPEAX@Z 000000018001ac90     v8_libbase:platform-win32.obj
 0004:00000c9c       $pdata$??_GThread@base@v8@@UEAAPEAXI@Z 000000018001ac9c     v8_libbase:platform-win32.obj
 0004:00000cb4       $pdata$??_Etype_info@@UEAAPEAXI@Z 000000018001acb4     MSVCRT:ti_inst.obj
 0004:00000cc0       $pdata$__atonexitinit      000000018001acc0     MSVCRT:atonexit.obj
 0004:00000ccc       $pdata$_onexit             000000018001accc     MSVCRT:atonexit.obj
 0004:00000cd8       $pdata$atexit              000000018001acd8     MSVCRT:atonexit.obj
 0004:00000ce4       $pdata$pre_c_init          000000018001ace4     MSVCRT:crtdll.obj
 0004:00000cf0       $pdata$_CRT_INIT           000000018001acf0     MSVCRT:crtdll.obj
 0004:00000cfc       $pdata$_DllMainCRTStartup  000000018001acfc     MSVCRT:crtdll.obj
 0004:00000d08       $pdata$__DllMainCRTStartup 000000018001ad08     MSVCRT:crtdll.obj
 0004:00000d14       $pdata$__raise_securityfailure 000000018001ad14     MSVCRT:gs_report.obj
 0004:00000d20       $pdata$__report_gsfailure  000000018001ad20     MSVCRT:gs_report.obj
 0004:00000d2c       $pdata$??_M@YAXPEAX_KHP6AX0@Z@Z 000000018001ad2c     MSVCRT:ehvecdtr.obj
 0004:00000d38       $pdata$?__ArrayUnwind@@YAXPEAX_KHP6AX0@Z@Z 000000018001ad38     MSVCRT:ehvecdtr.obj
 0004:00000d44       $pdata$_IsNonwritableInCurrentImage 000000018001ad44     MSVCRT:pesect.obj
 0004:00000d50       $pdata$__security_init_cookie 000000018001ad50     MSVCRT:gs_support.obj
 0004:00000d5c       $pdata$DllMain             000000018001ad5c     MSVCRT:dllmain.obj
 0004:00000d68       $pdata$_RTC_Initialize     000000018001ad68     MSVCRT:initsect.obj
 0004:00000d74       $pdata$_RTC_Terminate      000000018001ad74     MSVCRT:initsect.obj
 0004:00000d80       $pdata$?dtor$7@?0??GetHandleProxy@V8EngineProxy@@QEAAPEAUHandleProxy@@V?$Handle@VValue@v8@@@v8@@@Z@4HA 000000018001ad80     V8EngineProxy.obj
 0004:00000d8c       $pdata$?catch$0@?0??Execute@V8EngineProxy@@QEAAPEAUHandleProxy@@PEBGPEAG@Z@4HA 000000018001ad8c     V8EngineProxy.obj
 0004:00000d98       $pdata$?catch$0@?0??Execute@V8EngineProxy@@QEAAPEAUHandleProxy@@V?$Handle@VScript@v8@@@v8@@@Z@4HA 000000018001ad98     V8EngineProxy.obj
 0004:00000da4       $pdata$?catch$0@?0??Compile@V8EngineProxy@@QEAAPEAUHandleProxy@@PEBGPEAG@Z@4HA 000000018001ada4     V8EngineProxy.obj
 0004:00000db0       $pdata$?dtor$7@?0??CreateArray@V8EngineProxy@@QEAAPEAUHandleProxy@@PEAPEAGG@Z@4HA 000000018001adb0     V8EngineProxy.obj
 0004:00000dbc       $pdata$?dtor$0@?0??push_back@?$vector@U_StringItem@@V?$allocator@U_StringItem@@@std@@@std@@QEAAXAEBU_StringItem@@@Z@4HA 000000018001adbc     V8EngineProxy.obj
 0004:00000dbc       $pdata$?dtor$0@?0??push_back@?$vector@HV?$allocator@H@std@@@std@@QEAAXAEBH@Z@4HA 000000018001adbc     V8EngineProxy.obj
 0004:00000dc8       $pdata$?catch$0@?0??_Construct_n@?$vector@U_StringItem@@V?$allocator@U_StringItem@@@std@@@std@@QEAAX_KPEBU_StringItem@@@Z@4HA 000000018001adc8     V8EngineProxy.obj
 0004:00000dd4       $pdata$?catch$0@?0??_Construct_n@?$vector@PEAUHandleProxy@@V?$allocator@PEAUHandleProxy@@@std@@@std@@QEAAX_KPEBQEAUHandleProxy@@@Z@4HA 000000018001add4     V8EngineProxy.obj
 0004:00000de0       $pdata$?catch$0@?0??_Construct_n@?$vector@HV?$allocator@H@std@@@std@@QEAAX_KPEBH@Z@4HA 000000018001ade0     V8EngineProxy.obj
 0004:00000dec       $pdata$?catch$0@?0??_Reallocate@?$vector@U_StringItem@@V?$allocator@U_StringItem@@@std@@@std@@IEAAX_K@Z@4HA 000000018001adec     V8EngineProxy.obj
 0004:00000df8       $pdata$?catch$0@?0??_Reallocate@?$vector@PEAUHandleProxy@@V?$allocator@PEAUHandleProxy@@@std@@@std@@IEAAX_K@Z@4HA 000000018001adf8     V8EngineProxy.obj
 0004:00000e04       $pdata$?catch$0@?0??_Reallocate@?$vector@HV?$allocator@H@std@@@std@@IEAAX_K@Z@4HA 000000018001ae04     V8EngineProxy.obj
 0004:00000e10       $pdata$?catch$0@?0??_Construct_n@?$vector@IV?$allocator@_N@std@@@std@@QEAAX_KPEBI@Z@4HA 000000018001ae10     V8EngineProxy.obj
 0004:00000e1c       $pdata$?catch$0@?0??resize@?$vector@IV?$allocator@_N@std@@@std@@QEAAX_KAEBI@Z@4HA 000000018001ae1c     V8EngineProxy.obj
 0004:00000e28       $pdata$?catch$0@?0??_Reallocate@?$vector@IV?$allocator@_N@std@@@std@@IEAAX_K@Z@4HA 000000018001ae28     V8EngineProxy.obj
 0004:00000e34       $pdata$?catch$0@?0???$_Uninit_fill_n@PEAU_StringItem@@_KU1@V?$allocator@U_StringItem@@@std@@U1@@std@@YAXPEAU_StringItem@@_KPEBU1@AEAU?$_Wrap_alloc@V?$allocator@U_StringItem@@@std@@@0@0U_Nonscalar_ptr_iterator_tag@0@@Z@4HA 000000018001ae34     V8EngineProxy.obj
 0004:00000e40       $pdata$?dtor$0@?0???$_Uninit_move@PEAU_StringItem@@PEAU1@V?$allocator@U_StringItem@@@std@@U1@@std@@YAPEAU_StringItem@@PEAU1@00AEAU?$_Wrap_alloc@V?$allocator@U_StringItem@@@std@@@0@0U_Nonscalar_ptr_iterator_tag@0@@Z@4HA 000000018001ae40     V8EngineProxy.obj
 0004:00000e4c       $pdata$?catch$0@?0???$_Uninit_move@PEAU_StringItem@@PEAU1@V?$allocator@U_StringItem@@@std@@U1@@std@@YAPEAU_StringItem@@PEAU1@00AEAU?$_Wrap_alloc@V?$allocator@U_StringItem@@@std@@@0@0U_Nonscalar_ptr_iterator_tag@0@@Z@4HA 000000018001ae4c     V8EngineProxy.obj
 0004:00000e58       $pdata$?catch$0@?0??_Reallocate@?$vector@PEAVWorkerThread@platform@v8@@V?$allocator@PEAVWorkerThread@platform@v8@@@std@@@std@@IEAAX_K@Z@4HA 000000018001ae58     v8_libplatform:default-platform.obj
 0004:00000e64       $pdata$?catch$1@?0??_Copy@?$basic_string@DU?$char_traits@D@std@@V?$allocator@D@2@@std@@QEAAX_K0@Z@4HA 000000018001ae64     v8_libplatform:default-platform.obj
 0004:00000e70       $pdata$?catch$0@?0??_Copy@?$basic_string@DU?$char_traits@D@std@@V?$allocator@D@2@@std@@QEAAX_K0@Z@4HA 000000018001ae70     v8_libplatform:default-platform.obj
 0004:00000e7c       $pdata$?catch$0@?0??_Buyheadnode@?$_Tree_alloc@$0A@U?$_Tree_base_types@U?$pair@QEAVIsolate@v8@@V?$queue@PEAVTask@v8@@V?$deque@PEAVTask@v8@@V?$allocator@PEAVTask@v8@@@std@@@std@@@std@@@std@@V?$allocator@U?$pair@QEAVIsolate@v8@@V?$queue@PEAVTask@v8@@V?$deque@PEAVTask@v8@@V?$allocator@PEAVTask@v8@@@std@@@std@@@std@@@std@@@2@@std@@@std@@QEAAPEAU?$_Tree_node@U?$pair@QEAVIsolate@v8@@V?$queue@PEAVTask@v8@@V?$deque@PEAVTask@v8@@V?$allocator@PEAVTask@v8@@@std@@@std@@@std@@@std@@PEAX@2@XZ@4HA 000000018001ae7c     v8_libplatform:default-platform.obj
 0004:00000e88       $pdata$?dtor$0@?0???$_Buynode@AEBUpiecewise_construct_t@std@@V?$tuple@AEBQEAVIsolate@v8@@@2@V?$tuple@$$$V@2@@?$_Tree_buy@U?$pair@QEAVIsolate@v8@@V?$queue@PEAVTask@v8@@V?$deque@PEAVTask@v8@@V?$allocator@PEAVTask@v8@@@std@@@std@@@std@@@std@@V?$allocator@U?$pair@QEAVIsolate@v8@@V?$queue@PEAVTask@v8@@V?$deque@PEAVTask@v8@@V?$allocator@PEAVTask@v8@@@std@@@std@@@std@@@std@@@2@@std@@QEAAPEAU?$_Tree_node@U?$pair@QEAVIsolate@v8@@V?$queue@PEAVTask@v8@@V?$deque@PEAVTask@v8@@V?$allocator@PEAVTask@v8@@@std@@@std@@@std@@@std@@PEAX@1@AEBUpiecewise_construct_t@1@$$QEAV?$tuple@AEBQEAVIsolate@v8@@@1@$$QEAV?$tuple@$$$V@1@@Z@4HA 000000018001ae88     v8_libplatform:default-platform.obj
 0004:00000e94       $pdata$?catch$0@?0???$_Buynode@AEBUpiecewise_construct_t@std@@V?$tuple@AEBQEAVIsolate@v8@@@2@V?$tuple@$$$V@2@@?$_Tree_buy@U?$pair@QEAVIsolate@v8@@V?$queue@PEAVTask@v8@@V?$deque@PEAVTask@v8@@V?$allocator@PEAVTask@v8@@@std@@@std@@@std@@@std@@V?$allocator@U?$pair@QEAVIsolate@v8@@V?$queue@PEAVTask@v8@@V?$deque@PEAVTask@v8@@V?$allocator@PEAVTask@v8@@@std@@@std@@@std@@@std@@@2@@std@@QEAAPEAU?$_Tree_node@U?$pair@QEAVIsolate@v8@@V?$queue@PEAVTask@v8@@V?$deque@PEAVTask@v8@@V?$allocator@PEAVTask@v8@@@std@@@std@@@std@@@std@@PEAX@1@AEBUpiecewise_construct_t@1@$$QEAV?$tuple@AEBQEAVIsolate@v8@@@1@$$QEAV?$tuple@$$$V@1@@Z@4HA 000000018001ae94     v8_libplatform:default-platform.obj
 0004:00000ea0       $pdata$?catch$0@?0???$_Insert_hint@AEAU?$pair@QEAVIsolate@v8@@V?$queue@PEAVTask@v8@@V?$deque@PEAVTask@v8@@V?$allocator@PEAVTask@v8@@@std@@@std@@@std@@@std@@PEAU?$_Tree_node@U?$pair@QEAVIsolate@v8@@V?$queue@PEAVTask@v8@@V?$deque@PEAVTask@v8@@V?$allocator@PEAVTask@v8@@@std@@@std@@@std@@@std@@PEAX@2@@?$_Tree@V?$_Tmap_traits@PEAVIsolate@v8@@V?$queue@PEAVTask@v8@@V?$deque@PEAVTask@v8@@V?$allocator@PEAVTask@v8@@@std@@@std@@@std@@U?$less@PEAVIsolate@v8@@@4@V?$allocator@U?$pair@QEAVIsolate@v8@@V?$queue@PEAVTask@v8@@V?$deque@PEAVTask@v8@@V?$allocator@PEAVTask@v8@@@std@@@std@@@std@@@std@@@4@$0A@@std@@@std@@IEAA?AV?$_Tree_iterator@V?$_Tree_val@U?$_Tree_simple_types@U?$pair@QEAVIsolate@v8@@V?$queue@PEAVTask@v8@@V?$deque@PEAVTask@v8@@V?$allocator@PEAVTask@v8@@@std@@@std@@@std@@@std@@@std@@@std@@@1@V?$_Tree_const_iterator@V?$_Tree_val@U?$_Tree_simple_types@U?$pair@QEAVIsolate@v8@@V?$queue@PEAVTask@v8@@V?$deque@PEAVTask@v8@@V?$allocator@PEAVTask@v8@@@std@@@std@@@std@@@std@@@std@@@std@@@1@AEAU?$pair@QEAVIsolate@v8@@V?$queue@PEAVTask@v8@@V?$deque@PEAVTask@v8@@V?$allocator@PEAVTask@v8@@@std@@@std@@@std@@@1@PEAU?$_Tree_node@U?$pair@QEAVIsolate@v8@@V?$queue@PEAVTask@v8@@V?$deque@PEAVTask@v8@@V?$allocator@PEAVTask@v8@@@std@@@std@@@std@@@std@@PEAX@1@@Z@4HA 000000018001aea0     v8_libplatform:default-platform.obj
 0004:00000eac       $pdata$?catch$0@?0??_Buynode0@?$_Tree_buy@U?$pair@QEAVIsolate@v8@@V?$queue@PEAVTask@v8@@V?$deque@PEAVTask@v8@@V?$allocator@PEAVTask@v8@@@std@@@std@@@std@@@std@@V?$allocator@U?$pair@QEAVIsolate@v8@@V?$queue@PEAVTask@v8@@V?$deque@PEAVTask@v8@@V?$allocator@PEAVTask@v8@@@std@@@std@@@std@@@std@@@2@@std@@QEAAPEAU?$_Tree_node@U?$pair@QEAVIsolate@v8@@V?$queue@PEAVTask@v8@@V?$deque@PEAVTask@v8@@V?$allocator@PEAVTask@v8@@@std@@@std@@@std@@@std@@PEAX@2@XZ@4HA 000000018001aeac     v8_libplatform:default-platform.obj
 0004:00000eb8       $pdata$?catch$0@?0???$_Insert_nohint@AEAU?$pair@QEAVIsolate@v8@@V?$queue@PEAVTask@v8@@V?$deque@PEAVTask@v8@@V?$allocator@PEAVTask@v8@@@std@@@std@@@std@@@std@@PEAU?$_Tree_node@U?$pair@QEAVIsolate@v8@@V?$queue@PEAVTask@v8@@V?$deque@PEAVTask@v8@@V?$allocator@PEAVTask@v8@@@std@@@std@@@std@@@std@@PEAX@2@@?$_Tree@V?$_Tmap_traits@PEAVIsolate@v8@@V?$queue@PEAVTask@v8@@V?$deque@PEAVTask@v8@@V?$allocator@PEAVTask@v8@@@std@@@std@@@std@@U?$less@PEAVIsolate@v8@@@4@V?$allocator@U?$pair@QEAVIsolate@v8@@V?$queue@PEAVTask@v8@@V?$deque@PEAVTask@v8@@V?$allocator@PEAVTask@v8@@@std@@@std@@@std@@@std@@@4@$0A@@std@@@std@@IEAA?AU?$pair@V?$_Tree_iterator@V?$_Tree_val@U?$_Tree_simple_types@U?$pair@QEAVIsolate@v8@@V?$queue@PEAVTask@v8@@V?$deque@PEAVTask@v8@@V?$allocator@PEAVTask@v8@@@std@@@std@@@std@@@std@@@std@@@std@@@std@@_N@1@_NAEAU?$pair@QEAVIsolate@v8@@V?$queue@PEAVTask@v8@@V?$deque@PEAVTask@v8@@V?$allocator@PEAVTask@v8@@@std@@@std@@@std@@@1@PEAU?$_Tree_node@U?$pair@QEAVIsolate@v8@@V?$queue@PEAVTask@v8@@V?$deque@PEAVTask@v8@@V?$allocator@PEAVTask@v8@@@std@@@std@@@std@@@std@@PEAX@1@@Z@4HA 000000018001aeb8     v8_libplatform:default-platform.obj
 0004:00000ec4       $pdata$_onexit$fin$0       000000018001aec4     MSVCRT:atonexit.obj
 0004:00000ed0       $pdata$__DllMainCRTStartup$filt$0 000000018001aed0     MSVCRT:crtdll.obj
 0004:00000edc       $pdata$__DllMainCRTStartup$fin$1 000000018001aedc     MSVCRT:crtdll.obj
 0004:00000ee8       $pdata$?fin$0@?0???_M@YAXPEAX_KHP6AX0@Z@Z@4HA 000000018001aee8     MSVCRT:ehvecdtr.obj
 0004:00000ef4       $pdata$?filt$0@?0??__ArrayUnwind@@YAXPEAX_KHP6AX0@Z@Z@4HA 000000018001aef4     MSVCRT:ehvecdtr.obj
 0004:00000f00       $pdata$_IsNonwritableInCurrentImage$filt$0 000000018001af00     MSVCRT:pesect.obj
 0004:00000f0c       $pdata$??__F?_DisposedEngines@V8EngineProxy@@1V?$vector@_NV?$allocator@_N@std@@@std@@A@@YAXXZ 000000018001af0c     V8EngineProxy.obj
 0005:000000a0       $R000000                   000000018001b0a0     V8.Net-Proxy-64.res
 0005:00000420       $R000380                   000000018001b420     V8.Net-Proxy-64.res

 Exports

  ordinal    name

        1    Call
        2    ConnectObject
        3    CreateArray
        4    CreateBoolean
        5    CreateDate
        6    CreateError
        7    CreateFunctionInstance
        8    CreateFunctionTemplateProxy
        9    CreateFunctionTemplateProxyTest
       10    CreateHandleProxyTest
       11    CreateInteger
       12    CreateNullValue
       13    CreateNumber
       14    CreateObject
       15    CreateObjectFromTemplate
       16    CreateObjectTemplateProxy
       17    CreateObjectTemplateProxyTest
       18    CreateString
       19    CreateStringArray
       20    CreateV8EngineProxy
       21    CreateV8EngineProxyTest
       22    DeleteFunctionTemplateProxy
       23    DeleteObjectPropertyByIndex
       24    DeleteObjectPropertyByName
       25    DeleteObjectTemplateProxy
       26    DeleteTestData
       27    DestroyV8EngineProxy
       28    DisposeHandleProxy
       29    DoIdleNotification
       30    ForceGC
       31    GetArrayLength
       32    GetFunction
       33    GetFunctionInstanceTemplateProxy
       34    GetFunctionPrototypeTemplateProxy
       35    GetHandleManagedObjectID
       36    GetObjectPropertyByIndex
       37    GetObjectPropertyByName
       38    GetObjectPrototype
       39    GetOwnPropertyNames
       40    GetPropertyAttributes
       41    GetPropertyNames
       42    MakeStrongHandle
       43    MakeWeakHandle
       44    RegisterGCCallback
       45    RegisterIndexedPropertyHandlers
       46    RegisterInvokeHandler
       47    RegisterNamedPropertyHandlers
       48    SetFunctionTemplateProperty
       49    SetGlobalObjectTemplate
       50    SetObjectAccessor
       51    SetObjectPropertyByIndex
       52    SetObjectPropertyByName
       53    SetObjectTemplateAccessor
       54    SetObjectTemplateProperty
       55    UnregisterIndexedPropertyHandlers
       56    UnregisterNamedPropertyHandlers
       57    UpdateHandleValue
       58    V8Compile
       59    V8Execute
       60    V8ExecuteCompiledScript
