 V8_Net_Proxy_x86

 Timestamp is 54c6cc0e (Mon Jan 26 18:21:50 2015)

 Preferred load address is 10000000

 Start         Length     Name                   Class
 0001:00000000 000007adH .text$di                CODE
 0001:000007b0 000304f8H .text$mn                CODE
 0001:00030cb0 000045e6H .text$x                 CODE
 0001:000352a0 0000006fH .text$yd                CODE
 0002:00000000 0000036cH .idata$5                DATA
 0002:0000036c 00000004H .CRT$XCA                DATA
 0002:00000370 000000c8H .CRT$XCU                DATA
 0002:00000438 00000004H .CRT$XCZ                DATA
 0002:0000043c 00000004H .CRT$XIA                DATA
 0002:00000440 00000004H .CRT$XIAA               DATA
 0002:00000444 00000004H .CRT$XIC                DATA
 0002:00000448 00000004H .CRT$XIZ                DATA
 0002:00000450 00003b10H .rdata                  DATA
 0002:00003f60 0000007cH .rdata$debug            DATA
 0002:00003fdc 00000048H .rdata$r                DATA
 0002:00004030 00000414H .rdata$sxdata           DATA
 0002:00004444 00000004H .rtc$IAA                DATA
 0002:00004448 00000000H .rtc$IMZ                DATA
 0002:00004448 00000004H .rtc$IZZ                DATA
 0002:0000444c 00000004H .rtc$TAA                DATA
 0002:00004450 00000000H .rtc$TMZ                DATA
 0002:00004450 00000004H .rtc$TZZ                DATA
 0002:00004458 00003dd0H .xdata$x                DATA
 0002:00008230 00000845H .edata                  DATA
 0002:00008a78 00000050H .idata$2                DATA
 0002:00008ac8 00000014H .idata$3                DATA
 0002:00008adc 0000036cH .idata$4                DATA
 0002:00008e48 000023d6H .idata$6                DATA
 0003:00000000 00000030H .data                   DATA
 0003:00000030 00000034H .data$r                 DATA
 0003:00000070 000004ecH .bss                    DATA
 0004:00000000 000000a0H .rsrc$01                DATA
 0004:000000a0 00000500H .rsrc$02                DATA

  Address         Publics by Value              Rva+Base       Lib:Object

 0000:00000000       ___guard_fids_count        00000000     <absolute>
 0000:00000000       ___guard_flags             00000000     <absolute>
 0000:00000000       __except_list              00000000     <absolute>
 0000:00000000       ___guard_fids_table        00000000     <absolute>
 0000:00000105       ___safe_se_handler_count   00000105     <absolute>
 0000:00009876       __ldused                   00009876     <absolute>
 0000:00009876       __fltused                  00009876     <absolute>
 0000:00000000       ___ImageBase               10000000     <linker-defined>
 0001:000007b0       ??$?0VArray@v8@@@?$Handle@VValue@v8@@@v8@@QAE@V?$Handle@VArray@v8@@@1@@Z 100017b0 f i Exports.obj
 0001:00000810       ??$?0VExternal@v8@@@?$Handle@VValue@v8@@@v8@@QAE@V?$Handle@VExternal@v8@@@1@@Z 10001810 f i Exports.obj
 0001:00000870       ??$?0VInteger@v8@@@?$Handle@VValue@v8@@@v8@@QAE@V?$Handle@VInteger@v8@@@1@@Z 10001870 f i Exports.obj
 0001:000008d0       ??$?0VPrimitive@v8@@@?$Handle@VValue@v8@@@v8@@QAE@V?$Handle@VPrimitive@v8@@@1@@Z 100018d0 f i Exports.obj
 0001:00000930       ??$?0VString@v8@@@?$Handle@VValue@v8@@@v8@@QAE@V?$Handle@VString@v8@@@1@@Z 10001930 f i Exports.obj
 0001:00000990       ??$As@VArray@v8@@@?$Handle@VValue@v8@@@v8@@QAE?AV?$Handle@VArray@v8@@@1@XZ 10001990 f i Exports.obj
 0001:000009e0       ??$As@VObject@v8@@@?$Handle@VValue@v8@@@v8@@QAE?AV?$Handle@VObject@v8@@@1@XZ 100019e0 f i Exports.obj
 0001:00000a30       ??$Cast@VValue@v8@@@?$Handle@VArray@v8@@@v8@@SA?AV01@V?$Handle@VValue@v8@@@1@@Z 10001a30 f i Exports.obj
 0001:00000a90       ??$Cast@VValue@v8@@@?$Handle@VObject@v8@@@v8@@SA?AV01@V?$Handle@VValue@v8@@@1@@Z 10001a90 f i Exports.obj
 0001:00000af0       ??0?$Handle@VArray@v8@@@v8@@AAE@PAVArray@1@@Z 10001af0 f i Exports.obj
 0001:00000b30       ??0?$Handle@VObject@v8@@@v8@@AAE@PAVObject@1@@Z 10001b30 f i Exports.obj
 0001:00000b70       ??0?$Handle@VPrimitive@v8@@@v8@@AAE@PAVPrimitive@1@@Z 10001b70 f i Exports.obj
 0001:00000bb0       ??0Scope@Context@v8@@QAE@V?$Handle@VContext@v8@@@2@@Z 10001bb0 f i Exports.obj
 0001:00000c10       ??0_Ignore@std@@QAE@XZ     10001c10 f i Exports.obj
 0001:00000c40       ??1Scope@Context@v8@@QAE@XZ 10001c40 f i Exports.obj
 0001:00000c90       ??C?$Handle@VArray@v8@@@v8@@QBEPAVArray@1@XZ 10001c90 f i Exports.obj
 0001:00000cc0       ??C?$Handle@VContext@v8@@@v8@@QBEPAVContext@1@XZ 10001cc0 f i Exports.obj
 0001:00000cf0       ??C?$Handle@VObject@v8@@@v8@@QBEPAVObject@1@XZ 10001cf0 f i Exports.obj
 0001:00000d20       ??C?$Handle@VValue@v8@@@v8@@QBEPAVValue@1@XZ 10001d20 f i Exports.obj
 0001:00000d50       ??D?$Handle@VArray@v8@@@v8@@QBEPAVArray@1@XZ 10001d50 f i Exports.obj
 0001:00000d80       ??D?$Handle@VExternal@v8@@@v8@@QBEPAVExternal@1@XZ 10001d80 f i Exports.obj
 0001:00000db0       ??D?$Handle@VInteger@v8@@@v8@@QBEPAVInteger@1@XZ 10001db0 f i Exports.obj
 0001:00000de0       ??D?$Handle@VPrimitive@v8@@@v8@@QBEPAVPrimitive@1@XZ 10001de0 f i Exports.obj
 0001:00000e10       ??D?$Handle@VString@v8@@@v8@@QBEPAVString@1@XZ 10001e10 f i Exports.obj
 0001:00000e40       ??D?$Handle@VValue@v8@@@v8@@QBEPAVValue@1@XZ 10001e40 f i Exports.obj
 0001:00000e70       ??_GFunctionTemplateProxy@@QAEPAXI@Z 10001e70 f i Exports.obj
 0001:00000ed0       ??_GObjectTemplateProxy@@QAEPAXI@Z 10001ed0 f i Exports.obj
 0001:00000f30       ??_GV8EngineProxy@@QAEPAXI@Z 10001f30 f i Exports.obj
 0001:00000f90       ?CheckInitialized@Internals@internal@v8@@SAXPAVIsolate@3@@Z 10001f90 f i Exports.obj
 0001:00000fc0       ?EngineProxy@FunctionTemplateProxy@@QAEPAVV8EngineProxy@@XZ 10001fc0 f i Exports.obj
 0001:00000ff0       ?EngineProxy@HandleProxy@@QAEPAVV8EngineProxy@@XZ 10001ff0 f i Exports.obj
 0001:00001020       ?EngineProxy@ObjectTemplateProxy@@QAEPAVV8EngineProxy@@XZ 10002020 f i Exports.obj
 0001:00001050       ?GetNextNonTemplateObjectID@V8EngineProxy@@QAEHXZ 10002050 f i Exports.obj
 0001:000010a0       ?GetRoot@Internals@internal@v8@@SAPAPAVObject@23@PAVIsolate@3@H@Z 100020a0 f i Exports.obj
 0001:000010e0       ?GetType@ProxyBase@@QAE?AW4TProxyObjectType@@XZ 100020e0 f i Exports.obj
 0001:00001110       ?IsEmpty@?$Handle@VValue@v8@@@v8@@QBE_NXZ 10002110 f i Exports.obj
 0001:00001160       ?IsScript@HandleProxy@@QAE_NXZ 10002160 f i Exports.obj
 0001:000011b0       ?SetManagedObjectID@HandleProxy@@QAEHH@Z 100021b0 f i Exports.obj
 0001:000011f0       ?Undefined@v8@@YA?AV?$Handle@VPrimitive@v8@@@1@PAVIsolate@1@@Z 100021f0 f i Exports.obj
 0001:00001250       _Call@20                   10002250 f   Exports.obj
 0001:00001480       _ConnectObject@12          10002480 f   Exports.obj
 0001:00001830       _CreateArray@12            10002830 f   Exports.obj
 0001:00001a50       _CreateBoolean@8           10002a50 f   Exports.obj
 0001:00001c70       _CreateDate@12             10002c70 f   Exports.obj
 0001:00001e90       _CreateError@12            10002e90 f   Exports.obj
 0001:000020b0       _CreateFunctionInstance@16 100030b0 f   Exports.obj
 0001:000022e0       _CreateFunctionTemplateProxy@12 100032e0 f   Exports.obj
 0001:00002470       _CreateFunctionTemplateProxyTest@0 10003470 f   Exports.obj
 0001:00002500       _CreateHandleProxyTest@0   10003500 f   Exports.obj
 0001:00002590       _CreateInteger@8           10003590 f   Exports.obj
 0001:000027b0       _CreateNullValue@4         100037b0 f   Exports.obj
 0001:000029c0       _CreateNumber@12           100039c0 f   Exports.obj
 0001:00002be0       _CreateObject@8            10003be0 f   Exports.obj
 0001:00002e00       _CreateObjectFromTemplate@8 10003e00 f   Exports.obj
 0001:00003020       _CreateObjectTemplateProxy@4 10004020 f   Exports.obj
 0001:000031b0       _CreateObjectTemplateProxyTest@0 100041b0 f   Exports.obj
 0001:00003240       _CreateString@8            10004240 f   Exports.obj
 0001:00003460       _CreateStringArray@12      10004460 f   Exports.obj
 0001:00003680       _CreateV8EngineProxy@12    10004680 f   Exports.obj
 0001:00003750       _CreateV8EngineProxyTest@0 10004750 f   Exports.obj
 0001:000037e0       _DeleteFunctionTemplateProxy@4 100047e0 f   Exports.obj
 0001:000039a0       _DeleteObjectPropertyByIndex@8 100049a0 f   Exports.obj
 0001:00003c80       _DeleteObjectPropertyByName@8 10004c80 f   Exports.obj
 0001:00003fa0       _DeleteObjectTemplateProxy@4 10004fa0 f   Exports.obj
 0001:00004160       _DeleteTestData@4          10005160 f   Exports.obj
 0001:000042c0       _DestroyV8EngineProxy@4    100052c0 f   Exports.obj
 0001:00004340       _DisposeHandleProxy@4      10005340 f   Exports.obj
 0001:00004520       _DoIdleNotification@8      10005520 f   Exports.obj
 0001:00004550       _ForceGC@4                 10005550 f   Exports.obj
 0001:00004700       _GetArrayLength@4          10005700 f   Exports.obj
 0001:000049c0       _GetFunction@4             100059c0 f   Exports.obj
 0001:00004be0       _GetFunctionInstanceTemplateProxy@4 10005be0 f   Exports.obj
 0001:00004e00       _GetFunctionPrototypeTemplateProxy@4 10005e00 f   Exports.obj
 0001:00005020       _GetHandleManagedObjectID@4 10006020 f   Exports.obj
 0001:00005250       _GetObjectPropertyByIndex@8 10006250 f   Exports.obj
 0001:00005550       _GetObjectPropertyByName@8 10006550 f   Exports.obj
 0001:00005890       _GetObjectPrototype@4      10006890 f   Exports.obj
 0001:00005b80       _GetOwnPropertyNames@4     10006b80 f   Exports.obj
 0001:00005ea0       _GetPropertyAttributes@8   10006ea0 f   Exports.obj
 0001:000061c0       _GetPropertyNames@4        100071c0 f   Exports.obj
 0001:000064e0       _MakeStrongHandle@4        100074e0 f   Exports.obj
 0001:000066c0       _MakeWeakHandle@4          100076c0 f   Exports.obj
 0001:000068a0       _RegisterGCCallback@8      100078a0 f   Exports.obj
 0001:00006a70       _RegisterIndexedPropertyHandlers@24 10007a70 f   Exports.obj
 0001:00006c10       _RegisterInvokeHandler@8   10007c10 f   Exports.obj
 0001:00006da0       _RegisterNamedPropertyHandlers@24 10007da0 f   Exports.obj
 0001:00006f40       _SetFunctionTemplateProperty@16 10007f40 f   Exports.obj
 0001:00007120       _SetGlobalObjectTemplate@8 10008120 f   Exports.obj
 0001:000072b0       _SetObjectAccessor@28      100082b0 f   Exports.obj
 0001:00007790       _SetObjectPropertyByIndex@12 10008790 f   Exports.obj
 0001:00007af0       _SetObjectPropertyByName@16 10008af0 f   Exports.obj
 0001:00007e90       _SetObjectTemplateAccessor@28 10008e90 f   Exports.obj
 0001:00008070       _SetObjectTemplateProperty@16 10009070 f   Exports.obj
 0001:00008250       _UnregisterIndexedPropertyHandlers@4 10009250 f   Exports.obj
 0001:000083e0       _UnregisterNamedPropertyHandlers@4 100093e0 f   Exports.obj
 0001:00008570       _UpdateHandleValue@4       10009570 f   Exports.obj
 0001:00008750       _V8Compile@12              10009750 f   Exports.obj
 0001:00008970       _V8Execute@12              10009970 f   Exports.obj
 0001:00008b90       _V8ExecuteCompiledScript@8 10009b90 f   Exports.obj
 0001:00008e40       ??$?0VExternal@v8@@@?$Local@VExternal@v8@@@v8@@AAE@PAVExternal@1@@Z 10009e40 f i FunctionTemplateProxy.obj
 0001:00008e90       ??$?0VFunction@v8@@@?$Handle@VValue@v8@@@v8@@QAE@V?$Handle@VFunction@v8@@@1@@Z 10009e90 f i FunctionTemplateProxy.obj
 0001:00008ef0       ??$?0VFunctionTemplate@v8@@@?$Local@VFunctionTemplate@v8@@@v8@@AAE@PAVFunctionTemplate@1@@Z 10009ef0 f i FunctionTemplateProxy.obj
 0001:00008f40       ??$?0VFunctionTemplate@v8@@@?$Persistent@VFunctionTemplate@v8@@U?$CopyablePersistentTraits@VFunctionTemplate@v8@@@2@@v8@@QAE@PAVIsolate@1@V?$Handle@VFunctionTemplate@v8@@@1@@Z 10009f40 f i FunctionTemplateProxy.obj
 0001:00008fb0       ??$?0VObject@v8@@@?$Handle@VValue@v8@@@v8@@QAE@V?$Handle@VObject@v8@@@1@@Z 10009fb0 f i FunctionTemplateProxy.obj
 0001:00009010       ??$?0VObject@v8@@@?$Local@VObject@v8@@@v8@@AAE@PAVObject@1@@Z 1000a010 f i FunctionTemplateProxy.obj
 0001:00009060       ??$?0VPrimitive@v8@@@?$Local@VValue@v8@@@v8@@AAE@PAVPrimitive@1@@Z 1000a060 f i FunctionTemplateProxy.obj
 0001:000090b0       ??$?0VString@v8@@@?$Handle@VName@v8@@@v8@@QAE@V?$Handle@VString@v8@@@1@@Z 1000a0b0 f i FunctionTemplateProxy.obj
 0001:00009110       ??$?0VValue@v8@@@?$Handle@VData@v8@@@v8@@QAE@V?$Handle@VValue@v8@@@1@@Z 1000a110 f i FunctionTemplateProxy.obj
 0001:00009170       ??$?0VValue@v8@@@?$Local@VValue@v8@@@v8@@AAE@PAVValue@1@@Z 1000a170 f i FunctionTemplateProxy.obj
 0001:000091c0       ??$As@VExternal@v8@@@?$Local@VValue@v8@@@v8@@QAE?AV?$Local@VExternal@v8@@@1@XZ 1000a1c0 f i FunctionTemplateProxy.obj
 0001:00009210       ??$Cast@VValue@v8@@@?$Local@VExternal@v8@@@v8@@SA?AV01@V?$Local@VValue@v8@@@1@@Z 1000a210 f i FunctionTemplateProxy.obj
 0001:00009270       ??$Copy@VFunctionTemplate@v8@@U?$CopyablePersistentTraits@VFunctionTemplate@v8@@@2@@?$CopyablePersistentTraits@VFunctionTemplate@v8@@@v8@@SAXABV?$Persistent@VFunctionTemplate@v8@@U?$CopyablePersistentTraits@VFunctionTemplate@v8@@@2@@1@PAV21@@Z 1000a270 f i FunctionTemplateProxy.obj
 0001:000092a0       ??$Copy@VFunctionTemplate@v8@@U?$CopyablePersistentTraits@VFunctionTemplate@v8@@@2@@?$Persistent@VFunctionTemplate@v8@@U?$CopyablePersistentTraits@VFunctionTemplate@v8@@@2@@v8@@AAEXABV01@@Z 1000a2a0 f i FunctionTemplateProxy.obj
 0001:00009340       ??$Set@VValue@v8@@@?$ReturnValue@VValue@v8@@@v8@@QAEXV?$Handle@VValue@v8@@@1@@Z 1000a340 f i FunctionTemplateProxy.obj
 0001:000093c0       ??0?$CopyablePersistent@VFunctionTemplate@v8@@@@QAE@AAV?$Handle@VFunctionTemplate@v8@@@v8@@@Z 1000a3c0 f i FunctionTemplateProxy.obj
 0001:000094a0       ??0?$CopyablePersistent@VFunctionTemplate@v8@@@@QAE@XZ 1000a4a0 f i FunctionTemplateProxy.obj
 0001:00009520       ??0?$Handle@VExternal@v8@@@v8@@AAE@PAVExternal@1@@Z 1000a520 f i FunctionTemplateProxy.obj
 0001:00009560       ??0?$Handle@VFunctionTemplate@v8@@@v8@@AAE@PAVFunctionTemplate@1@@Z 1000a560 f i FunctionTemplateProxy.obj
 0001:000095a0       ??0?$Handle@VFunctionTemplate@v8@@@v8@@QAE@XZ 1000a5a0 f i FunctionTemplateProxy.obj
 0001:000095e0       ??0?$Handle@VSignature@v8@@@v8@@QAE@XZ 1000a5e0 f i FunctionTemplateProxy.obj
 0001:00009620       ??0?$Handle@VValue@v8@@@v8@@AAE@PAVValue@1@@Z 1000a620 f i FunctionTemplateProxy.obj
 0001:00009660       ??0?$Handle@VValue@v8@@@v8@@QAE@XZ 1000a660 f i FunctionTemplateProxy.obj
 0001:000096a0       ??0?$Local@VFunctionTemplate@v8@@@v8@@QAE@XZ 1000a6a0 f i FunctionTemplateProxy.obj
 0001:000096f0       ??0?$Persistent@VFunctionTemplate@v8@@U?$CopyablePersistentTraits@VFunctionTemplate@v8@@@2@@v8@@QAE@XZ 1000a6f0 f i FunctionTemplateProxy.obj
 0001:00009740       ??0?$PersistentBase@VFunctionTemplate@v8@@@v8@@AAE@PAVFunctionTemplate@1@@Z 1000a740 f i FunctionTemplateProxy.obj
 0001:00009780       ??0?$ReturnValue@VValue@v8@@@v8@@AAE@PAPAVObject@internal@1@@Z 1000a780 f i FunctionTemplateProxy.obj
 0001:000097c0       ??0FunctionTemplateProxy@@QAE@PAVV8EngineProxy@@PAGP6GPAUHandleProxy@@H_NPAU2@PAPAU2@I@Z@Z 1000a7c0 f   FunctionTemplateProxy.obj
 0001:00009a90       ??0ProxyBase@@IAE@W4TProxyObjectType@@@Z 1000aa90 f i FunctionTemplateProxy.obj
 0001:00009ad0       ??1?$CopyablePersistent@VFunctionTemplate@v8@@@@QAE@XZ 1000aad0 f i FunctionTemplateProxy.obj
 0001:00009b60       ??1?$Persistent@VFunctionTemplate@v8@@U?$CopyablePersistentTraits@VFunctionTemplate@v8@@@2@@v8@@QAE@XZ 1000ab60 f i FunctionTemplateProxy.obj
 0001:00009bb0       ??1FunctionTemplateProxy@@QAE@XZ 1000abb0 f   FunctionTemplateProxy.obj
 0001:00009df0       ??4?$CopyablePersistent@VFunctionTemplate@v8@@@@QAEAAU0@ABU0@@Z 1000adf0 f i FunctionTemplateProxy.obj
 0001:00009e40       ??4?$Persistent@VFunctionTemplate@v8@@U?$CopyablePersistentTraits@VFunctionTemplate@v8@@@2@@v8@@QAEAAV01@ABV01@@Z 1000ae40 f i FunctionTemplateProxy.obj
 0001:00009e90       ??A?$FunctionCallbackInfo@VValue@v8@@@v8@@QBE?AV?$Local@VValue@v8@@@1@H@Z 1000ae90 f i FunctionTemplateProxy.obj
 0001:00009f30       ??C?$CopyablePersistent@VFunctionTemplate@v8@@@@QBEPAVFunctionTemplate@v8@@XZ 1000af30 f i FunctionTemplateProxy.obj
 0001:00009f80       ??C?$Handle@VExternal@v8@@@v8@@QBEPAVExternal@1@XZ 1000af80 f i FunctionTemplateProxy.obj
 0001:00009fb0       ??C?$Handle@VFunction@v8@@@v8@@QBEPAVFunction@1@XZ 1000afb0 f i FunctionTemplateProxy.obj
 0001:00009fe0       ??D?$Handle@VFunction@v8@@@v8@@QBEPAVFunction@1@XZ 1000afe0 f i FunctionTemplateProxy.obj
 0001:0000a010       ??D?$Handle@VFunctionTemplate@v8@@@v8@@QBEPAVFunctionTemplate@1@XZ 1000b010 f i FunctionTemplateProxy.obj
 0001:0000a040       ??D?$Handle@VObject@v8@@@v8@@QBEPAVObject@1@XZ 1000b040 f i FunctionTemplateProxy.obj
 0001:0000a070       ??_H@YGXPAXIHP6EPAX0@Z@Z   1000b070 f i FunctionTemplateProxy.obj
 0001:0000a0d0       ?CreateInstance@FunctionTemplateProxy@@QAEPAUHandleProxy@@HHPAPAU2@@Z 1000b0d0 f   FunctionTemplateProxy.obj
 0001:0000a3f0       ?Data@?$FunctionCallbackInfo@VValue@v8@@@v8@@QBE?AV?$Local@VValue@v8@@@2@XZ 1000b3f0 f i FunctionTemplateProxy.obj
 0001:0000a450       ?GetDefaultValue@?$ReturnValue@VValue@v8@@@v8@@AAEPAVObject@internal@2@XZ 1000b450 f i FunctionTemplateProxy.obj
 0001:0000a490       ?GetFunction@FunctionTemplateProxy@@QAEPAUHandleProxy@@XZ 1000b490 f   FunctionTemplateProxy.obj
 0001:0000a540       ?GetInstanceTemplateProxy@FunctionTemplateProxy@@QAEPAVObjectTemplateProxy@@XZ 1000b540 f   FunctionTemplateProxy.obj
 0001:0000a570       ?GetIsolate@?$FunctionCallbackInfo@VValue@v8@@@v8@@QBEPAVIsolate@2@XZ 1000b570 f i FunctionTemplateProxy.obj
 0001:0000a5b0       ?GetPrototypeTemplateProxy@FunctionTemplateProxy@@QAEPAVObjectTemplateProxy@@XZ 1000b5b0 f   FunctionTemplateProxy.obj
 0001:0000a5e0       ?GetReturnValue@?$FunctionCallbackInfo@VValue@v8@@@v8@@QBE?AV?$ReturnValue@VValue@v8@@@2@XZ 1000b5e0 f i FunctionTemplateProxy.obj
 0001:0000a640       ?Handle@?$CopyablePersistent@VFunctionTemplate@v8@@@@QBE?AV?$Local@VFunctionTemplate@v8@@@v8@@XZ 1000b640 f i FunctionTemplateProxy.obj
 0001:0000a6a0       ?Holder@?$FunctionCallbackInfo@VValue@v8@@@v8@@QBE?AV?$Local@VObject@v8@@@2@XZ 1000b6a0 f i FunctionTemplateProxy.obj
 0001:0000a700       ?InvocationCallbackProxy@FunctionTemplateProxy@@SAXABV?$FunctionCallbackInfo@VValue@v8@@@v8@@@Z 1000b700 f   FunctionTemplateProxy.obj
 0001:0000a9e0       ?IsConstructCall@?$FunctionCallbackInfo@VValue@v8@@@v8@@QBE_NXZ 1000b9e0 f i FunctionTemplateProxy.obj
 0001:0000aa10       ?IsEmpty@?$CopyablePersistent@VFunctionTemplate@v8@@@@QBE_NXZ 1000ba10 f i FunctionTemplateProxy.obj
 0001:0000aa50       ?IsEmpty@?$PersistentBase@VFunctionTemplate@v8@@@v8@@QBE_NXZ 1000ba50 f i FunctionTemplateProxy.obj
 0001:0000aaa0       ?IsError@HandleProxy@@QAE_NXZ 1000baa0 f i FunctionTemplateProxy.obj
 0001:0000aaf0       ?Length@?$FunctionCallbackInfo@VValue@v8@@@v8@@QBEHXZ 1000baf0 f i FunctionTemplateProxy.obj
 0001:0000ab20       ?New@?$Local@VFunctionTemplate@v8@@@v8@@CA?AV12@PAVIsolate@2@PAVFunctionTemplate@2@@Z 1000bb20 f i FunctionTemplateProxy.obj
 0001:0000aba0       ?New@?$Local@VFunctionTemplate@v8@@@v8@@SA?AV12@PAVIsolate@2@ABV?$PersistentBase@VFunctionTemplate@v8@@@2@@Z 1000bba0 f i FunctionTemplateProxy.obj
 0001:0000abf0       ?New@?$PersistentBase@VFunctionTemplate@v8@@@v8@@CAPAVFunctionTemplate@2@PAVIsolate@2@PAV32@@Z 1000bbf0 f i FunctionTemplateProxy.obj
 0001:0000ac50       ?Reset@?$CopyablePersistent@VFunctionTemplate@v8@@@@QAEXXZ 1000bc50 f i FunctionTemplateProxy.obj
 0001:0000ac90       ?Reset@?$PersistentBase@VFunctionTemplate@v8@@@v8@@QAEXXZ 1000bc90 f i FunctionTemplateProxy.obj
 0001:0000ad00       ?Set@FunctionTemplateProxy@@QAEXPBGPAUHandleProxy@@W4PropertyAttribute@v8@@@Z 1000bd00 f   FunctionTemplateProxy.obj
 0001:0000adc0       ?SetManagedCallback@FunctionTemplateProxy@@QAEXP6GPAUHandleProxy@@H_NPAU2@PAPAU2@I@Z@Z 1000bdc0 f   FunctionTemplateProxy.obj
 0001:0000ae00       ??$?0VScript@v8@@@?$Local@VScript@v8@@@v8@@AAE@PAVScript@1@@Z 1000be00 f i HandleProxy.obj
 0001:0000ae50       ??$?0VScript@v8@@@?$Persistent@VScript@v8@@U?$CopyablePersistentTraits@VScript@v8@@@2@@v8@@QAE@PAVIsolate@1@V?$Handle@VScript@v8@@@1@@Z 1000be50 f i HandleProxy.obj
 0001:0000aec0       ??$?0VString@v8@@@?$Local@VString@v8@@@v8@@AAE@PAVString@1@@Z 1000bec0 f i HandleProxy.obj
 0001:0000af10       ??$?0VValue@v8@@@?$Persistent@VValue@v8@@U?$CopyablePersistentTraits@VValue@v8@@@2@@v8@@QAE@PAVIsolate@1@V?$Handle@VValue@v8@@@1@@Z 1000bf10 f i HandleProxy.obj
 0001:0000af80       ??$As@VObject@v8@@@?$CopyablePersistent@VValue@v8@@@@QAE?AV?$Local@VObject@v8@@@v8@@XZ 1000bf80 f i HandleProxy.obj
 0001:0000afe0       ??$As@VObject@v8@@@?$Local@VValue@v8@@@v8@@QAE?AV?$Local@VObject@v8@@@1@XZ 1000bfe0 f i HandleProxy.obj
 0001:0000b030       ??$As@VString@v8@@@?$CopyablePersistent@VValue@v8@@@@QAE?AV?$Local@VString@v8@@@v8@@XZ 1000c030 f i HandleProxy.obj
 0001:0000b090       ??$As@VString@v8@@@?$Local@VValue@v8@@@v8@@QAE?AV?$Local@VString@v8@@@1@XZ 1000c090 f i HandleProxy.obj
 0001:0000b0e0       ??$Cast@VValue@v8@@@?$Local@VObject@v8@@@v8@@SA?AV01@V?$Local@VValue@v8@@@1@@Z 1000c0e0 f i HandleProxy.obj
 0001:0000b140       ??$Cast@VValue@v8@@@?$Local@VString@v8@@@v8@@SA?AV01@V?$Local@VValue@v8@@@1@@Z 1000c140 f i HandleProxy.obj
 0001:0000b1a0       ??$ClearWeak@X@?$PersistentBase@VValue@v8@@@v8@@QAEPAXXZ 1000c1a0 f i HandleProxy.obj
 0001:0000b1f0       ??$Copy@VScript@v8@@U?$CopyablePersistentTraits@VScript@v8@@@2@@?$CopyablePersistentTraits@VScript@v8@@@v8@@SAXABV?$Persistent@VScript@v8@@U?$CopyablePersistentTraits@VScript@v8@@@2@@1@PAV21@@Z 1000c1f0 f i HandleProxy.obj
 0001:0000b220       ??$Copy@VScript@v8@@U?$CopyablePersistentTraits@VScript@v8@@@2@@?$Persistent@VScript@v8@@U?$CopyablePersistentTraits@VScript@v8@@@2@@v8@@AAEXABV01@@Z 1000c220 f i HandleProxy.obj
 0001:0000b2c0       ??$Copy@VValue@v8@@U?$CopyablePersistentTraits@VValue@v8@@@2@@?$CopyablePersistentTraits@VValue@v8@@@v8@@SAXABV?$Persistent@VValue@v8@@U?$CopyablePersistentTraits@VValue@v8@@@2@@1@PAV21@@Z 1000c2c0 f i HandleProxy.obj
 0001:0000b2f0       ??$Copy@VValue@v8@@U?$CopyablePersistentTraits@VValue@v8@@@2@@?$Persistent@VValue@v8@@U?$CopyablePersistentTraits@VValue@v8@@@2@@v8@@AAEXABV01@@Z 1000c2f0 f i HandleProxy.obj
 0001:0000b390       ??$SetWeak@UHandleProxy@@@?$PersistentBase@VValue@v8@@@v8@@QAEXPAUHandleProxy@@P6AXABV?$WeakCallbackData@VValue@v8@@UHandleProxy@@@1@@Z@Z 1000c390 f i HandleProxy.obj
 0001:0000b3e0       ??$SetWeak@VValue@v8@@UHandleProxy@@@?$PersistentBase@VValue@v8@@@v8@@QAEXPAUHandleProxy@@P6AXABV?$WeakCallbackData@VValue@v8@@UHandleProxy@@@1@@Z@Z 1000c3e0 f i HandleProxy.obj
 0001:0000b450       ??0?$CopyablePersistent@VScript@v8@@@@QAE@AAV?$Handle@VScript@v8@@@v8@@@Z 1000c450 f i HandleProxy.obj
 0001:0000b530       ??0?$CopyablePersistent@VScript@v8@@@@QAE@XZ 1000c530 f i HandleProxy.obj
 0001:0000b5b0       ??0?$CopyablePersistent@VValue@v8@@@@QAE@AAV?$Handle@VValue@v8@@@v8@@@Z 1000c5b0 f i HandleProxy.obj
 0001:0000b690       ??0?$CopyablePersistent@VValue@v8@@@@QAE@XZ 1000c690 f i HandleProxy.obj
 0001:0000b710       ??0?$Handle@VScript@v8@@@v8@@AAE@PAVScript@1@@Z 1000c710 f i HandleProxy.obj
 0001:0000b750       ??0?$Handle@VScript@v8@@@v8@@QAE@XZ 1000c750 f i HandleProxy.obj
 0001:0000b790       ??0?$Handle@VString@v8@@@v8@@AAE@PAVString@1@@Z 1000c790 f i HandleProxy.obj
 0001:0000b7d0       ??0?$Local@VScript@v8@@@v8@@QAE@XZ 1000c7d0 f i HandleProxy.obj
 0001:0000b820       ??0?$Local@VValue@v8@@@v8@@QAE@XZ 1000c820 f i HandleProxy.obj
 0001:0000b870       ??0?$Persistent@VScript@v8@@U?$CopyablePersistentTraits@VScript@v8@@@2@@v8@@QAE@XZ 1000c870 f i HandleProxy.obj
 0001:0000b8c0       ??0?$Persistent@VValue@v8@@U?$CopyablePersistentTraits@VValue@v8@@@2@@v8@@QAE@XZ 1000c8c0 f i HandleProxy.obj
 0001:0000b910       ??0?$PersistentBase@VScript@v8@@@v8@@AAE@PAVScript@1@@Z 1000c910 f i HandleProxy.obj
 0001:0000b950       ??0?$PersistentBase@VValue@v8@@@v8@@AAE@PAVValue@1@@Z 1000c950 f i HandleProxy.obj
 0001:0000b990       ??0?$lock_guard@Vrecursive_mutex@std@@@std@@QAE@AAVrecursive_mutex@1@@Z 1000c990 f i HandleProxy.obj
 0001:0000b9e0       ??0HandleProxy@@IAE@PAVV8EngineProxy@@H@Z 1000c9e0 f   HandleProxy.obj
 0001:0000baf0       ??1?$CopyablePersistent@VScript@v8@@@@QAE@XZ 1000caf0 f i HandleProxy.obj
 0001:0000bb80       ??1?$CopyablePersistent@VValue@v8@@@@QAE@XZ 1000cb80 f i HandleProxy.obj
 0001:0000bc10       ??1?$Persistent@VScript@v8@@U?$CopyablePersistentTraits@VScript@v8@@@2@@v8@@QAE@XZ 1000cc10 f i HandleProxy.obj
 0001:0000bc60       ??1?$Persistent@VValue@v8@@U?$CopyablePersistentTraits@VValue@v8@@@2@@v8@@QAE@XZ 1000cc60 f i HandleProxy.obj
 0001:0000bcb0       ??1?$lock_guard@Vrecursive_mutex@std@@@std@@QAE@XZ 1000ccb0 f i HandleProxy.obj
 0001:0000bd00       ??1HandleProxy@@IAE@XZ     1000cd00 f   HandleProxy.obj
 0001:0000bdc0       ??4?$CopyablePersistent@VScript@v8@@@@QAEAAU0@ABU0@@Z 1000cdc0 f i HandleProxy.obj
 0001:0000be10       ??4?$CopyablePersistent@VValue@v8@@@@QAEAAU0@ABU0@@Z 1000ce10 f i HandleProxy.obj
 0001:0000be60       ??4?$Persistent@VScript@v8@@U?$CopyablePersistentTraits@VScript@v8@@@2@@v8@@QAEAAV01@ABV01@@Z 1000ce60 f i HandleProxy.obj
 0001:0000beb0       ??4?$Persistent@VValue@v8@@U?$CopyablePersistentTraits@VValue@v8@@@2@@v8@@QAEAAV01@ABV01@@Z 1000ceb0 f i HandleProxy.obj
 0001:0000bf00       ??B?$CopyablePersistent@VScript@v8@@@@QBE?AV?$Local@VScript@v8@@@v8@@XZ 1000cf00 f i HandleProxy.obj
 0001:0000bf50       ??B?$CopyablePersistent@VValue@v8@@@@QBE?AV?$Local@VValue@v8@@@v8@@XZ 1000cf50 f i HandleProxy.obj
 0001:0000bfa0       ??C?$CopyablePersistent@VValue@v8@@@@QBEPAVValue@v8@@XZ 1000cfa0 f i HandleProxy.obj
 0001:0000bff0       ??D?$Handle@VScript@v8@@@v8@@QBEPAVScript@1@XZ 1000cff0 f i HandleProxy.obj
 0001:0000c020       ??_GHandleProxy@@IAEPAXI@Z 1000d020 f i HandleProxy.obj
 0001:0000c080       ?ClearWeak@?$PersistentBase@VValue@v8@@@v8@@QAEXXZ 1000d080 f i HandleProxy.obj
 0001:0000c0c0       ?Dispose@HandleProxy@@QAE_NXZ 1000d0c0 f   HandleProxy.obj
 0001:0000c110       ?GetIsolate@?$WeakCallbackData@VValue@v8@@UHandleProxy@@@v8@@QBEPAVIsolate@2@XZ 1000d110 f i HandleProxy.obj
 0001:0000c140       ?GetManagedObjectID@HandleProxy@@QAEHXZ 1000d140 f   HandleProxy.obj
 0001:0000c4c0       ?GetParameter@?$WeakCallbackData@VValue@v8@@UHandleProxy@@@v8@@QBEPAUHandleProxy@@XZ 1000d4c0 f i HandleProxy.obj
 0001:0000c4f0       ?Handle@?$CopyablePersistent@VScript@v8@@@@QBE?AV?$Local@VScript@v8@@@v8@@XZ 1000d4f0 f i HandleProxy.obj
 0001:0000c550       ?Handle@?$CopyablePersistent@VValue@v8@@@@QBE?AV?$Local@VValue@v8@@@v8@@XZ 1000d550 f i HandleProxy.obj
 0001:0000c5b0       ?Handle@HandleProxy@@QAE?AV?$Handle@VValue@v8@@@v8@@XZ 1000d5b0 f   HandleProxy.obj
 0001:0000c620       ?Initialize@HandleProxy@@IAEPAU1@V?$Handle@VValue@v8@@@v8@@@Z 1000d620 f   HandleProxy.obj
 0001:0000c690       ?IsEmpty@?$CopyablePersistent@VScript@v8@@@@QBE_NXZ 1000d690 f i HandleProxy.obj
 0001:0000c6d0       ?IsEmpty@?$CopyablePersistent@VValue@v8@@@@QBE_NXZ 1000d6d0 f i HandleProxy.obj
 0001:0000c710       ?IsEmpty@?$PersistentBase@VScript@v8@@@v8@@QBE_NXZ 1000d710 f i HandleProxy.obj
 0001:0000c760       ?IsEmpty@?$PersistentBase@VValue@v8@@@v8@@QBE_NXZ 1000d760 f i HandleProxy.obj
 0001:0000c7b0       ?MakeStrong@HandleProxy@@QAEXXZ 1000d7b0 f   HandleProxy.obj
 0001:0000c810       ?MakeWeak@HandleProxy@@QAEXXZ 1000d810 f   HandleProxy.obj
 0001:0000c880       ?New@?$Local@VScript@v8@@@v8@@CA?AV12@PAVIsolate@2@PAVScript@2@@Z 1000d880 f i HandleProxy.obj
 0001:0000c900       ?New@?$Local@VScript@v8@@@v8@@SA?AV12@PAVIsolate@2@ABV?$PersistentBase@VScript@v8@@@2@@Z 1000d900 f i HandleProxy.obj
 0001:0000c950       ?New@?$Local@VValue@v8@@@v8@@CA?AV12@PAVIsolate@2@PAVValue@2@@Z 1000d950 f i HandleProxy.obj
 0001:0000c9d0       ?New@?$Local@VValue@v8@@@v8@@SA?AV12@PAVIsolate@2@ABV?$PersistentBase@VValue@v8@@@2@@Z 1000d9d0 f i HandleProxy.obj
 0001:0000ca20       ?New@?$PersistentBase@VScript@v8@@@v8@@CAPAVScript@2@PAVIsolate@2@PAV32@@Z 1000da20 f i HandleProxy.obj
 0001:0000ca80       ?New@?$PersistentBase@VValue@v8@@@v8@@CAPAVValue@2@PAVIsolate@2@PAV32@@Z 1000da80 f i HandleProxy.obj
 0001:0000cae0       ?Reset@?$CopyablePersistent@VScript@v8@@@@QAEXXZ 1000dae0 f i HandleProxy.obj
 0001:0000cb20       ?Reset@?$CopyablePersistent@VValue@v8@@@@QAEXXZ 1000db20 f i HandleProxy.obj
 0001:0000cb60       ?Reset@?$PersistentBase@VScript@v8@@@v8@@QAEXXZ 1000db60 f i HandleProxy.obj
 0001:0000cbd0       ?Reset@?$PersistentBase@VValue@v8@@@v8@@QAEXXZ 1000dbd0 f i HandleProxy.obj
 0001:0000cc40       ?Script@HandleProxy@@QAE?AV?$Handle@VScript@v8@@@v8@@XZ 1000dc40 f   HandleProxy.obj
 0001:0000ccb0       ?SetHandle@HandleProxy@@IAEPAU1@V?$Handle@VScript@v8@@@v8@@@Z 1000dcb0 f   HandleProxy.obj
 0001:0000cd80       ?SetHandle@HandleProxy@@IAEPAU1@V?$Handle@VValue@v8@@@v8@@@Z 1000dd80 f   HandleProxy.obj
 0001:0000d220       ?UpdateValue@HandleProxy@@QAEXXZ 1000e220 f   HandleProxy.obj
 0001:0000d4e0       ?_Check_C_return@std@@YAHH@Z 1000e4e0 f i HandleProxy.obj
 0001:0000d540       ?_ClearHandleValue@HandleProxy@@IAEXXZ 1000e540 f   HandleProxy.obj
 0001:0000d5d0       ?_Dispose@HandleProxy@@IAE_N_N@Z 1000e5d0 f   HandleProxy.obj
 0001:0000d6d0       ?_Mtx_lockX@std@@YAHPAPAU_Mtx_internal_imp_t@@@Z 1000e6d0 f i HandleProxy.obj
 0001:0000d730       ?_Mtx_unlockX@std@@YAHPAPAU_Mtx_internal_imp_t@@@Z 1000e730 f i HandleProxy.obj
 0001:0000d790       ?_RevivableCallback@HandleProxy@@CAXABV?$WeakCallbackData@VValue@v8@@UHandleProxy@@@v8@@@Z 1000e790 f   HandleProxy.obj
 0001:0000d830       ?lock@_Mutex_base@std@@QAEXXZ 1000e830 f i HandleProxy.obj
 0001:0000d880       ?unlock@_Mutex_base@std@@QAEXXZ 1000e880 f i HandleProxy.obj
 0001:0000d8d0       ??$?0VArray@v8@@@?$Local@VArray@v8@@@v8@@AAE@PAVArray@1@@Z 1000e8d0 f i ObjectTemplateProxy.obj
 0001:0000d920       ??$?0VInteger@v8@@@?$Local@VInteger@v8@@@v8@@AAE@PAVInteger@1@@Z 1000e920 f i ObjectTemplateProxy.obj
 0001:0000d970       ??$?0VObjectTemplate@v8@@@?$Local@VObjectTemplate@v8@@@v8@@AAE@PAVObjectTemplate@1@@Z 1000e970 f i ObjectTemplateProxy.obj
 0001:0000d9c0       ??$?0VObjectTemplate@v8@@@?$Persistent@VObjectTemplate@v8@@U?$CopyablePersistentTraits@VObjectTemplate@v8@@@2@@v8@@QAE@PAVIsolate@1@V?$Handle@VObjectTemplate@v8@@@1@@Z 1000e9c0 f i ObjectTemplateProxy.obj
 0001:0000da30       ??$As@VArray@v8@@@?$Local@VValue@v8@@@v8@@QAE?AV?$Local@VArray@v8@@@1@XZ 1000ea30 f i ObjectTemplateProxy.obj
 0001:0000da80       ??$As@VInteger@v8@@@?$Local@VValue@v8@@@v8@@QAE?AV?$Local@VInteger@v8@@@1@XZ 1000ea80 f i ObjectTemplateProxy.obj
 0001:0000dad0       ??$Cast@VValue@v8@@@?$Local@VArray@v8@@@v8@@SA?AV01@V?$Local@VValue@v8@@@1@@Z 1000ead0 f i ObjectTemplateProxy.obj
 0001:0000db30       ??$Cast@VValue@v8@@@?$Local@VInteger@v8@@@v8@@SA?AV01@V?$Local@VValue@v8@@@1@@Z 1000eb30 f i ObjectTemplateProxy.obj
 0001:0000db90       ??$Copy@VObjectTemplate@v8@@U?$CopyablePersistentTraits@VObjectTemplate@v8@@@2@@?$CopyablePersistentTraits@VObjectTemplate@v8@@@v8@@SAXABV?$Persistent@VObjectTemplate@v8@@U?$CopyablePersistentTraits@VObjectTemplate@v8@@@2@@1@PAV21@@Z 1000eb90 f i ObjectTemplateProxy.obj
 0001:0000dbc0       ??$Copy@VObjectTemplate@v8@@U?$CopyablePersistentTraits@VObjectTemplate@v8@@@2@@?$Persistent@VObjectTemplate@v8@@U?$CopyablePersistentTraits@VObjectTemplate@v8@@@2@@v8@@AAEXABV01@@Z 1000ebc0 f i ObjectTemplateProxy.obj
 0001:0000dc60       ??$Set@VArray@v8@@@?$ReturnValue@VArray@v8@@@v8@@QAEXV?$Handle@VArray@v8@@@1@@Z 1000ec60 f i ObjectTemplateProxy.obj
 0001:0000dce0       ??$Set@VBoolean@v8@@@?$ReturnValue@VBoolean@v8@@@v8@@QAEXV?$Handle@VBoolean@v8@@@1@@Z 1000ece0 f i ObjectTemplateProxy.obj
 0001:0000dd60       ??$Set@VInteger@v8@@@?$ReturnValue@VInteger@v8@@@v8@@QAEXV?$Handle@VInteger@v8@@@1@@Z 1000ed60 f i ObjectTemplateProxy.obj
 0001:0000dde0       ??$Set@VValue@v8@@@?$ReturnValue@X@v8@@QAEXV?$Handle@VValue@v8@@@1@@Z 1000ede0 f i ObjectTemplateProxy.obj
 0001:0000de60       ??0?$CopyablePersistent@VObjectTemplate@v8@@@@QAE@AAV?$Handle@VObjectTemplate@v8@@@v8@@@Z 1000ee60 f i ObjectTemplateProxy.obj
 0001:0000df40       ??0?$CopyablePersistent@VObjectTemplate@v8@@@@QAE@XZ 1000ef40 f i ObjectTemplateProxy.obj
 0001:0000dfc0       ??0?$Handle@VAccessorSignature@v8@@@v8@@QAE@XZ 1000efc0 f i ObjectTemplateProxy.obj
 0001:0000e000       ??0?$Handle@VInteger@v8@@@v8@@AAE@PAVInteger@1@@Z 1000f000 f i ObjectTemplateProxy.obj
 0001:0000e040       ??0?$Handle@VObject@v8@@@v8@@QAE@XZ 1000f040 f i ObjectTemplateProxy.obj
 0001:0000e080       ??0?$Handle@VObjectTemplate@v8@@@v8@@AAE@PAVObjectTemplate@1@@Z 1000f080 f i ObjectTemplateProxy.obj
 0001:0000e0c0       ??0?$Handle@VObjectTemplate@v8@@@v8@@QAE@XZ 1000f0c0 f i ObjectTemplateProxy.obj
 0001:0000e100       ??0?$Local@VObject@v8@@@v8@@QAE@XZ 1000f100 f i ObjectTemplateProxy.obj
 0001:0000e150       ??0?$Local@VObjectTemplate@v8@@@v8@@QAE@XZ 1000f150 f i ObjectTemplateProxy.obj
 0001:0000e1a0       ??0?$Persistent@VObjectTemplate@v8@@U?$CopyablePersistentTraits@VObjectTemplate@v8@@@2@@v8@@QAE@XZ 1000f1a0 f i ObjectTemplateProxy.obj
 0001:0000e1f0       ??0?$PersistentBase@VObjectTemplate@v8@@@v8@@AAE@PAVObjectTemplate@1@@Z 1000f1f0 f i ObjectTemplateProxy.obj
 0001:0000e230       ??0?$ReturnValue@VArray@v8@@@v8@@AAE@PAPAVObject@internal@1@@Z 1000f230 f i ObjectTemplateProxy.obj
 0001:0000e270       ??0?$ReturnValue@VBoolean@v8@@@v8@@AAE@PAPAVObject@internal@1@@Z 1000f270 f i ObjectTemplateProxy.obj
 0001:0000e2b0       ??0?$ReturnValue@VInteger@v8@@@v8@@AAE@PAPAVObject@internal@1@@Z 1000f2b0 f i ObjectTemplateProxy.obj
 0001:0000e2f0       ??0?$ReturnValue@X@v8@@AAE@PAPAVObject@internal@1@@Z 1000f2f0 f i ObjectTemplateProxy.obj
 0001:0000e330       ??0ManagedAccessorInfo@@QAE@PAVObjectTemplateProxy@@HABV?$PropertyCallbackInfo@VArray@v8@@@v8@@@Z 1000f330 f i ObjectTemplateProxy.obj
 0001:0000e3d0       ??0ManagedAccessorInfo@@QAE@PAVObjectTemplateProxy@@HABV?$PropertyCallbackInfo@VBoolean@v8@@@v8@@@Z 1000f3d0 f i ObjectTemplateProxy.obj
 0001:0000e470       ??0ManagedAccessorInfo@@QAE@PAVObjectTemplateProxy@@HABV?$PropertyCallbackInfo@VInteger@v8@@@v8@@@Z 1000f470 f i ObjectTemplateProxy.obj
 0001:0000e510       ??0ManagedAccessorInfo@@QAE@PAVObjectTemplateProxy@@HABV?$PropertyCallbackInfo@VValue@v8@@@v8@@@Z 1000f510 f i ObjectTemplateProxy.obj
 0001:0000e5b0       ??0ObjectTemplateProxy@@QAE@PAVV8EngineProxy@@@Z 1000f5b0 f   ObjectTemplateProxy.obj
 0001:0000e780       ??0ObjectTemplateProxy@@QAE@PAVV8EngineProxy@@V?$Local@VObjectTemplate@v8@@@v8@@@Z 1000f780 f   ObjectTemplateProxy.obj
 0001:0000e900       ??1?$CopyablePersistent@VObjectTemplate@v8@@@@QAE@XZ 1000f900 f i ObjectTemplateProxy.obj
 0001:0000e990       ??1?$Persistent@VObjectTemplate@v8@@U?$CopyablePersistentTraits@VObjectTemplate@v8@@@2@@v8@@QAE@XZ 1000f990 f i ObjectTemplateProxy.obj
 0001:0000e9e0       ??1ObjectTemplateProxy@@QAE@XZ 1000f9e0 f   ObjectTemplateProxy.obj
 0001:0000ec10       ??4?$CopyablePersistent@VObjectTemplate@v8@@@@QAEAAU0@ABU0@@Z 1000fc10 f i ObjectTemplateProxy.obj
 0001:0000ec60       ??4?$Persistent@VObjectTemplate@v8@@U?$CopyablePersistentTraits@VObjectTemplate@v8@@@2@@v8@@QAEAAV01@ABV01@@Z 1000fc60 f i ObjectTemplateProxy.obj
 0001:0000ecb0       ??C?$CopyablePersistent@VObjectTemplate@v8@@@@QBEPAVObjectTemplate@v8@@XZ 1000fcb0 f i ObjectTemplateProxy.obj
 0001:0000ed00       ??C?$Handle@VInteger@v8@@@v8@@QBEPAVInteger@1@XZ 1000fd00 f i ObjectTemplateProxy.obj
 0001:0000ed30       ??C?$Handle@VObjectTemplate@v8@@@v8@@QBEPAVObjectTemplate@1@XZ 1000fd30 f i ObjectTemplateProxy.obj
 0001:0000ed60       ??D?$Handle@VBoolean@v8@@@v8@@QBEPAVBoolean@1@XZ 1000fd60 f i ObjectTemplateProxy.obj
 0001:0000ed90       ??D?$Handle@VObjectTemplate@v8@@@v8@@QBEPAVObjectTemplate@1@XZ 1000fd90 f i ObjectTemplateProxy.obj
 0001:0000edc0       ?AccessorGetterCallbackProxy@ObjectTemplateProxy@@SAXV?$Local@VString@v8@@@v8@@ABV?$PropertyCallbackInfo@VValue@v8@@@3@@Z 1000fdc0 f   ObjectTemplateProxy.obj
 0001:0000f0f0       ?AccessorSetterCallbackProxy@ObjectTemplateProxy@@SAXV?$Local@VString@v8@@@v8@@V?$Local@VValue@v8@@@3@ABV?$PropertyCallbackInfo@X@3@@Z 100100f0 f   ObjectTemplateProxy.obj
 0001:0000f450       ?CreateObject@ObjectTemplateProxy@@QAEPAUHandleProxy@@H@Z 10010450 f   ObjectTemplateProxy.obj
 0001:0000f520       ?Data@?$PropertyCallbackInfo@VArray@v8@@@v8@@QBE?AV?$Local@VValue@v8@@@2@XZ 10010520 f i ObjectTemplateProxy.obj
 0001:0000f580       ?Data@?$PropertyCallbackInfo@VBoolean@v8@@@v8@@QBE?AV?$Local@VValue@v8@@@2@XZ 10010580 f i ObjectTemplateProxy.obj
 0001:0000f5e0       ?Data@?$PropertyCallbackInfo@VInteger@v8@@@v8@@QBE?AV?$Local@VValue@v8@@@2@XZ 100105e0 f i ObjectTemplateProxy.obj
 0001:0000f640       ?Data@?$PropertyCallbackInfo@VValue@v8@@@v8@@QBE?AV?$Local@VValue@v8@@@2@XZ 10010640 f i ObjectTemplateProxy.obj
 0001:0000f6a0       ?Data@?$PropertyCallbackInfo@X@v8@@QBE?AV?$Local@VValue@v8@@@2@XZ 100106a0 f i ObjectTemplateProxy.obj
 0001:0000f700       ?DeleteProperty@ObjectTemplateProxy@@SAXIABV?$PropertyCallbackInfo@VBoolean@v8@@@v8@@@Z 10010700 f   ObjectTemplateProxy.obj
 0001:0000f910       ?DeleteProperty@ObjectTemplateProxy@@SAXV?$Local@VString@v8@@@v8@@ABV?$PropertyCallbackInfo@VBoolean@v8@@@3@@Z 10010910 f   ObjectTemplateProxy.obj
 0001:0000fb50       ?GetDefaultValue@?$ReturnValue@VArray@v8@@@v8@@AAEPAVObject@internal@2@XZ 10010b50 f i ObjectTemplateProxy.obj
 0001:0000fb90       ?GetDefaultValue@?$ReturnValue@VBoolean@v8@@@v8@@AAEPAVObject@internal@2@XZ 10010b90 f i ObjectTemplateProxy.obj
 0001:0000fbd0       ?GetDefaultValue@?$ReturnValue@VInteger@v8@@@v8@@AAEPAVObject@internal@2@XZ 10010bd0 f i ObjectTemplateProxy.obj
 0001:0000fc10       ?GetDefaultValue@?$ReturnValue@X@v8@@AAEPAVObject@internal@2@XZ 10010c10 f i ObjectTemplateProxy.obj
 0001:0000fc50       ?GetIsolate@?$PropertyCallbackInfo@VValue@v8@@@v8@@QBEPAVIsolate@2@XZ 10010c50 f i ObjectTemplateProxy.obj
 0001:0000fc90       ?GetIsolate@?$PropertyCallbackInfo@X@v8@@QBEPAVIsolate@2@XZ 10010c90 f i ObjectTemplateProxy.obj
 0001:0000fcd0       ?GetIsolate@?$ReturnValue@VValue@v8@@@v8@@QAEPAVIsolate@2@XZ 10010cd0 f i ObjectTemplateProxy.obj
 0001:0000fd10       ?GetIsolate@?$ReturnValue@X@v8@@QAEPAVIsolate@2@XZ 10010d10 f i ObjectTemplateProxy.obj
 0001:0000fd50       ?GetProperty@ObjectTemplateProxy@@SAXIABV?$PropertyCallbackInfo@VValue@v8@@@v8@@@Z 10010d50 f   ObjectTemplateProxy.obj
 0001:0000ffe0       ?GetProperty@ObjectTemplateProxy@@SAXV?$Local@VString@v8@@@v8@@ABV?$PropertyCallbackInfo@VValue@v8@@@3@@Z 10010fe0 f   ObjectTemplateProxy.obj
 0001:000102b0       ?GetPropertyAttributes@ObjectTemplateProxy@@SAXIABV?$PropertyCallbackInfo@VInteger@v8@@@v8@@@Z 100112b0 f   ObjectTemplateProxy.obj
 0001:000104b0       ?GetPropertyAttributes@ObjectTemplateProxy@@SAXV?$Local@VString@v8@@@v8@@ABV?$PropertyCallbackInfo@VInteger@v8@@@3@@Z 100114b0 f   ObjectTemplateProxy.obj
 0001:000106e0       ?GetPropertyIndices@ObjectTemplateProxy@@SAXABV?$PropertyCallbackInfo@VArray@v8@@@v8@@@Z 100116e0 f   ObjectTemplateProxy.obj
 0001:000109e0       ?GetPropertyNames@ObjectTemplateProxy@@SAXABV?$PropertyCallbackInfo@VArray@v8@@@v8@@@Z 100119e0 f   ObjectTemplateProxy.obj
 0001:00010ce0       ?GetReturnValue@?$PropertyCallbackInfo@VArray@v8@@@v8@@QBE?AV?$ReturnValue@VArray@v8@@@2@XZ 10011ce0 f i ObjectTemplateProxy.obj
 0001:00010d40       ?GetReturnValue@?$PropertyCallbackInfo@VBoolean@v8@@@v8@@QBE?AV?$ReturnValue@VBoolean@v8@@@2@XZ 10011d40 f i ObjectTemplateProxy.obj
 0001:00010da0       ?GetReturnValue@?$PropertyCallbackInfo@VInteger@v8@@@v8@@QBE?AV?$ReturnValue@VInteger@v8@@@2@XZ 10011da0 f i ObjectTemplateProxy.obj
 0001:00010e00       ?GetReturnValue@?$PropertyCallbackInfo@VValue@v8@@@v8@@QBE?AV?$ReturnValue@VValue@v8@@@2@XZ 10011e00 f i ObjectTemplateProxy.obj
 0001:00010e60       ?GetReturnValue@?$PropertyCallbackInfo@X@v8@@QBE?AV?$ReturnValue@X@2@XZ 10011e60 f i ObjectTemplateProxy.obj
 0001:00010ec0       ?Handle@?$CopyablePersistent@VObjectTemplate@v8@@@@QBE?AV?$Local@VObjectTemplate@v8@@@v8@@XZ 10011ec0 f i ObjectTemplateProxy.obj
 0001:00010f20       ?Holder@?$PropertyCallbackInfo@VArray@v8@@@v8@@QBE?AV?$Local@VObject@v8@@@2@XZ 10011f20 f i ObjectTemplateProxy.obj
 0001:00010f80       ?Holder@?$PropertyCallbackInfo@VBoolean@v8@@@v8@@QBE?AV?$Local@VObject@v8@@@2@XZ 10011f80 f i ObjectTemplateProxy.obj
 0001:00010fe0       ?Holder@?$PropertyCallbackInfo@VInteger@v8@@@v8@@QBE?AV?$Local@VObject@v8@@@2@XZ 10011fe0 f i ObjectTemplateProxy.obj
 0001:00011040       ?Holder@?$PropertyCallbackInfo@VValue@v8@@@v8@@QBE?AV?$Local@VObject@v8@@@2@XZ 10012040 f i ObjectTemplateProxy.obj
 0001:000110a0       ?Holder@?$PropertyCallbackInfo@X@v8@@QBE?AV?$Local@VObject@v8@@@2@XZ 100120a0 f i ObjectTemplateProxy.obj
 0001:00011100       ?IsEmpty@?$CopyablePersistent@VObjectTemplate@v8@@@@QBE_NXZ 10012100 f i ObjectTemplateProxy.obj
 0001:00011140       ?IsEmpty@?$Handle@VArray@v8@@@v8@@QBE_NXZ 10012140 f i ObjectTemplateProxy.obj
 0001:00011190       ?IsEmpty@?$Handle@VBoolean@v8@@@v8@@QBE_NXZ 10012190 f i ObjectTemplateProxy.obj
 0001:000111e0       ?IsEmpty@?$Handle@VInteger@v8@@@v8@@QBE_NXZ 100121e0 f i ObjectTemplateProxy.obj
 0001:00011230       ?IsEmpty@?$Handle@VObject@v8@@@v8@@QBE_NXZ 10012230 f i ObjectTemplateProxy.obj
 0001:00011280       ?IsEmpty@?$PersistentBase@VObjectTemplate@v8@@@v8@@QBE_NXZ 10012280 f i ObjectTemplateProxy.obj
 0001:000112d0       ?New@?$Local@VObjectTemplate@v8@@@v8@@CA?AV12@PAVIsolate@2@PAVObjectTemplate@2@@Z 100122d0 f i ObjectTemplateProxy.obj
 0001:00011350       ?New@?$Local@VObjectTemplate@v8@@@v8@@SA?AV12@PAVIsolate@2@ABV?$PersistentBase@VObjectTemplate@v8@@@2@@Z 10012350 f i ObjectTemplateProxy.obj
 0001:000113a0       ?New@?$PersistentBase@VObjectTemplate@v8@@@v8@@CAPAVObjectTemplate@2@PAVIsolate@2@PAV32@@Z 100123a0 f i ObjectTemplateProxy.obj
 0001:00011400       ?RegisterIndexedPropertyHandlers@ObjectTemplateProxy@@QAEXP6GPAUHandleProxy@@IABUManagedAccessorInfo@@@ZP6GPAU2@IPAU2@0@ZP6G?AW4PropertyAttribute@v8@@I0@ZP6GHI0@ZP6GPAU2@0@Z@Z 10012400 f   ObjectTemplateProxy.obj
 0001:000114b0       ?RegisterInvokeHandler@ObjectTemplateProxy@@QAEXP6GPAUHandleProxy@@H_NPAU2@PAPAU2@I@Z@Z 100124b0 f   ObjectTemplateProxy.obj
 0001:00011550       ?RegisterNamedPropertyHandlers@ObjectTemplateProxy@@QAEXP6GPAUHandleProxy@@PAGABUManagedAccessorInfo@@@ZP6GPAU2@0PAU2@1@ZP6G?AW4PropertyAttribute@v8@@01@ZP6GH01@ZP6GPAU2@1@Z@Z 10012550 f   ObjectTemplateProxy.obj
 0001:00011600       ?Reset@?$CopyablePersistent@VObjectTemplate@v8@@@@QAEXXZ 10012600 f i ObjectTemplateProxy.obj
 0001:00011640       ?Reset@?$PersistentBase@VObjectTemplate@v8@@@v8@@QAEXXZ 10012640 f i ObjectTemplateProxy.obj
 0001:000116b0       ?Set@ObjectTemplateProxy@@QAEXPBGPAUHandleProxy@@W4PropertyAttribute@v8@@@Z 100126b0 f   ObjectTemplateProxy.obj
 0001:00011770       ?SetAccessor@ObjectTemplateProxy@@QAEXHPBGP6GPAUHandleProxy@@PAU2@PAG@ZP6GPAU2@121@ZW4AccessControl@v8@@W4PropertyAttribute@4@@Z 10012770 f   ObjectTemplateProxy.obj
 0001:00011990       ?SetProperty@ObjectTemplateProxy@@SAXIV?$Local@VValue@v8@@@v8@@ABV?$PropertyCallbackInfo@VValue@v8@@@3@@Z 10012990 f   ObjectTemplateProxy.obj
 0001:00011c50       ?SetProperty@ObjectTemplateProxy@@SAXV?$Local@VString@v8@@@v8@@V?$Local@VValue@v8@@@3@ABV?$PropertyCallbackInfo@VValue@v8@@@3@@Z 10012c50 f   ObjectTemplateProxy.obj
 0001:00011f40       ?SetUndefined@?$ReturnValue@VValue@v8@@@v8@@QAEXXZ 10012f40 f i ObjectTemplateProxy.obj
 0001:00011fb0       ?SetUndefined@?$ReturnValue@X@v8@@QAEXXZ 10012fb0 f i ObjectTemplateProxy.obj
 0001:00012020       ?This@?$PropertyCallbackInfo@VArray@v8@@@v8@@QBE?AV?$Local@VObject@v8@@@2@XZ 10013020 f i ObjectTemplateProxy.obj
 0001:00012080       ?This@?$PropertyCallbackInfo@VBoolean@v8@@@v8@@QBE?AV?$Local@VObject@v8@@@2@XZ 10013080 f i ObjectTemplateProxy.obj
 0001:000120e0       ?This@?$PropertyCallbackInfo@VInteger@v8@@@v8@@QBE?AV?$Local@VObject@v8@@@2@XZ 100130e0 f i ObjectTemplateProxy.obj
 0001:00012140       ?This@?$PropertyCallbackInfo@VValue@v8@@@v8@@QBE?AV?$Local@VObject@v8@@@2@XZ 10013140 f i ObjectTemplateProxy.obj
 0001:000121a0       ?This@?$PropertyCallbackInfo@X@v8@@QBE?AV?$Local@VObject@v8@@@2@XZ 100131a0 f i ObjectTemplateProxy.obj
 0001:00012200       ?UnregisterIndexedPropertyHandlers@ObjectTemplateProxy@@QAEXXZ 10013200 f   ObjectTemplateProxy.obj
 0001:000122a0       ?UnregisterNamedPropertyHandlers@ObjectTemplateProxy@@QAEXXZ 100132a0 f   ObjectTemplateProxy.obj
 0001:00012340       ??$?0I@?$allocator@_N@std@@QAE@ABV?$allocator@I@1@@Z 10013340 f i V8EngineProxy.obj
 0001:00012370       ??$?0V?$allocator@_N@std@@@?$_Wrap_alloc@V?$allocator@U_Container_proxy@std@@@std@@@std@@QAE@ABV?$allocator@_N@1@@Z 10013370 f i V8EngineProxy.obj
 0001:000123c0       ??$?0VBoolean@v8@@@?$Handle@VValue@v8@@@v8@@QAE@V?$Handle@VBoolean@v8@@@1@@Z 100133c0 f i V8EngineProxy.obj
 0001:00012420       ??$?0VContext@v8@@@?$Local@VContext@v8@@@v8@@AAE@PAVContext@1@@Z 10013420 f i V8EngineProxy.obj
 0001:00012470       ??$?0VContext@v8@@@?$Persistent@VContext@v8@@U?$CopyablePersistentTraits@VContext@v8@@@2@@v8@@QAE@PAVIsolate@1@V?$Handle@VContext@v8@@@1@@Z 10013470 f i V8EngineProxy.obj
 0001:000124e0       ??$?0VFunction@v8@@@?$Local@VFunction@v8@@@v8@@AAE@PAVFunction@1@@Z 100134e0 f i V8EngineProxy.obj
 0001:00012530       ??$?0VNumber@v8@@@?$Handle@VValue@v8@@@v8@@QAE@V?$Handle@VNumber@v8@@@1@@Z 10013530 f i V8EngineProxy.obj
 0001:00012590       ??$?0VObject@v8@@@?$Persistent@VObject@v8@@U?$CopyablePersistentTraits@VObject@v8@@@2@@v8@@QAE@PAVIsolate@1@V?$Handle@VObject@v8@@@1@@Z 10013590 f i V8EngineProxy.obj
 0001:00012600       ??$?0_N@?$allocator@U_Container_proxy@std@@@std@@QAE@ABV?$allocator@_N@1@@Z 10013600 f i V8EngineProxy.obj
 0001:00012630       ??$As@VFunction@v8@@@?$Handle@VValue@v8@@@v8@@QAE?AV?$Handle@VFunction@v8@@@1@XZ 10013630 f i V8EngineProxy.obj
 0001:00012680       ??$As@VFunction@v8@@@?$Local@VValue@v8@@@v8@@QAE?AV?$Local@VFunction@v8@@@1@XZ 10013680 f i V8EngineProxy.obj
 0001:000126d0       ??$Cast@VValue@v8@@@?$Handle@VFunction@v8@@@v8@@SA?AV01@V?$Handle@VValue@v8@@@1@@Z 100136d0 f i V8EngineProxy.obj
 0001:00012730       ??$Cast@VValue@v8@@@?$Local@VFunction@v8@@@v8@@SA?AV01@V?$Local@VValue@v8@@@1@@Z 10013730 f i V8EngineProxy.obj
 0001:00012790       ??$Copy@VContext@v8@@U?$CopyablePersistentTraits@VContext@v8@@@2@@?$CopyablePersistentTraits@VContext@v8@@@v8@@SAXABV?$Persistent@VContext@v8@@U?$CopyablePersistentTraits@VContext@v8@@@2@@1@PAV21@@Z 10013790 f i V8EngineProxy.obj
 0001:000127c0       ??$Copy@VContext@v8@@U?$CopyablePersistentTraits@VContext@v8@@@2@@?$Persistent@VContext@v8@@U?$CopyablePersistentTraits@VContext@v8@@@2@@v8@@AAEXABV01@@Z 100137c0 f i V8EngineProxy.obj
 0001:00012860       ??$Copy@VObject@v8@@U?$CopyablePersistentTraits@VObject@v8@@@2@@?$CopyablePersistentTraits@VObject@v8@@@v8@@SAXABV?$Persistent@VObject@v8@@U?$CopyablePersistentTraits@VObject@v8@@@2@@1@PAV21@@Z 10013860 f i V8EngineProxy.obj
 0001:00012890       ??$Copy@VObject@v8@@U?$CopyablePersistentTraits@VObject@v8@@@2@@?$Persistent@VObject@v8@@U?$CopyablePersistentTraits@VObject@v8@@@2@@v8@@AAEXABV01@@Z 10013890 f i V8EngineProxy.obj
 0001:00012930       ??$_Allocate@H@std@@YAPAHIPAH@Z 10013930 f i V8EngineProxy.obj
 0001:000129b0       ??$_Allocate@I@std@@YAPAIIPAI@Z 100139b0 f i V8EngineProxy.obj
 0001:00012a30       ??$_Allocate@PAUHandleProxy@@@std@@YAPAPAUHandleProxy@@IPAPAU1@@Z 10013a30 f i V8EngineProxy.obj
 0001:00012ab0       ??$_Allocate@U_Container_proxy@std@@@std@@YAPAU_Container_proxy@0@IPAU10@@Z 10013ab0 f i V8EngineProxy.obj
 0001:00012b30       ??$_Allocate@U_StringItem@@@std@@YAPAU_StringItem@@IPAU1@@Z 10013b30 f i V8EngineProxy.obj
 0001:00012bb0       ??$_Copy_backward@V?$_Vb_iterator@U?$_Wrap_alloc@V?$allocator@I@std@@@std@@@std@@V12@@std@@YA?AV?$_Vb_iterator@U?$_Wrap_alloc@V?$allocator@I@std@@@std@@@0@V10@00@Z 10013bb0 f i V8EngineProxy.obj
 0001:00012d10       ??$_Copy_backward@V?$_Vb_iterator@U?$_Wrap_alloc@V?$allocator@I@std@@@std@@@std@@V12@@std@@YA?AV?$_Vb_iterator@U?$_Wrap_alloc@V?$allocator@I@std@@@std@@@0@V10@00U?$integral_constant@_N$00@0@@Z 10013d10 f i V8EngineProxy.obj
 0001:00012eb0       ??$_Copy_backward@V?$_Vb_iterator@U?$_Wrap_alloc@V?$allocator@I@std@@@std@@@std@@V12@@std@@YA?AV?$_Vb_iterator@U?$_Wrap_alloc@V?$allocator@I@std@@@std@@@0@V10@00U_Nonscalar_ptr_iterator_tag@0@@Z 10013eb0 f i V8EngineProxy.obj
 0001:00013010       ??$_Copy_impl@V?$_Vb_iterator@U?$_Wrap_alloc@V?$allocator@I@std@@@std@@@std@@V12@@std@@YA?AV?$_Vb_iterator@U?$_Wrap_alloc@V?$allocator@I@std@@@std@@@0@V10@00@Z 10014010 f i V8EngineProxy.obj
 0001:00013170       ??$_Copy_impl@V?$_Vb_iterator@U?$_Wrap_alloc@V?$allocator@I@std@@@std@@@std@@V12@@std@@YA?AV?$_Vb_iterator@U?$_Wrap_alloc@V?$allocator@I@std@@@std@@@0@V10@00U?$integral_constant@_N$00@0@@Z 10014170 f i V8EngineProxy.obj
 0001:000132e0       ??$_Copy_impl@V?$_Vb_iterator@U?$_Wrap_alloc@V?$allocator@I@std@@@std@@@std@@V12@@std@@YA?AV?$_Vb_iterator@U?$_Wrap_alloc@V?$allocator@I@std@@@std@@@0@V10@00U_Nonscalar_ptr_iterator_tag@0@@Z 100142e0 f i V8EngineProxy.obj
 0001:00013440       ??$_Copy_impl@V?$_Vb_iterator@U?$_Wrap_alloc@V?$allocator@I@std@@@std@@@std@@V12@@std@@YA?AV?$_Vb_iterator@U?$_Wrap_alloc@V?$allocator@I@std@@@std@@@0@V10@00Urandom_access_iterator_tag@0@1@Z 10014440 f i V8EngineProxy.obj
 0001:00013620       ??$_Debug_pointer@H@std@@YAXPAHPB_WI@Z 10014620 f i V8EngineProxy.obj
 0001:00013680       ??$_Debug_pointer@I@std@@YAXPAIPB_WI@Z 10014680 f i V8EngineProxy.obj
 0001:000136e0       ??$_Debug_pointer@PAUHandleProxy@@@std@@YAXPAPAUHandleProxy@@PB_WI@Z 100146e0 f i V8EngineProxy.obj
 0001:00013740       ??$_Debug_pointer@U_StringItem@@@std@@YAXPAU_StringItem@@PB_WI@Z 10014740 f i V8EngineProxy.obj
 0001:000137a0       ??$_Debug_pointer@V?$_Vb_iterator@U?$_Wrap_alloc@V?$allocator@I@std@@@std@@@std@@@std@@YAXAAV?$_Vb_iterator@U?$_Wrap_alloc@V?$allocator@I@std@@@std@@@0@PB_WI@Z 100147a0 f i V8EngineProxy.obj
 0001:000137d0       ??$_Debug_range2@PAH@std@@YAXPAH0PB_WIUrandom_access_iterator_tag@0@@Z 100147d0 f i V8EngineProxy.obj
 0001:00013860       ??$_Debug_range2@PAI@std@@YAXPAI0PB_WIUrandom_access_iterator_tag@0@@Z 10014860 f i V8EngineProxy.obj
 0001:000138f0       ??$_Debug_range2@PAPAUHandleProxy@@@std@@YAXPAPAUHandleProxy@@0PB_WIUrandom_access_iterator_tag@0@@Z 100148f0 f i V8EngineProxy.obj
 0001:00013980       ??$_Debug_range2@PAU_StringItem@@@std@@YAXPAU_StringItem@@0PB_WIUrandom_access_iterator_tag@0@@Z 10014980 f i V8EngineProxy.obj
 0001:00013a10       ??$_Debug_range2@V?$_Vb_iterator@U?$_Wrap_alloc@V?$allocator@I@std@@@std@@@std@@@std@@YAXV?$_Vb_iterator@U?$_Wrap_alloc@V?$allocator@I@std@@@std@@@0@0PB_WIUrandom_access_iterator_tag@0@@Z 10014a10 f i V8EngineProxy.obj
 0001:00013b00       ??$_Debug_range@PAH@std@@YAXPAH0PB_WI@Z 10014b00 f i V8EngineProxy.obj
 0001:00013b70       ??$_Debug_range@PAI@std@@YAXPAI0PB_WI@Z 10014b70 f i V8EngineProxy.obj
 0001:00013be0       ??$_Debug_range@PAPAUHandleProxy@@@std@@YAXPAPAUHandleProxy@@0PB_WI@Z 10014be0 f i V8EngineProxy.obj
 0001:00013c50       ??$_Debug_range@PAU_StringItem@@@std@@YAXPAU_StringItem@@0PB_WI@Z 10014c50 f i V8EngineProxy.obj
 0001:00013cc0       ??$_Debug_range@V?$_Vb_iterator@U?$_Wrap_alloc@V?$allocator@I@std@@@std@@@std@@@std@@YAXV?$_Vb_iterator@U?$_Wrap_alloc@V?$allocator@I@std@@@std@@@0@0PB_WI@Z 10014cc0 f i V8EngineProxy.obj
 0001:00013dc0       ??$_Destroy_range@U?$_Wrap_alloc@V?$allocator@H@std@@@std@@@std@@YAXPAH0AAU?$_Wrap_alloc@V?$allocator@H@std@@@0@@Z 10014dc0 f i V8EngineProxy.obj
 0001:00013e30       ??$_Destroy_range@U?$_Wrap_alloc@V?$allocator@H@std@@@std@@@std@@YAXPAH0AAU?$_Wrap_alloc@V?$allocator@H@std@@@0@U_Scalar_ptr_iterator_tag@0@@Z 10014e30 f i V8EngineProxy.obj
 0001:00013e60       ??$_Destroy_range@U?$_Wrap_alloc@V?$allocator@I@std@@@std@@@std@@YAXPAI0AAU?$_Wrap_alloc@V?$allocator@I@std@@@0@@Z 10014e60 f i V8EngineProxy.obj
 0001:00013ed0       ??$_Destroy_range@U?$_Wrap_alloc@V?$allocator@I@std@@@std@@@std@@YAXPAI0AAU?$_Wrap_alloc@V?$allocator@I@std@@@0@U_Scalar_ptr_iterator_tag@0@@Z 10014ed0 f i V8EngineProxy.obj
 0001:00013f00       ??$_Destroy_range@U?$_Wrap_alloc@V?$allocator@PAUHandleProxy@@@std@@@std@@@std@@YAXPAPAUHandleProxy@@0AAU?$_Wrap_alloc@V?$allocator@PAUHandleProxy@@@std@@@0@@Z 10014f00 f i V8EngineProxy.obj
 0001:00013f70       ??$_Destroy_range@U?$_Wrap_alloc@V?$allocator@PAUHandleProxy@@@std@@@std@@@std@@YAXPAPAUHandleProxy@@0AAU?$_Wrap_alloc@V?$allocator@PAUHandleProxy@@@std@@@0@U_Scalar_ptr_iterator_tag@0@@Z 10014f70 f i V8EngineProxy.obj
 0001:00013fa0       ??$_Destroy_range@U?$_Wrap_alloc@V?$allocator@U_StringItem@@@std@@@std@@@std@@YAXPAU_StringItem@@0AAU?$_Wrap_alloc@V?$allocator@U_StringItem@@@std@@@0@@Z 10014fa0 f i V8EngineProxy.obj
 0001:00014010       ??$_Destroy_range@U?$_Wrap_alloc@V?$allocator@U_StringItem@@@std@@@std@@@std@@YAXPAU_StringItem@@0AAU?$_Wrap_alloc@V?$allocator@U_StringItem@@@std@@@0@U_Nonscalar_ptr_iterator_tag@0@@Z 10015010 f i V8EngineProxy.obj
 0001:00014070       ??$_Fill@V?$_Vb_iterator@U?$_Wrap_alloc@V?$allocator@I@std@@@std@@@std@@_N@std@@YAXV?$_Vb_iterator@U?$_Wrap_alloc@V?$allocator@I@std@@@std@@@0@0AB_N@Z 10015070 f i V8EngineProxy.obj
 0001:00014160       ??$_Fill_n@PAHIH@std@@YAPAHPAHIABH@Z 10015160 f i V8EngineProxy.obj
 0001:000141b0       ??$_Fill_n@PAIII@std@@YAPAIPAIIABI@Z 100151b0 f i V8EngineProxy.obj
 0001:00014200       ??$_Fill_n@PAPAUHandleProxy@@IPAU1@@std@@YAPAPAUHandleProxy@@PAPAU1@IABQAU1@@Z 10015200 f i V8EngineProxy.obj
 0001:00014250       ??$_Is_checked@V?$_Vb_iterator@U?$_Wrap_alloc@V?$allocator@I@std@@@std@@@std@@@std@@YA?AU?$integral_constant@_N$00@0@V?$_Vb_iterator@U?$_Wrap_alloc@V?$allocator@I@std@@@std@@@0@@Z 10015250 f i V8EngineProxy.obj
 0001:000142e0       ??$_Iter_cat@PAH@std@@YA?AUrandom_access_iterator_tag@0@ABQAH@Z 100152e0 f i V8EngineProxy.obj
 0001:00014340       ??$_Iter_cat@PAI@std@@YA?AUrandom_access_iterator_tag@0@ABQAI@Z 10015340 f i V8EngineProxy.obj
 0001:000143a0       ??$_Iter_cat@PAPAUHandleProxy@@@std@@YA?AUrandom_access_iterator_tag@0@ABQAPAUHandleProxy@@@Z 100153a0 f i V8EngineProxy.obj
 0001:00014400       ??$_Iter_cat@PAU_StringItem@@@std@@YA?AUrandom_access_iterator_tag@0@ABQAU_StringItem@@@Z 10015400 f i V8EngineProxy.obj
 0001:00014460       ??$_Iter_cat@V?$_Vb_iterator@U?$_Wrap_alloc@V?$allocator@I@std@@@std@@@std@@@std@@YA?AUrandom_access_iterator_tag@0@ABV?$_Vb_iterator@U?$_Wrap_alloc@V?$allocator@I@std@@@std@@@0@@Z 10015460 f i V8EngineProxy.obj
 0001:000144c0       ??$_Move@PAIPAI@std@@YAPAIPAI00@Z 100154c0 f i V8EngineProxy.obj
 0001:00014530       ??$_Move@PAIPAI@std@@YAPAIPAI00U_Scalar_ptr_iterator_tag@0@@Z 10015530 f i V8EngineProxy.obj
 0001:000145a0       ??$_Ptr_cat@HH@std@@YA?AU_Scalar_ptr_iterator_tag@0@PAH0@Z 100155a0 f i V8EngineProxy.obj
 0001:00014600       ??$_Ptr_cat@II@std@@YA?AU_Scalar_ptr_iterator_tag@0@PAI0@Z 10015600 f i V8EngineProxy.obj
 0001:00014660       ??$_Ptr_cat@PAUHandleProxy@@PAU1@@std@@YA?AU_Scalar_ptr_iterator_tag@0@PAPAUHandleProxy@@0@Z 10015660 f i V8EngineProxy.obj
 0001:000146c0       ??$_Ptr_cat@U_StringItem@@U1@@std@@YA?AU_Nonscalar_ptr_iterator_tag@0@PAU_StringItem@@0@Z 100156c0 f i V8EngineProxy.obj
 0001:00014720       ??$_Ptr_cat@V?$_Vb_iterator@U?$_Wrap_alloc@V?$allocator@I@std@@@std@@@std@@V12@@std@@YA?AU_Nonscalar_ptr_iterator_tag@0@AAV?$_Vb_iterator@U?$_Wrap_alloc@V?$allocator@I@std@@@std@@@0@0@Z 10015720 f i V8EngineProxy.obj
 0001:00014780       ??$_Rechecked@PAHPAH@std@@YAAAPAHAAPAHPAH@Z 10015780 f i V8EngineProxy.obj
 0001:000147b0       ??$_Rechecked@PAIPAI@std@@YAAAPAIAAPAIPAI@Z 100157b0 f i V8EngineProxy.obj
 0001:000147e0       ??$_Rechecked@PAPAUHandleProxy@@PAPAU1@@std@@YAAAPAPAUHandleProxy@@AAPAPAU1@PAPAU1@@Z 100157e0 f i V8EngineProxy.obj
 0001:00014810       ??$_Rechecked@PAU_StringItem@@PAU1@@std@@YAAAPAU_StringItem@@AAPAU1@PAU1@@Z 10015810 f i V8EngineProxy.obj
 0001:00014840       ??$_Umove@PAH@?$vector@HV?$allocator@H@std@@@std@@IAEPAHPAH00@Z 10015840 f i V8EngineProxy.obj
 0001:000148d0       ??$_Umove@PAI@?$vector@IV?$allocator@_N@std@@@std@@IAEPAIPAI00@Z 100158d0 f i V8EngineProxy.obj
 0001:00014960       ??$_Umove@PAPAUHandleProxy@@@?$vector@PAUHandleProxy@@V?$allocator@PAUHandleProxy@@@std@@@std@@IAEPAPAUHandleProxy@@PAPAU2@00@Z 10015960 f i V8EngineProxy.obj
 0001:000149f0       ??$_Umove@PAU_StringItem@@@?$vector@U_StringItem@@V?$allocator@U_StringItem@@@std@@@std@@IAEPAU_StringItem@@PAU2@00@Z 100159f0 f i V8EngineProxy.obj
 0001:00014a80       ??$_Unchecked@PAH@std@@YAPAHPAH@Z 10015a80 f i V8EngineProxy.obj
 0001:00014ab0       ??$_Unchecked@PAI@std@@YAPAIPAI@Z 10015ab0 f i V8EngineProxy.obj
 0001:00014ae0       ??$_Unchecked@PAPAUHandleProxy@@@std@@YAPAPAUHandleProxy@@PAPAU1@@Z 10015ae0 f i V8EngineProxy.obj
 0001:00014b10       ??$_Unchecked@PAU_StringItem@@@std@@YAPAU_StringItem@@PAU1@@Z 10015b10 f i V8EngineProxy.obj
 0001:00014b40       ??$_Unchecked@V?$_Vb_iterator@U?$_Wrap_alloc@V?$allocator@I@std@@@std@@@std@@@std@@YA?AV?$_Vb_iterator@U?$_Wrap_alloc@V?$allocator@I@std@@@std@@@0@V10@@Z 10015b40 f i V8EngineProxy.obj
 0001:00014be0       ??$_Uninit_fill_n@HIHH@std@@YAXPAHIPBHAAU?$_Wrap_alloc@V?$allocator@H@std@@@0@0U_Scalar_ptr_iterator_tag@0@@Z 10015be0 f i V8EngineProxy.obj
 0001:00014c30       ??$_Uninit_fill_n@IIII@std@@YAXPAIIPBIAAU?$_Wrap_alloc@V?$allocator@I@std@@@0@0U_Scalar_ptr_iterator_tag@0@@Z 10015c30 f i V8EngineProxy.obj
 0001:00014c80       ??$_Uninit_fill_n@PAUHandleProxy@@IPAU1@PAU1@@std@@YAXPAPAUHandleProxy@@IPBQAU1@AAU?$_Wrap_alloc@V?$allocator@PAUHandleProxy@@@std@@@0@0U_Scalar_ptr_iterator_tag@0@@Z 10015c80 f i V8EngineProxy.obj
 0001:00014cd0       ??$_Uninit_fill_n@PAU_StringItem@@IU1@V?$allocator@U_StringItem@@@std@@U1@@std@@YAXPAU_StringItem@@IPBU1@AAU?$_Wrap_alloc@V?$allocator@U_StringItem@@@std@@@0@0U_Nonscalar_ptr_iterator_tag@0@@Z 10015cd0 f i V8EngineProxy.obj
 0001:00014db0       ??$_Uninit_move@HHH@std@@YAPAHPAH00AAU?$_Wrap_alloc@V?$allocator@H@std@@@0@0U_Scalar_ptr_iterator_tag@0@@Z 10015db0 f i V8EngineProxy.obj
 0001:00014e50       ??$_Uninit_move@III@std@@YAPAIPAI00AAU?$_Wrap_alloc@V?$allocator@I@std@@@0@0U_Scalar_ptr_iterator_tag@0@@Z 10015e50 f i V8EngineProxy.obj
 0001:00014ef0       ??$_Uninit_move@PAHPAHU?$_Wrap_alloc@V?$allocator@H@std@@@std@@@std@@YAPAHPAH00AAU?$_Wrap_alloc@V?$allocator@H@std@@@0@@Z 10015ef0 f i V8EngineProxy.obj
 0001:00014f70       ??$_Uninit_move@PAIPAIU?$_Wrap_alloc@V?$allocator@I@std@@@std@@@std@@YAPAIPAI00AAU?$_Wrap_alloc@V?$allocator@I@std@@@0@@Z 10015f70 f i V8EngineProxy.obj
 0001:00014ff0       ??$_Uninit_move@PAPAUHandleProxy@@PAPAU1@U?$_Wrap_alloc@V?$allocator@PAUHandleProxy@@@std@@@std@@@std@@YAPAPAUHandleProxy@@PAPAU1@00AAU?$_Wrap_alloc@V?$allocator@PAUHandleProxy@@@std@@@0@@Z 10015ff0 f i V8EngineProxy.obj
 0001:00015070       ??$_Uninit_move@PAUHandleProxy@@PAU1@PAU1@@std@@YAPAPAUHandleProxy@@PAPAU1@00AAU?$_Wrap_alloc@V?$allocator@PAUHandleProxy@@@std@@@0@0U_Scalar_ptr_iterator_tag@0@@Z 10016070 f i V8EngineProxy.obj
 0001:00015110       ??$_Uninit_move@PAU_StringItem@@PAU1@U?$_Wrap_alloc@V?$allocator@U_StringItem@@@std@@@std@@@std@@YAPAU_StringItem@@PAU1@00AAU?$_Wrap_alloc@V?$allocator@U_StringItem@@@std@@@0@@Z 10016110 f i V8EngineProxy.obj
 0001:00015190       ??$_Uninit_move@PAU_StringItem@@PAU1@V?$allocator@U_StringItem@@@std@@U1@@std@@YAPAU_StringItem@@PAU1@00AAU?$_Wrap_alloc@V?$allocator@U_StringItem@@@std@@@0@0U_Nonscalar_ptr_iterator_tag@0@@Z 10016190 f i V8EngineProxy.obj
 0001:000152a0       ??$_Uninitialized_fill_n@PAHIHU?$_Wrap_alloc@V?$allocator@H@std@@@std@@@std@@YAXPAHIPBHAAU?$_Wrap_alloc@V?$allocator@H@std@@@0@@Z 100162a0 f i V8EngineProxy.obj
 0001:00015320       ??$_Uninitialized_fill_n@PAIIIU?$_Wrap_alloc@V?$allocator@I@std@@@std@@@std@@YAXPAIIPBIAAU?$_Wrap_alloc@V?$allocator@I@std@@@0@@Z 10016320 f i V8EngineProxy.obj
 0001:000153a0       ??$_Uninitialized_fill_n@PAPAUHandleProxy@@IPAU1@U?$_Wrap_alloc@V?$allocator@PAUHandleProxy@@@std@@@std@@@std@@YAXPAPAUHandleProxy@@IPBQAU1@AAU?$_Wrap_alloc@V?$allocator@PAUHandleProxy@@@std@@@0@@Z 100163a0 f i V8EngineProxy.obj
 0001:00015420       ??$_Uninitialized_fill_n@PAU_StringItem@@IU1@U?$_Wrap_alloc@V?$allocator@U_StringItem@@@std@@@std@@@std@@YAXPAU_StringItem@@IPBU1@AAU?$_Wrap_alloc@V?$allocator@U_StringItem@@@std@@@0@@Z 10016420 f i V8EngineProxy.obj
 0001:000154a0       ??$_Uninitialized_move@PAHPAHU?$_Wrap_alloc@V?$allocator@H@std@@@std@@@std@@YAPAHPAH00AAU?$_Wrap_alloc@V?$allocator@H@std@@@0@@Z 100164a0 f i V8EngineProxy.obj
 0001:00015520       ??$_Uninitialized_move@PAIPAIU?$_Wrap_alloc@V?$allocator@I@std@@@std@@@std@@YAPAIPAI00AAU?$_Wrap_alloc@V?$allocator@I@std@@@0@@Z 10016520 f i V8EngineProxy.obj
 0001:000155a0       ??$_Uninitialized_move@PAPAUHandleProxy@@PAPAU1@U?$_Wrap_alloc@V?$allocator@PAUHandleProxy@@@std@@@std@@@std@@YAPAPAUHandleProxy@@PAPAU1@00AAU?$_Wrap_alloc@V?$allocator@PAUHandleProxy@@@std@@@0@@Z 100165a0 f i V8EngineProxy.obj
 0001:00015620       ??$_Uninitialized_move@PAU_StringItem@@PAU1@U?$_Wrap_alloc@V?$allocator@U_StringItem@@@std@@@std@@@std@@YAPAU_StringItem@@PAU1@00AAU?$_Wrap_alloc@V?$allocator@U_StringItem@@@std@@@0@@Z 10016620 f i V8EngineProxy.obj
 0001:000156a0       ??$_Val_type@PAH@std@@YAPAHPAH@Z 100166a0 f i V8EngineProxy.obj
 0001:000156d0       ??$_Val_type@PAI@std@@YAPAIPAI@Z 100166d0 f i V8EngineProxy.obj
 0001:00015700       ??$_Val_type@PAPAUHandleProxy@@@std@@YAPAPAUHandleProxy@@PAPAU1@@Z 10016700 f i V8EngineProxy.obj
 0001:00015730       ??$_Val_type@PAU_StringItem@@@std@@YAPAU_StringItem@@PAU1@@Z 10016730 f i V8EngineProxy.obj
 0001:00015760       ??$addressof@$$CBH@std@@YAPBHABH@Z 10016760 f i V8EngineProxy.obj
 0001:00015790       ??$addressof@$$CBI@std@@YAPBIABI@Z 10016790 f i V8EngineProxy.obj
 0001:000157c0       ??$addressof@$$CBU_StringItem@@@std@@YAPBU_StringItem@@ABU1@@Z 100167c0 f i V8EngineProxy.obj
 0001:000157f0       ??$addressof@I@std@@YAPAIAAI@Z 100167f0 f i V8EngineProxy.obj
 0001:00015820       ??$addressof@QAUHandleProxy@@@std@@YAPBQAUHandleProxy@@ABQAU1@@Z 10016820 f i V8EngineProxy.obj
 0001:00015850       ??$construct@HAAH@?$_Wrap_alloc@V?$allocator@H@std@@@std@@QAEXPAHAAH@Z 10016850 f i V8EngineProxy.obj
 0001:000158b0       ??$construct@HAAH@?$allocator@H@std@@QAEXPAHAAH@Z 100168b0 f i V8EngineProxy.obj
 0001:00015980       ??$construct@HAAH@?$allocator_traits@V?$allocator@H@std@@@std@@SAXAAV?$allocator@H@1@PAHAAH@Z 10016980 f i V8EngineProxy.obj
 0001:000159d0       ??$construct@HABH@?$_Wrap_alloc@V?$allocator@H@std@@@std@@QAEXPAHABH@Z 100169d0 f i V8EngineProxy.obj
 0001:00015a30       ??$construct@HABH@?$allocator_traits@V?$allocator@H@std@@@std@@SAXAAV?$allocator@H@1@PAHABH@Z 10016a30 f i V8EngineProxy.obj
 0001:00015a80       ??$construct@PAUHandleProxy@@AAPAU1@@?$_Wrap_alloc@V?$allocator@PAUHandleProxy@@@std@@@std@@QAEXPAPAUHandleProxy@@AAPAU2@@Z 10016a80 f i V8EngineProxy.obj
 0001:00015ae0       ??$construct@PAUHandleProxy@@AAPAU1@@?$allocator@PAUHandleProxy@@@std@@QAEXPAPAUHandleProxy@@AAPAU2@@Z 10016ae0 f i V8EngineProxy.obj
 0001:00015bb0       ??$construct@PAUHandleProxy@@AAPAU1@@?$allocator_traits@V?$allocator@PAUHandleProxy@@@std@@@std@@SAXAAV?$allocator@PAUHandleProxy@@@1@PAPAUHandleProxy@@AAPAU3@@Z 10016bb0 f i V8EngineProxy.obj
 0001:00015c00       ??$construct@PAUHandleProxy@@ABQAU1@@?$_Wrap_alloc@V?$allocator@PAUHandleProxy@@@std@@@std@@QAEXPAPAUHandleProxy@@ABQAU2@@Z 10016c00 f i V8EngineProxy.obj
 0001:00015c60       ??$construct@PAUHandleProxy@@ABQAU1@@?$allocator_traits@V?$allocator@PAUHandleProxy@@@std@@@std@@SAXAAV?$allocator@PAUHandleProxy@@@1@PAPAUHandleProxy@@ABQAU3@@Z 10016c60 f i V8EngineProxy.obj
 0001:00015cb0       ??$construct@U_Container_proxy@std@@U12@@?$_Wrap_alloc@V?$allocator@U_Container_proxy@std@@@std@@@std@@QAEXPAU_Container_proxy@1@$$QAU21@@Z 10016cb0 f i V8EngineProxy.obj
 0001:00015d10       ??$construct@U_Container_proxy@std@@U12@@?$allocator@U_Container_proxy@std@@@std@@QAEXPAU_Container_proxy@1@$$QAU21@@Z 10016d10 f i V8EngineProxy.obj
 0001:00015de0       ??$construct@U_Container_proxy@std@@U12@@?$allocator_traits@V?$allocator@U_Container_proxy@std@@@std@@@std@@SAXAAV?$allocator@U_Container_proxy@std@@@1@PAU_Container_proxy@1@$$QAU31@@Z 10016de0 f i V8EngineProxy.obj
 0001:00015e30       ??$construct@U_StringItem@@AAU1@@?$_Wrap_alloc@V?$allocator@U_StringItem@@@std@@@std@@QAEXPAU_StringItem@@AAU2@@Z 10016e30 f i V8EngineProxy.obj
 0001:00015e90       ??$construct@U_StringItem@@AAU1@@?$allocator@U_StringItem@@@std@@QAEXPAU_StringItem@@AAU2@@Z 10016e90 f i V8EngineProxy.obj
 0001:00015f70       ??$construct@U_StringItem@@AAU1@@?$allocator_traits@V?$allocator@U_StringItem@@@std@@@std@@SAXAAV?$allocator@U_StringItem@@@1@PAU_StringItem@@AAU3@@Z 10016f70 f i V8EngineProxy.obj
 0001:00015fc0       ??$construct@U_StringItem@@ABU1@@?$_Wrap_alloc@V?$allocator@U_StringItem@@@std@@@std@@QAEXPAU_StringItem@@ABU2@@Z 10016fc0 f i V8EngineProxy.obj
 0001:00016020       ??$construct@U_StringItem@@ABU1@@?$allocator_traits@V?$allocator@U_StringItem@@@std@@@std@@SAXAAV?$allocator@U_StringItem@@@1@PAU_StringItem@@ABU3@@Z 10017020 f i V8EngineProxy.obj
 0001:00016070       ??$construct@U_StringItem@@U1@@?$_Wrap_alloc@V?$allocator@U_StringItem@@@std@@@std@@QAEXPAU_StringItem@@$$QAU2@@Z 10017070 f i V8EngineProxy.obj
 0001:000160d0       ??$construct@U_StringItem@@U1@@?$allocator@U_StringItem@@@std@@QAEXPAU_StringItem@@$$QAU2@@Z 100170d0 f i V8EngineProxy.obj
 0001:000161b0       ??$construct@U_StringItem@@U1@@?$allocator_traits@V?$allocator@U_StringItem@@@std@@@std@@SAXAAV?$allocator@U_StringItem@@@1@PAU_StringItem@@$$QAU3@@Z 100171b0 f i V8EngineProxy.obj
 0001:00016200       ??$copy@V?$_Vb_iterator@U?$_Wrap_alloc@V?$allocator@I@std@@@std@@@std@@V12@@std@@YA?AV?$_Vb_iterator@U?$_Wrap_alloc@V?$allocator@I@std@@@std@@@0@V10@00@Z 10017200 f i V8EngineProxy.obj
 0001:000164f0       ??$copy_backward@V?$_Vb_iterator@U?$_Wrap_alloc@V?$allocator@I@std@@@std@@@std@@V12@@std@@YA?AV?$_Vb_iterator@U?$_Wrap_alloc@V?$allocator@I@std@@@std@@@0@V10@00@Z 100174f0 f i V8EngineProxy.obj
 0001:00016760       ??$destroy@H@?$_Wrap_alloc@V?$allocator@H@std@@@std@@QAEXPAH@Z 10017760 f i V8EngineProxy.obj
 0001:000167b0       ??$destroy@H@?$allocator@H@std@@QAEXPAH@Z 100177b0 f i V8EngineProxy.obj
 0001:000167e0       ??$destroy@H@?$allocator_traits@V?$allocator@H@std@@@std@@SAXAAV?$allocator@H@1@PAH@Z 100177e0 f i V8EngineProxy.obj
 0001:00016820       ??$destroy@U_Container_proxy@std@@@?$_Wrap_alloc@V?$allocator@U_Container_proxy@std@@@std@@@std@@QAEXPAU_Container_proxy@1@@Z 10017820 f i V8EngineProxy.obj
 0001:00016870       ??$destroy@U_Container_proxy@std@@@?$allocator@U_Container_proxy@std@@@std@@QAEXPAU_Container_proxy@1@@Z 10017870 f i V8EngineProxy.obj
 0001:000168a0       ??$destroy@U_Container_proxy@std@@@?$allocator_traits@V?$allocator@U_Container_proxy@std@@@std@@@std@@SAXAAV?$allocator@U_Container_proxy@std@@@1@PAU_Container_proxy@1@@Z 100178a0 f i V8EngineProxy.obj
 0001:000168e0       ??$destroy@U_StringItem@@@?$_Wrap_alloc@V?$allocator@U_StringItem@@@std@@@std@@QAEXPAU_StringItem@@@Z 100178e0 f i V8EngineProxy.obj
 0001:00016930       ??$destroy@U_StringItem@@@?$allocator@U_StringItem@@@std@@QAEXPAU_StringItem@@@Z 10017930 f i V8EngineProxy.obj
 0001:00016960       ??$destroy@U_StringItem@@@?$allocator_traits@V?$allocator@U_StringItem@@@std@@@std@@SAXAAV?$allocator@U_StringItem@@@1@PAU_StringItem@@@Z 10017960 f i V8EngineProxy.obj
 0001:000169a0       ??$fill@V?$_Vb_iterator@U?$_Wrap_alloc@V?$allocator@I@std@@@std@@@std@@_N@std@@YAXV?$_Vb_iterator@U?$_Wrap_alloc@V?$allocator@I@std@@@std@@@0@0AB_N@Z 100179a0 f i V8EngineProxy.obj
 0001:00016b50       ??$forward@AAH@std@@YAAAHAAH@Z 10017b50 f i V8EngineProxy.obj
 0001:00016b80       ??$forward@AAPAUHandleProxy@@@std@@YAAAPAUHandleProxy@@AAPAU1@@Z 10017b80 f i V8EngineProxy.obj
 0001:00016bb0       ??$forward@AAU_StringItem@@@std@@YAAAU_StringItem@@AAU1@@Z 10017bb0 f i V8EngineProxy.obj
 0001:00016be0       ??$forward@ABH@std@@YAABHABH@Z 10017be0 f i V8EngineProxy.obj
 0001:00016c10       ??$forward@ABQAUHandleProxy@@@std@@YAABQAUHandleProxy@@ABQAU1@@Z 10017c10 f i V8EngineProxy.obj
 0001:00016c40       ??$forward@ABU_StringItem@@@std@@YAABU_StringItem@@ABU1@@Z 10017c40 f i V8EngineProxy.obj
 0001:00016c70       ??$forward@U_Container_proxy@std@@@std@@YA$$QAU_Container_proxy@0@AAU10@@Z 10017c70 f i V8EngineProxy.obj
 0001:00016ca0       ??$forward@U_StringItem@@@std@@YA$$QAU_StringItem@@AAU1@@Z 10017ca0 f i V8EngineProxy.obj
 0001:00016cd0       ??0?$CopyablePersistent@VContext@v8@@@@QAE@XZ 10017cd0 f i V8EngineProxy.obj
 0001:00016d50       ??0?$CopyablePersistent@VObject@v8@@@@QAE@XZ 10017d50 f i V8EngineProxy.obj
 0001:00016dd0       ??0?$Handle@VContext@v8@@@v8@@AAE@PAVContext@1@@Z 10017dd0 f i V8EngineProxy.obj
 0001:00016e10       ??0?$Handle@VContext@v8@@@v8@@QAE@XZ 10017e10 f i V8EngineProxy.obj
 0001:00016e50       ??0?$Handle@VFunction@v8@@@v8@@AAE@PAVFunction@1@@Z 10017e50 f i V8EngineProxy.obj
 0001:00016e90       ??0?$Handle@VFunction@v8@@@v8@@QAE@XZ 10017e90 f i V8EngineProxy.obj
 0001:00016ed0       ??0?$Handle@VString@v8@@@v8@@QAE@XZ 10017ed0 f i V8EngineProxy.obj
 0001:00016f10       ??0?$Local@VContext@v8@@@v8@@QAE@XZ 10017f10 f i V8EngineProxy.obj
 0001:00016f60       ??0?$Local@VString@v8@@@v8@@QAE@XZ 10017f60 f i V8EngineProxy.obj
 0001:00016fb0       ??0?$Persistent@VContext@v8@@U?$CopyablePersistentTraits@VContext@v8@@@2@@v8@@QAE@XZ 10017fb0 f i V8EngineProxy.obj
 0001:00017000       ??0?$Persistent@VObject@v8@@U?$CopyablePersistentTraits@VObject@v8@@@2@@v8@@QAE@XZ 10018000 f i V8EngineProxy.obj
 0001:00017050       ??0?$PersistentBase@VContext@v8@@@v8@@AAE@PAVContext@1@@Z 10018050 f i V8EngineProxy.obj
 0001:00017090       ??0?$PersistentBase@VObject@v8@@@v8@@AAE@PAVObject@1@@Z 10018090 f i V8EngineProxy.obj
 0001:000170d0       ??0?$_Iterator012@Urandom_access_iterator_tag@std@@HHPBHABHU_Iterator_base12@2@@std@@QAE@ABU01@@Z 100180d0 f i V8EngineProxy.obj
 0001:00017150       ??0?$_Iterator012@Urandom_access_iterator_tag@std@@HHPBHABHU_Iterator_base12@2@@std@@QAE@XZ 10018150 f i V8EngineProxy.obj
 0001:000171d0       ??0?$_Iterator012@Urandom_access_iterator_tag@std@@IHPBIABIU_Iterator_base12@2@@std@@QAE@ABU01@@Z 100181d0 f i V8EngineProxy.obj
 0001:00017250       ??0?$_Iterator012@Urandom_access_iterator_tag@std@@IHPBIABIU_Iterator_base12@2@@std@@QAE@XZ 10018250 f i V8EngineProxy.obj
 0001:000172d0       ??0?$_Iterator012@Urandom_access_iterator_tag@std@@_NHPA_N_NU_Iterator_base12@2@@std@@QAE@ABU01@@Z 100182d0 f i V8EngineProxy.obj
 0001:00017350       ??0?$_Iterator012@Urandom_access_iterator_tag@std@@_NHPA_N_NU_Iterator_base12@2@@std@@QAE@XZ 10018350 f i V8EngineProxy.obj
 0001:000173d0       ??0?$_Vb_const_iterator@U?$_Wrap_alloc@V?$allocator@I@std@@@std@@@std@@QAE@ABV01@@Z 100183d0 f i V8EngineProxy.obj
 0001:00017450       ??0?$_Vb_const_iterator@U?$_Wrap_alloc@V?$allocator@I@std@@@std@@@std@@QAE@PBIPBU_Container_base12@1@@Z 10018450 f i V8EngineProxy.obj
 0001:000174e0       ??0?$_Vb_iter_base@U?$_Wrap_alloc@V?$allocator@I@std@@@std@@@std@@QAE@ABV01@@Z 100184e0 f i V8EngineProxy.obj
 0001:00017580       ??0?$_Vb_iter_base@U?$_Wrap_alloc@V?$allocator@I@std@@@std@@@std@@QAE@PBIIPBU_Container_base12@1@@Z 10018580 f i V8EngineProxy.obj
 0001:00017620       ??0?$_Vb_iterator@U?$_Wrap_alloc@V?$allocator@I@std@@@std@@@std@@QAE@ABV01@@Z 10018620 f i V8EngineProxy.obj
 0001:000176a0       ??0?$_Vb_iterator@U?$_Wrap_alloc@V?$allocator@I@std@@@std@@@std@@QAE@PAIPAU_Container_base12@1@@Z 100186a0 f i V8EngineProxy.obj
 0001:00017730       ??0?$_Vb_reference@U?$_Wrap_alloc@V?$allocator@I@std@@@std@@@std@@QAE@ABV?$_Vb_iter_base@U?$_Wrap_alloc@V?$allocator@I@std@@@std@@@1@@Z 10018730 f i V8EngineProxy.obj
 0001:000177d0       ??0?$_Vb_val@V?$allocator@_N@std@@@std@@QAE@IAB_NABV?$allocator@_N@1@@Z 100187d0 f i V8EngineProxy.obj
 0001:000178c0       ??0?$_Vector_alloc@$0A@U?$_Vec_base_types@HV?$allocator@H@std@@@std@@@std@@QAE@ABV?$allocator@H@1@@Z 100188c0 f i V8EngineProxy.obj
 0001:00017950       ??0?$_Vector_alloc@$0A@U?$_Vec_base_types@IV?$allocator@_N@std@@@std@@@std@@QAE@ABV?$allocator@_N@1@@Z 10018950 f i V8EngineProxy.obj
 0001:000179e0       ??0?$_Vector_alloc@$0A@U?$_Vec_base_types@PAUHandleProxy@@V?$allocator@PAUHandleProxy@@@std@@@std@@@std@@QAE@ABV?$allocator@PAUHandleProxy@@@1@@Z 100189e0 f i V8EngineProxy.obj
 0001:00017a70       ??0?$_Vector_alloc@$0A@U?$_Vec_base_types@U_StringItem@@V?$allocator@U_StringItem@@@std@@@std@@@std@@QAE@ABV?$allocator@U_StringItem@@@1@@Z 10018a70 f i V8EngineProxy.obj
 0001:00017b00       ??0?$_Vector_const_iterator@V?$_Vector_val@U?$_Simple_types@H@std@@@std@@@std@@QAE@ABV01@@Z 10018b00 f i V8EngineProxy.obj
 0001:00017b90       ??0?$_Vector_const_iterator@V?$_Vector_val@U?$_Simple_types@H@std@@@std@@@std@@QAE@PAHPBU_Container_base12@1@@Z 10018b90 f i V8EngineProxy.obj
 0001:00017c30       ??0?$_Vector_const_iterator@V?$_Vector_val@U?$_Simple_types@I@std@@@std@@@std@@QAE@ABV01@@Z 10018c30 f i V8EngineProxy.obj
 0001:00017cc0       ??0?$_Vector_const_iterator@V?$_Vector_val@U?$_Simple_types@I@std@@@std@@@std@@QAE@PAIPBU_Container_base12@1@@Z 10018cc0 f i V8EngineProxy.obj
 0001:00017d60       ??0?$_Vector_iterator@V?$_Vector_val@U?$_Simple_types@H@std@@@std@@@std@@QAE@ABV01@@Z 10018d60 f i V8EngineProxy.obj
 0001:00017de0       ??0?$_Vector_iterator@V?$_Vector_val@U?$_Simple_types@H@std@@@std@@@std@@QAE@PAHPBU_Container_base12@1@@Z 10018de0 f i V8EngineProxy.obj
 0001:00017e70       ??0?$_Vector_iterator@V?$_Vector_val@U?$_Simple_types@I@std@@@std@@@std@@QAE@ABV01@@Z 10018e70 f i V8EngineProxy.obj
 0001:00017ef0       ??0?$_Vector_iterator@V?$_Vector_val@U?$_Simple_types@I@std@@@std@@@std@@QAE@PAIPBU_Container_base12@1@@Z 10018ef0 f i V8EngineProxy.obj
 0001:00017f80       ??0?$_Vector_val@U?$_Simple_types@H@std@@@std@@QAE@XZ 10018f80 f i V8EngineProxy.obj
 0001:00018030       ??0?$_Vector_val@U?$_Simple_types@I@std@@@std@@QAE@XZ 10019030 f i V8EngineProxy.obj
 0001:000180e0       ??0?$_Vector_val@U?$_Simple_types@PAUHandleProxy@@@std@@@std@@QAE@XZ 100190e0 f i V8EngineProxy.obj
 0001:00018190       ??0?$_Vector_val@U?$_Simple_types@U_StringItem@@@std@@@std@@QAE@XZ 10019190 f i V8EngineProxy.obj
 0001:00018240       ??0?$_Wrap_alloc@V?$allocator@H@std@@@std@@QAE@XZ 10019240 f i V8EngineProxy.obj
 0001:00018290       ??0?$_Wrap_alloc@V?$allocator@I@std@@@std@@QAE@XZ 10019290 f i V8EngineProxy.obj
 0001:000182e0       ??0?$_Wrap_alloc@V?$allocator@PAUHandleProxy@@@std@@@std@@QAE@XZ 100192e0 f i V8EngineProxy.obj
 0001:00018330       ??0?$_Wrap_alloc@V?$allocator@U_Container_proxy@std@@@std@@@std@@QAE@XZ 10019330 f i V8EngineProxy.obj
 0001:00018380       ??0?$_Wrap_alloc@V?$allocator@U_StringItem@@@std@@@std@@QAE@XZ 10019380 f i V8EngineProxy.obj
 0001:000183d0       ??0?$allocator@H@std@@QAE@XZ 100193d0 f i V8EngineProxy.obj
 0001:00018400       ??0?$allocator@I@std@@QAE@XZ 10019400 f i V8EngineProxy.obj
 0001:00018430       ??0?$allocator@PAUHandleProxy@@@std@@QAE@XZ 10019430 f i V8EngineProxy.obj
 0001:00018460       ??0?$allocator@U_Container_proxy@std@@@std@@QAE@XZ 10019460 f i V8EngineProxy.obj
 0001:00018490       ??0?$allocator@U_StringItem@@@std@@QAE@XZ 10019490 f i V8EngineProxy.obj
 0001:000184c0       ??0?$allocator@_N@std@@QAE@XZ 100194c0 f i V8EngineProxy.obj
 0001:000184f0       ??0?$vector@HV?$allocator@H@std@@@std@@QAE@IABH@Z 100194f0 f i V8EngineProxy.obj
 0001:000185a0       ??0?$vector@IV?$allocator@_N@std@@@std@@QAE@IABIABV?$allocator@_N@1@@Z 100195a0 f i V8EngineProxy.obj
 0001:00018640       ??0?$vector@PAUHandleProxy@@V?$allocator@PAUHandleProxy@@@std@@@std@@QAE@IABQAUHandleProxy@@@Z 10019640 f i V8EngineProxy.obj
 0001:000186f0       ??0?$vector@U_StringItem@@V?$allocator@U_StringItem@@@std@@@std@@QAE@IABU_StringItem@@@Z 100196f0 f i V8EngineProxy.obj
 0001:000187a0       ??0?$vector@_NV?$allocator@_N@std@@@std@@QAE@IAB_N@Z 100197a0 f i V8EngineProxy.obj
 0001:00018840       ??0V8EngineProxy@@QAE@_NP6AXXZH@Z 10019840 f   V8EngineProxy.obj
 0001:00018ba0       ??0_Container_proxy@std@@QAE@XZ 10019ba0 f i V8EngineProxy.obj
 0001:00018be0       ??0_Iterator_base12@std@@QAE@ABU01@@Z 10019be0 f i V8EngineProxy.obj
 0001:00018c40       ??0_Iterator_base12@std@@QAE@XZ 10019c40 f i V8EngineProxy.obj
 0001:00018c80       ??0_Mutex_base@std@@QAE@H@Z 10019c80 f i V8EngineProxy.obj
 0001:00018cd0       ??0_StringItem@@QAE@PAVV8EngineProxy@@I@Z 10019cd0 f   V8EngineProxy.obj
 0001:00018d40       ??0_StringItem@@QAE@PAVV8EngineProxy@@PAVString@v8@@@Z 10019d40 f   V8EngineProxy.obj
 0001:00018de0       ??0_StringItem@@QAE@XZ     10019de0 f   V8EngineProxy.obj
 0001:00018e30       ??0recursive_mutex@std@@QAE@XZ 10019e30 f i V8EngineProxy.obj
 0001:00018eb0       ??1?$CopyablePersistent@VContext@v8@@@@QAE@XZ 10019eb0 f i V8EngineProxy.obj
 0001:00018f40       ??1?$CopyablePersistent@VObject@v8@@@@QAE@XZ 10019f40 f i V8EngineProxy.obj
 0001:00018fd0       ??1?$Persistent@VContext@v8@@U?$CopyablePersistentTraits@VContext@v8@@@2@@v8@@QAE@XZ 10019fd0 f i V8EngineProxy.obj
 0001:00019020       ??1?$Persistent@VObject@v8@@U?$CopyablePersistentTraits@VObject@v8@@@2@@v8@@QAE@XZ 1001a020 f i V8EngineProxy.obj
 0001:00019070       ??1?$_Iterator012@Urandom_access_iterator_tag@std@@HHPBHABHU_Iterator_base12@2@@std@@QAE@XZ 1001a070 f i V8EngineProxy.obj
 0001:000190f0       ??1?$_Iterator012@Urandom_access_iterator_tag@std@@IHPBIABIU_Iterator_base12@2@@std@@QAE@XZ 1001a0f0 f i V8EngineProxy.obj
 0001:00019170       ??1?$_Iterator012@Urandom_access_iterator_tag@std@@_NHPA_N_NU_Iterator_base12@2@@std@@QAE@XZ 1001a170 f i V8EngineProxy.obj
 0001:000191f0       ??1?$_Vb_const_iterator@U?$_Wrap_alloc@V?$allocator@I@std@@@std@@@std@@QAE@XZ 1001a1f0 f i V8EngineProxy.obj
 0001:00019270       ??1?$_Vb_iter_base@U?$_Wrap_alloc@V?$allocator@I@std@@@std@@@std@@QAE@XZ 1001a270 f i V8EngineProxy.obj
 0001:000192f0       ??1?$_Vb_iterator@U?$_Wrap_alloc@V?$allocator@I@std@@@std@@@std@@QAE@XZ 1001a2f0 f i V8EngineProxy.obj
 0001:00019370       ??1?$_Vb_reference@U?$_Wrap_alloc@V?$allocator@I@std@@@std@@@std@@QAE@XZ 1001a370 f i V8EngineProxy.obj
 0001:000193f0       ??1?$_Vb_val@V?$allocator@_N@std@@@std@@QAE@XZ 1001a3f0 f i V8EngineProxy.obj
 0001:00019490       ??1?$_Vector_alloc@$0A@U?$_Vec_base_types@HV?$allocator@H@std@@@std@@@std@@QAE@XZ 1001a490 f i V8EngineProxy.obj
 0001:00019510       ??1?$_Vector_alloc@$0A@U?$_Vec_base_types@IV?$allocator@_N@std@@@std@@@std@@QAE@XZ 1001a510 f i V8EngineProxy.obj
 0001:00019590       ??1?$_Vector_alloc@$0A@U?$_Vec_base_types@PAUHandleProxy@@V?$allocator@PAUHandleProxy@@@std@@@std@@@std@@QAE@XZ 1001a590 f i V8EngineProxy.obj
 0001:00019610       ??1?$_Vector_alloc@$0A@U?$_Vec_base_types@U_StringItem@@V?$allocator@U_StringItem@@@std@@@std@@@std@@QAE@XZ 1001a610 f i V8EngineProxy.obj
 0001:00019690       ??1?$_Vector_const_iterator@V?$_Vector_val@U?$_Simple_types@H@std@@@std@@@std@@QAE@XZ 1001a690 f i V8EngineProxy.obj
 0001:00019710       ??1?$_Vector_const_iterator@V?$_Vector_val@U?$_Simple_types@I@std@@@std@@@std@@QAE@XZ 1001a710 f i V8EngineProxy.obj
 0001:00019790       ??1?$_Vector_iterator@V?$_Vector_val@U?$_Simple_types@H@std@@@std@@@std@@QAE@XZ 1001a790 f i V8EngineProxy.obj
 0001:00019810       ??1?$_Vector_iterator@V?$_Vector_val@U?$_Simple_types@I@std@@@std@@@std@@QAE@XZ 1001a810 f i V8EngineProxy.obj
 0001:00019890       ??1?$_Vector_val@U?$_Simple_types@H@std@@@std@@QAE@XZ 1001a890 f i V8EngineProxy.obj
 0001:00019920       ??1?$_Vector_val@U?$_Simple_types@I@std@@@std@@QAE@XZ 1001a920 f i V8EngineProxy.obj
 0001:000199b0       ??1?$_Vector_val@U?$_Simple_types@PAUHandleProxy@@@std@@@std@@QAE@XZ 1001a9b0 f i V8EngineProxy.obj
 0001:00019a40       ??1?$_Vector_val@U?$_Simple_types@U_StringItem@@@std@@@std@@QAE@XZ 1001aa40 f i V8EngineProxy.obj
 0001:00019ad0       ??1?$vector@HV?$allocator@H@std@@@std@@QAE@XZ 1001aad0 f i V8EngineProxy.obj
 0001:00019b50       ??1?$vector@IV?$allocator@_N@std@@@std@@QAE@XZ 1001ab50 f i V8EngineProxy.obj
 0001:00019bd0       ??1?$vector@PAUHandleProxy@@V?$allocator@PAUHandleProxy@@@std@@@std@@QAE@XZ 1001abd0 f i V8EngineProxy.obj
 0001:00019c50       ??1?$vector@U_StringItem@@V?$allocator@U_StringItem@@@std@@@std@@QAE@XZ 1001ac50 f i V8EngineProxy.obj
 0001:00019cd0       ??1?$vector@_NV?$allocator@_N@std@@@std@@QAE@XZ 1001acd0 f i V8EngineProxy.obj
 0001:00019d60       ??1V8EngineProxy@@QAE@XZ   1001ad60 f   V8EngineProxy.obj
 0001:0001a0c0       ??1_Iterator_base12@std@@QAE@XZ 1001b0c0 f i V8EngineProxy.obj
 0001:0001a190       ??1_Mutex_base@std@@QAE@XZ 1001b190 f i V8EngineProxy.obj
 0001:0001a1e0       ??1recursive_mutex@std@@QAE@XZ 1001b1e0 f i V8EngineProxy.obj
 0001:0001a260       ??2@YAPAXIPAX@Z            1001b260 f i V8EngineProxy.obj
 0001:0001a290       ??3@YAXPAX0@Z              1001b290 f i V8EngineProxy.obj
 0001:0001a2c0       ??4?$CopyablePersistent@VContext@v8@@@@QAEAAU0@ABV?$Handle@VContext@v8@@@v8@@@Z 1001b2c0 f i V8EngineProxy.obj
 0001:0001a390       ??4?$CopyablePersistent@VObject@v8@@@@QAEAAU0@ABV?$Handle@VObject@v8@@@v8@@@Z 1001b390 f i V8EngineProxy.obj
 0001:0001a460       ??4?$Persistent@VContext@v8@@U?$CopyablePersistentTraits@VContext@v8@@@2@@v8@@QAEAAV01@ABV01@@Z 1001b460 f i V8EngineProxy.obj
 0001:0001a4b0       ??4?$Persistent@VObject@v8@@U?$CopyablePersistentTraits@VObject@v8@@@2@@v8@@QAEAAV01@ABV01@@Z 1001b4b0 f i V8EngineProxy.obj
 0001:0001a500       ??4?$_Vb_reference@U?$_Wrap_alloc@V?$allocator@I@std@@@std@@@std@@QAEAAV01@ABV01@@Z 1001b500 f i V8EngineProxy.obj
 0001:0001a550       ??4?$_Vb_reference@U?$_Wrap_alloc@V?$allocator@I@std@@@std@@@std@@QAEAAV01@_N@Z 1001b550 f i V8EngineProxy.obj
 0001:0001a5f0       ??4_Iterator_base12@std@@QAEAAU01@ABU01@@Z 1001b5f0 f i V8EngineProxy.obj
 0001:0001a6f0       ??8?$_Vb_const_iterator@U?$_Wrap_alloc@V?$allocator@I@std@@@std@@@std@@QBE_NABV01@@Z 1001b6f0 f i V8EngineProxy.obj
 0001:0001a770       ??8?$_Vector_const_iterator@V?$_Vector_val@U?$_Simple_types@I@std@@@std@@@std@@QBE_NABV01@@Z 1001b770 f i V8EngineProxy.obj
 0001:0001a7e0       ??9?$_Vb_const_iterator@U?$_Wrap_alloc@V?$allocator@I@std@@@std@@@std@@QBE_NABV01@@Z 1001b7e0 f i V8EngineProxy.obj
 0001:0001a850       ??9?$_Vector_const_iterator@V?$_Vector_val@U?$_Simple_types@I@std@@@std@@@std@@QBE_NABV01@@Z 1001b850 f i V8EngineProxy.obj
 0001:0001a8c0       ??A?$vector@HV?$allocator@H@std@@@std@@QAEAAHI@Z 1001b8c0 f i V8EngineProxy.obj
 0001:0001a9a0       ??A?$vector@IV?$allocator@_N@std@@@std@@QAEAAII@Z 1001b9a0 f i V8EngineProxy.obj
 0001:0001aa80       ??A?$vector@PAUHandleProxy@@V?$allocator@PAUHandleProxy@@@std@@@std@@QAEAAPAUHandleProxy@@I@Z 1001ba80 f i V8EngineProxy.obj
 0001:0001ab60       ??A?$vector@U_StringItem@@V?$allocator@U_StringItem@@@std@@@std@@QAEAAU_StringItem@@I@Z 1001bb60 f i V8EngineProxy.obj
 0001:0001ac40       ??A?$vector@_NV?$allocator@_N@std@@@std@@QAE?AV?$_Vb_reference@U?$_Wrap_alloc@V?$allocator@I@std@@@std@@@1@I@Z 1001bc40 f i V8EngineProxy.obj
 0001:0001ad20       ??B?$CopyablePersistent@VContext@v8@@@@QBE?AV?$Local@VContext@v8@@@v8@@XZ 1001bd20 f i V8EngineProxy.obj
 0001:0001ad70       ??B?$CopyablePersistent@VObjectTemplate@v8@@@@QBE?AV?$Local@VObjectTemplate@v8@@@v8@@XZ 1001bd70 f i V8EngineProxy.obj
 0001:0001adc0       ??B?$_Vb_reference@U?$_Wrap_alloc@V?$allocator@I@std@@@std@@@std@@QBE_NXZ 1001bdc0 f i V8EngineProxy.obj
 0001:0001ae30       ??C?$Handle@VMessage@v8@@@v8@@QBEPAVMessage@1@XZ 1001be30 f i V8EngineProxy.obj
 0001:0001ae60       ??C?$Handle@VScript@v8@@@v8@@QBEPAVScript@1@XZ 1001be60 f i V8EngineProxy.obj
 0001:0001ae90       ??C?$Handle@VString@v8@@@v8@@QBEPAVString@1@XZ 1001be90 f i V8EngineProxy.obj
 0001:0001aec0       ??D?$Handle@VContext@v8@@@v8@@QBEPAVContext@1@XZ 1001bec0 f i V8EngineProxy.obj
 0001:0001aef0       ??D?$Handle@VNumber@v8@@@v8@@QBEPAVNumber@1@XZ 1001bef0 f i V8EngineProxy.obj
 0001:0001af20       ??D?$_Vb_iterator@U?$_Wrap_alloc@V?$allocator@I@std@@@std@@@std@@QBE?AV?$_Vb_reference@U?$_Wrap_alloc@V?$allocator@I@std@@@std@@@1@XZ 1001bf20 f i V8EngineProxy.obj
 0001:0001afc0       ??D?$_Vector_const_iterator@V?$_Vector_val@U?$_Simple_types@H@std@@@std@@@std@@QBEABHXZ 1001bfc0 f i V8EngineProxy.obj
 0001:0001b0c0       ??D?$_Vector_iterator@V?$_Vector_val@U?$_Simple_types@H@std@@@std@@@std@@QBEAAHXZ 1001c0c0 f i V8EngineProxy.obj
 0001:0001b100       ??E?$_Vb_const_iterator@U?$_Wrap_alloc@V?$allocator@I@std@@@std@@@std@@QAEAAV01@XZ 1001c100 f i V8EngineProxy.obj
 0001:0001b150       ??E?$_Vb_iterator@U?$_Wrap_alloc@V?$allocator@I@std@@@std@@@std@@QAEAAV01@XZ 1001c150 f i V8EngineProxy.obj
 0001:0001b1a0       ??F?$_Vb_const_iterator@U?$_Wrap_alloc@V?$allocator@I@std@@@std@@@std@@QAEAAV01@XZ 1001c1a0 f i V8EngineProxy.obj
 0001:0001b1f0       ??F?$_Vb_iterator@U?$_Wrap_alloc@V?$allocator@I@std@@@std@@@std@@QAEAAV01@XZ 1001c1f0 f i V8EngineProxy.obj
 0001:0001b240       ??G?$_Vb_const_iterator@U?$_Wrap_alloc@V?$allocator@I@std@@@std@@@std@@QBEHABV01@@Z 1001c240 f i V8EngineProxy.obj
 0001:0001b2b0       ??G?$_Vb_iterator@U?$_Wrap_alloc@V?$allocator@I@std@@@std@@@std@@QBEHABV?$_Vb_const_iterator@U?$_Wrap_alloc@V?$allocator@I@std@@@std@@@1@@Z 1001c2b0 f i V8EngineProxy.obj
 0001:0001b300       ??G?$_Vector_iterator@V?$_Vector_val@U?$_Simple_types@H@std@@@std@@@std@@QBE?AV01@H@Z 1001c300 f i V8EngineProxy.obj
 0001:0001b3e0       ??H?$_Vb_iterator@U?$_Wrap_alloc@V?$allocator@I@std@@@std@@@std@@QBE?AV01@H@Z 1001c3e0 f i V8EngineProxy.obj
 0001:0001b4c0       ??H?$_Vector_iterator@V?$_Vector_val@U?$_Simple_types@I@std@@@std@@@std@@QBE?AV01@H@Z 1001c4c0 f i V8EngineProxy.obj
 0001:0001b5a0       ??M?$_Vb_const_iterator@U?$_Wrap_alloc@V?$allocator@I@std@@@std@@@std@@QBE_NABV01@@Z 1001c5a0 f i V8EngineProxy.obj
 0001:0001b630       ??M?$_Vector_const_iterator@V?$_Vector_val@U?$_Simple_types@I@std@@@std@@@std@@QBE_NABV01@@Z 1001c630 f i V8EngineProxy.obj
 0001:0001b6a0       ??Y?$_Vb_const_iterator@U?$_Wrap_alloc@V?$allocator@I@std@@@std@@@std@@QAEAAV01@H@Z 1001c6a0 f i V8EngineProxy.obj
 0001:0001b770       ??Y?$_Vb_iterator@U?$_Wrap_alloc@V?$allocator@I@std@@@std@@@std@@QAEAAV01@H@Z 1001c770 f i V8EngineProxy.obj
 0001:0001b7c0       ??Y?$_Vector_const_iterator@V?$_Vector_val@U?$_Simple_types@H@std@@@std@@@std@@QAEAAV01@H@Z 1001c7c0 f i V8EngineProxy.obj
 0001:0001b8e0       ??Y?$_Vector_const_iterator@V?$_Vector_val@U?$_Simple_types@I@std@@@std@@@std@@QAEAAV01@H@Z 1001c8e0 f i V8EngineProxy.obj
 0001:0001ba00       ??Y?$_Vector_iterator@V?$_Vector_val@U?$_Simple_types@H@std@@@std@@@std@@QAEAAV01@H@Z 1001ca00 f i V8EngineProxy.obj
 0001:0001ba50       ??Y?$_Vector_iterator@V?$_Vector_val@U?$_Simple_types@I@std@@@std@@@std@@QAEAAV01@H@Z 1001ca50 f i V8EngineProxy.obj
 0001:0001baa0       ??Z?$_Vector_iterator@V?$_Vector_val@U?$_Simple_types@H@std@@@std@@@std@@QAEAAV01@H@Z 1001caa0 f i V8EngineProxy.obj
 0001:0001baf0       ?Call@V8EngineProxy@@QAEPAUHandleProxy@@PAU2@PBG0GPAPAU2@@Z 1001caf0 f   V8EngineProxy.obj
 0001:0001c0d0       ?Clear@_StringItem@@QAEXXZ 1001d0d0 f   V8EngineProxy.obj
 0001:0001c110       ?Compile@V8EngineProxy@@QAEPAUHandleProxy@@PBGPAG@Z 1001d110 f   V8EngineProxy.obj
 0001:0001c420       ?Context@V8EngineProxy@@QAE?AV?$Handle@VContext@v8@@@v8@@XZ 1001d420 f   V8EngineProxy.obj
 0001:0001c490       ?CreateArray@V8EngineProxy@@QAEPAUHandleProxy@@PAPAGG@Z 1001d490 f   V8EngineProxy.obj
 0001:0001c5e0       ?CreateArray@V8EngineProxy@@QAEPAUHandleProxy@@PAPAU2@G@Z 1001d5e0 f   V8EngineProxy.obj
 0001:0001c700       ?CreateBoolean@V8EngineProxy@@QAEPAUHandleProxy@@_N@Z 1001d700 f   V8EngineProxy.obj
 0001:0001c780       ?CreateDate@V8EngineProxy@@QAEPAUHandleProxy@@N@Z 1001d780 f   V8EngineProxy.obj
 0001:0001c810       ?CreateError@V8EngineProxy@@QAEPAUHandleProxy@@PBDW4JSValueType@@@Z 1001d810 f   V8EngineProxy.obj
 0001:0001c8f0       ?CreateError@V8EngineProxy@@QAEPAUHandleProxy@@PBGW4JSValueType@@@Z 1001d8f0 f   V8EngineProxy.obj
 0001:0001c9d0       ?CreateFunctionTemplate@V8EngineProxy@@QAEPAVFunctionTemplateProxy@@PAGP6GPAUHandleProxy@@H_NPAU3@PAPAU3@I@Z@Z 1001d9d0 f   V8EngineProxy.obj
 0001:0001caa0       ?CreateInteger@V8EngineProxy@@QAEPAUHandleProxy@@H@Z 1001daa0 f   V8EngineProxy.obj
 0001:0001cb30       ?CreateNullValue@V8EngineProxy@@QAEPAUHandleProxy@@XZ 1001db30 f   V8EngineProxy.obj
 0001:0001cba0       ?CreateNumber@V8EngineProxy@@QAEPAUHandleProxy@@N@Z 1001dba0 f   V8EngineProxy.obj
 0001:0001cc30       ?CreateObject@V8EngineProxy@@QAEPAUHandleProxy@@H@Z 1001dc30 f   V8EngineProxy.obj
 0001:0001cce0       ?CreateObjectTemplate@V8EngineProxy@@QAEPAVObjectTemplateProxy@@XZ 1001dce0 f   V8EngineProxy.obj
 0001:0001cda0       ?CreateString@V8EngineProxy@@QAEPAUHandleProxy@@PBG@Z 1001dda0 f   V8EngineProxy.obj
 0001:0001ce30       ?Dispose@_StringItem@@QAEXXZ 1001de30 f   V8EngineProxy.obj
 0001:0001ce80       ?DisposeHandleProxy@V8EngineProxy@@QAEXPAUHandleProxy@@@Z 1001de80 f   V8EngineProxy.obj
 0001:0001cf60       ?DisposeNativeString@V8EngineProxy@@QAEXAAU_StringItem@@@Z 1001df60 f   V8EngineProxy.obj
 0001:0001cfb0       ?Execute@V8EngineProxy@@QAEPAUHandleProxy@@PBGPAG@Z 1001dfb0 f   V8EngineProxy.obj
 0001:0001d280       ?Execute@V8EngineProxy@@QAEPAUHandleProxy@@V?$Handle@VScript@v8@@@v8@@@Z 1001e280 f   V8EngineProxy.obj
 0001:0001d4c0       ?Free@_StringItem@@QAEXXZ  1001e4c0 f   V8EngineProxy.obj
 0001:0001d530       ?GetErrorMessage@V8EngineProxy@@SA?AV?$Local@VString@v8@@@v8@@AAVTryCatch@3@@Z 1001e530 f   V8EngineProxy.obj
 0001:0001dd50       ?GetHandleProxy@V8EngineProxy@@QAEPAUHandleProxy@@V?$Handle@VValue@v8@@@v8@@@Z 1001ed50 f   V8EngineProxy.obj
 0001:0001df00       ?GetNativeString@V8EngineProxy@@QAE?AU_StringItem@@PAVString@v8@@@Z 1001ef00 f   V8EngineProxy.obj
 0001:0001e060       ?Handle@?$CopyablePersistent@VContext@v8@@@@QBE?AV?$Local@VContext@v8@@@v8@@XZ 1001f060 f i V8EngineProxy.obj
 0001:0001e0c0       ?IsDisposed@V8EngineProxy@@SA_NH@Z 1001f0c0 f   V8EngineProxy.obj
 0001:0001e180       ?IsEmpty@?$CopyablePersistent@VContext@v8@@@@QBE_NXZ 1001f180 f i V8EngineProxy.obj
 0001:0001e1c0       ?IsEmpty@?$PersistentBase@VContext@v8@@@v8@@QBE_NXZ 1001f1c0 f i V8EngineProxy.obj
 0001:0001e210       ?IsEmpty@?$PersistentBase@VObject@v8@@@v8@@QBE_NXZ 1001f210 f i V8EngineProxy.obj
 0001:0001e260       ?Isolate@V8EngineProxy@@QAEPAV0v8@@XZ 1001f260 f   V8EngineProxy.obj
 0001:0001e290       ?New@?$Local@VContext@v8@@@v8@@CA?AV12@PAVIsolate@2@PAVContext@2@@Z 1001f290 f i V8EngineProxy.obj
 0001:0001e310       ?New@?$Local@VContext@v8@@@v8@@SA?AV12@PAVIsolate@2@ABV?$PersistentBase@VContext@v8@@@2@@Z 1001f310 f i V8EngineProxy.obj
 0001:0001e360       ?New@?$Local@VObjectTemplate@v8@@@v8@@SA?AV12@PAVIsolate@2@V?$Handle@VObjectTemplate@v8@@@2@@Z 1001f360 f i V8EngineProxy.obj
 0001:0001e3b0       ?New@?$PersistentBase@VContext@v8@@@v8@@CAPAVContext@2@PAVIsolate@2@PAV32@@Z 1001f3b0 f i V8EngineProxy.obj
 0001:0001e410       ?New@?$PersistentBase@VObject@v8@@@v8@@CAPAVObject@2@PAVIsolate@2@PAV32@@Z 1001f410 f i V8EngineProxy.obj
 0001:0001e470       ?Null@v8@@YA?AV?$Handle@VPrimitive@v8@@@1@PAVIsolate@1@@Z 1001f470 f i V8EngineProxy.obj
 0001:0001e4d0       ?RegisterGCCallback@V8EngineProxy@@QAEXP6G_NPAUHandleProxy@@@Z@Z 1001f4d0 f   V8EngineProxy.obj
 0001:0001e510       ?Reset@?$CopyablePersistent@VContext@v8@@@@QAEXXZ 1001f510 f i V8EngineProxy.obj
 0001:0001e550       ?Reset@?$CopyablePersistent@VObject@v8@@@@QAEXXZ 1001f550 f i V8EngineProxy.obj
 0001:0001e590       ?Reset@?$PersistentBase@VContext@v8@@@v8@@QAEXXZ 1001f590 f i V8EngineProxy.obj
 0001:0001e600       ?Reset@?$PersistentBase@VObject@v8@@@v8@@QAEXXZ 1001f600 f i V8EngineProxy.obj
 0001:0001e670       ?ResizeIfNeeded@_StringItem@@QAE?AU1@I@Z 1001f670 f   V8EngineProxy.obj
 0001:0001e700       ?SetGlobalObjectTemplate@V8EngineProxy@@QAEPAUHandleProxy@@PAVObjectTemplateProxy@@@Z 1001f700 f   V8EngineProxy.obj
 0001:0001e970       ?_Adopt@_Iterator_base12@std@@QAEXPBU_Container_base12@2@@Z 1001f970 f i V8EngineProxy.obj
 0001:0001eac0       ?_Advance@?$_Vb_iter_base@U?$_Wrap_alloc@V?$allocator@I@std@@@std@@@std@@QAEXI@Z 1001fac0 f i V8EngineProxy.obj
 0001:0001eb30       ?_Alloc_proxy@?$_Vb_val@V?$allocator@_N@std@@@std@@QAEXXZ 1001fb30 f i V8EngineProxy.obj
 0001:0001ebf0       ?_Alloc_proxy@?$_Vector_alloc@$0A@U?$_Vec_base_types@HV?$allocator@H@std@@@std@@@std@@QAEXXZ 1001fbf0 f i V8EngineProxy.obj
 0001:0001eca0       ?_Alloc_proxy@?$_Vector_alloc@$0A@U?$_Vec_base_types@IV?$allocator@_N@std@@@std@@@std@@QAEXXZ 1001fca0 f i V8EngineProxy.obj
 0001:0001ed50       ?_Alloc_proxy@?$_Vector_alloc@$0A@U?$_Vec_base_types@PAUHandleProxy@@V?$allocator@PAUHandleProxy@@@std@@@std@@@std@@QAEXXZ 1001fd50 f i V8EngineProxy.obj
 0001:0001ee00       ?_Alloc_proxy@?$_Vector_alloc@$0A@U?$_Vec_base_types@U_StringItem@@V?$allocator@U_StringItem@@@std@@@std@@@std@@QAEXXZ 1001fe00 f i V8EngineProxy.obj
 0001:0001eeb0       ?_Buy@?$vector@HV?$allocator@H@std@@@std@@IAE_NI@Z 1001feb0 f i V8EngineProxy.obj
 0001:0001ef70       ?_Buy@?$vector@IV?$allocator@_N@std@@@std@@IAE_NI@Z 1001ff70 f i V8EngineProxy.obj
 0001:0001f030       ?_Buy@?$vector@PAUHandleProxy@@V?$allocator@PAUHandleProxy@@@std@@@std@@IAE_NI@Z 10020030 f i V8EngineProxy.obj
 0001:0001f0f0       ?_Buy@?$vector@U_StringItem@@V?$allocator@U_StringItem@@@std@@@std@@IAE_NI@Z 100200f0 f i V8EngineProxy.obj
 0001:0001f1b0       ?_Clrcont@_Iterator_base12@std@@QAEXXZ 100201b0 f i V8EngineProxy.obj
 0001:0001f1f0       ?_Compat@?$_Vb_const_iterator@U?$_Wrap_alloc@V?$allocator@I@std@@@std@@@std@@QBEXABV12@@Z 100201f0 f i V8EngineProxy.obj
 0001:0001f270       ?_Compat@?$_Vector_const_iterator@V?$_Vector_val@U?$_Simple_types@I@std@@@std@@@std@@QBEXABV12@@Z 10020270 f i V8EngineProxy.obj
 0001:0001f360       ?_Construct_n@?$vector@HV?$allocator@H@std@@@std@@QAEXIPBH@Z 10020360 f i V8EngineProxy.obj
 0001:0001f430       ?_Construct_n@?$vector@IV?$allocator@_N@std@@@std@@QAEXIPBI@Z 10020430 f i V8EngineProxy.obj
 0001:0001f500       ?_Construct_n@?$vector@PAUHandleProxy@@V?$allocator@PAUHandleProxy@@@std@@@std@@QAEXIPBQAUHandleProxy@@@Z 10020500 f i V8EngineProxy.obj
 0001:0001f5d0       ?_Construct_n@?$vector@U_StringItem@@V?$allocator@U_StringItem@@@std@@@std@@QAEXIPBU_StringItem@@@Z 100205d0 f i V8EngineProxy.obj
 0001:0001f6a0       ?_Dec@?$_Vb_const_iterator@U?$_Wrap_alloc@V?$allocator@I@std@@@std@@@std@@QAEXXZ 100206a0 f i V8EngineProxy.obj
 0001:0001f7c0       ?_Destroy@?$vector@HV?$allocator@H@std@@@std@@IAEXPAH0@Z 100207c0 f i V8EngineProxy.obj
 0001:0001f850       ?_Destroy@?$vector@IV?$allocator@_N@std@@@std@@IAEXPAI0@Z 10020850 f i V8EngineProxy.obj
 0001:0001f8e0       ?_Destroy@?$vector@PAUHandleProxy@@V?$allocator@PAUHandleProxy@@@std@@@std@@IAEXPAPAUHandleProxy@@0@Z 100208e0 f i V8EngineProxy.obj
 0001:0001f970       ?_Destroy@?$vector@U_StringItem@@V?$allocator@U_StringItem@@@std@@@std@@IAEXPAU_StringItem@@0@Z 10020970 f i V8EngineProxy.obj
 0001:0001fa00       ?_Free_proxy@?$_Vb_val@V?$allocator@_N@std@@@std@@QAEXXZ 10020a00 f i V8EngineProxy.obj
 0001:0001fac0       ?_Free_proxy@?$_Vector_alloc@$0A@U?$_Vec_base_types@HV?$allocator@H@std@@@std@@@std@@QAEXXZ 10020ac0 f i V8EngineProxy.obj
 0001:0001fb70       ?_Free_proxy@?$_Vector_alloc@$0A@U?$_Vec_base_types@IV?$allocator@_N@std@@@std@@@std@@QAEXXZ 10020b70 f i V8EngineProxy.obj
 0001:0001fc20       ?_Free_proxy@?$_Vector_alloc@$0A@U?$_Vec_base_types@PAUHandleProxy@@V?$allocator@PAUHandleProxy@@@std@@@std@@@std@@QAEXXZ 10020c20 f i V8EngineProxy.obj
 0001:0001fcd0       ?_Free_proxy@?$_Vector_alloc@$0A@U?$_Vec_base_types@U_StringItem@@V?$allocator@U_StringItem@@@std@@@std@@@std@@QAEXXZ 10020cd0 f i V8EngineProxy.obj
 0001:0001fd80       ?_Getal@?$_Vector_alloc@$0A@U?$_Vec_base_types@HV?$allocator@H@std@@@std@@@std@@QBE?AU?$_Wrap_alloc@V?$allocator@H@std@@@2@XZ 10020d80 f i V8EngineProxy.obj
 0001:0001fdd0       ?_Getal@?$_Vector_alloc@$0A@U?$_Vec_base_types@IV?$allocator@_N@std@@@std@@@std@@QBE?AU?$_Wrap_alloc@V?$allocator@I@std@@@2@XZ 10020dd0 f i V8EngineProxy.obj
 0001:0001fe20       ?_Getal@?$_Vector_alloc@$0A@U?$_Vec_base_types@PAUHandleProxy@@V?$allocator@PAUHandleProxy@@@std@@@std@@@std@@QBE?AU?$_Wrap_alloc@V?$allocator@PAUHandleProxy@@@std@@@2@XZ 10020e20 f i V8EngineProxy.obj
 0001:0001fe70       ?_Getal@?$_Vector_alloc@$0A@U?$_Vec_base_types@U_StringItem@@V?$allocator@U_StringItem@@@std@@@std@@@std@@QBE?AU?$_Wrap_alloc@V?$allocator@U_StringItem@@@std@@@2@XZ 10020e70 f i V8EngineProxy.obj
 0001:0001fec0       ?_Getcont@_Iterator_base12@std@@QBEPBU_Container_base12@2@XZ 10020ec0 f i V8EngineProxy.obj
 0001:0001ff20       ?_Getpnext@_Iterator_base12@std@@QAEPAPAU12@XZ 10020f20 f i V8EngineProxy.obj
 0001:0001ff50       ?_Getptr@?$_Vb_reference@U?$_Wrap_alloc@V?$allocator@I@std@@@std@@@std@@QBEPBIXZ 10020f50 f i V8EngineProxy.obj
 0001:00020040       ?_Grow_to@?$vector@HV?$allocator@H@std@@@std@@IBEII@Z 10021040 f i V8EngineProxy.obj
 0001:000200d0       ?_Grow_to@?$vector@IV?$allocator@_N@std@@@std@@IBEII@Z 100210d0 f i V8EngineProxy.obj
 0001:00020160       ?_Grow_to@?$vector@PAUHandleProxy@@V?$allocator@PAUHandleProxy@@@std@@@std@@IBEII@Z 10021160 f i V8EngineProxy.obj
 0001:000201f0       ?_Grow_to@?$vector@U_StringItem@@V?$allocator@U_StringItem@@@std@@@std@@IBEII@Z 100211f0 f i V8EngineProxy.obj
 0001:00020280       ?_Inc@?$_Vb_const_iterator@U?$_Wrap_alloc@V?$allocator@I@std@@@std@@@std@@QAEXXZ 10021280 f i V8EngineProxy.obj
 0001:000203a0       ?_Insert_n@?$vector@_NV?$allocator@_N@std@@@std@@QAE?AV?$_Vb_iterator@U?$_Wrap_alloc@V?$allocator@I@std@@@std@@@2@V?$_Vb_const_iterator@U?$_Wrap_alloc@V?$allocator@I@std@@@std@@@2@IAB_N@Z 100213a0 f i V8EngineProxy.obj
 0001:000205a0       ?_Insert_x@?$vector@_NV?$allocator@_N@std@@@std@@QAEIV?$_Vb_const_iterator@U?$_Wrap_alloc@V?$allocator@I@std@@@std@@@2@I@Z 100215a0 f i V8EngineProxy.obj
 0001:00020910       ?_Inside@?$vector@HV?$allocator@H@std@@@std@@IBE_NPBH@Z 10021910 f i V8EngineProxy.obj
 0001:00020970       ?_Inside@?$vector@IV?$allocator@_N@std@@@std@@IBE_NPBI@Z 10021970 f i V8EngineProxy.obj
 0001:000209d0       ?_Inside@?$vector@PAUHandleProxy@@V?$allocator@PAUHandleProxy@@@std@@@std@@IBE_NPBQAUHandleProxy@@@Z 100219d0 f i V8EngineProxy.obj
 0001:00020a30       ?_Inside@?$vector@U_StringItem@@V?$allocator@U_StringItem@@@std@@@std@@IBE_NPBU_StringItem@@@Z 10021a30 f i V8EngineProxy.obj
 0001:00020a90       ?_Make_iter@?$vector@IV?$allocator@_N@std@@@std@@QBE?AV?$_Vector_iterator@V?$_Vector_val@U?$_Simple_types@I@std@@@std@@@2@V?$_Vector_const_iterator@V?$_Vector_val@U?$_Simple_types@I@std@@@std@@@2@@Z 10021a90 f i V8EngineProxy.obj
 0001:00020b40       ?_Make_iter@?$vector@_NV?$allocator@_N@std@@@std@@QAE?AV?$_Vb_iterator@U?$_Wrap_alloc@V?$allocator@I@std@@@std@@@2@V?$_Vb_const_iterator@U?$_Wrap_alloc@V?$allocator@I@std@@@std@@@2@@Z 10021b40 f i V8EngineProxy.obj
 0001:00020c80       ?_Mask@?$_Vb_reference@U?$_Wrap_alloc@V?$allocator@I@std@@@std@@@std@@IBEIXZ 10021c80 f i V8EngineProxy.obj
 0001:00020cc0       ?_Mtx_initX@std@@YAHPAPAU_Mtx_internal_imp_t@@H@Z 10021cc0 f i V8EngineProxy.obj
 0001:00020d20       ?_Nw@?$_Vb_val@V?$allocator@_N@std@@@std@@SAII@Z 10021d20 f i V8EngineProxy.obj
 0001:00020d50       ?_Orphan_me@_Iterator_base12@std@@QAEXXZ 10021d50 f i V8EngineProxy.obj
 0001:00020e00       ?_Orphan_range@?$vector@HV?$allocator@H@std@@@std@@IBEXPAH0@Z 10021e00 f i V8EngineProxy.obj
 0001:00020f30       ?_Orphan_range@?$vector@IV?$allocator@_N@std@@@std@@IBEXPAI0@Z 10021f30 f i V8EngineProxy.obj
 0001:00021060       ?_Orphan_range@?$vector@PAUHandleProxy@@V?$allocator@PAUHandleProxy@@@std@@@std@@IBEXPAPAUHandleProxy@@0@Z 10022060 f i V8EngineProxy.obj
 0001:00021190       ?_Orphan_range@?$vector@U_StringItem@@V?$allocator@U_StringItem@@@std@@@std@@IBEXPAU_StringItem@@0@Z 10022190 f i V8EngineProxy.obj
 0001:000212c0       ?_Orphan_range@?$vector@_NV?$allocator@_N@std@@@std@@QBEXII@Z 100222c0 f i V8EngineProxy.obj
 0001:00021410       ?_Pop_back_n@?$vector@IV?$allocator@_N@std@@@std@@QAEXI@Z 10022410 f i V8EngineProxy.obj
 0001:00021490       ?_Reallocate@?$vector@HV?$allocator@H@std@@@std@@IAEXI@Z 10022490 f i V8EngineProxy.obj
 0001:00021610       ?_Reallocate@?$vector@IV?$allocator@_N@std@@@std@@IAEXI@Z 10022610 f i V8EngineProxy.obj
 0001:00021790       ?_Reallocate@?$vector@PAUHandleProxy@@V?$allocator@PAUHandleProxy@@@std@@@std@@IAEXI@Z 10022790 f i V8EngineProxy.obj
 0001:00021910       ?_Reallocate@?$vector@U_StringItem@@V?$allocator@U_StringItem@@@std@@@std@@IAEXI@Z 10022910 f i V8EngineProxy.obj
 0001:00021a90       ?_Reserve@?$vector@HV?$allocator@H@std@@@std@@IAEXI@Z 10022a90 f i V8EngineProxy.obj
 0001:00021b20       ?_Reserve@?$vector@IV?$allocator@_N@std@@@std@@IAEXI@Z 10022b20 f i V8EngineProxy.obj
 0001:00021bb0       ?_Reserve@?$vector@PAUHandleProxy@@V?$allocator@PAUHandleProxy@@@std@@@std@@IAEXI@Z 10022bb0 f i V8EngineProxy.obj
 0001:00021c40       ?_Reserve@?$vector@U_StringItem@@V?$allocator@U_StringItem@@@std@@@std@@IAEXI@Z 10022c40 f i V8EngineProxy.obj
 0001:00021cd0       ?_Tidy@?$vector@HV?$allocator@H@std@@@std@@IAEXXZ 10022cd0 f i V8EngineProxy.obj
 0001:00021d90       ?_Tidy@?$vector@IV?$allocator@_N@std@@@std@@IAEXXZ 10022d90 f i V8EngineProxy.obj
 0001:00021e50       ?_Tidy@?$vector@PAUHandleProxy@@V?$allocator@PAUHandleProxy@@@std@@@std@@IAEXXZ 10022e50 f i V8EngineProxy.obj
 0001:00021f10       ?_Tidy@?$vector@U_StringItem@@V?$allocator@U_StringItem@@@std@@@std@@IAEXXZ 10022f10 f i V8EngineProxy.obj
 0001:00021fe0       ?_Trim@?$vector@_NV?$allocator@_N@std@@@std@@QAEXI@Z 10022fe0 f i V8EngineProxy.obj
 0001:00022200       ?_Ufill@?$vector@HV?$allocator@H@std@@@std@@IAEPAHPAHIPBH@Z 10023200 f i V8EngineProxy.obj
 0001:000222a0       ?_Ufill@?$vector@IV?$allocator@_N@std@@@std@@IAEPAIPAIIPBI@Z 100232a0 f i V8EngineProxy.obj
 0001:00022340       ?_Ufill@?$vector@PAUHandleProxy@@V?$allocator@PAUHandleProxy@@@std@@@std@@IAEPAPAUHandleProxy@@PAPAU3@IPBQAU3@@Z 10023340 f i V8EngineProxy.obj
 0001:000223e0       ?_Ufill@?$vector@U_StringItem@@V?$allocator@U_StringItem@@@std@@@std@@IAEPAU_StringItem@@PAU3@IPBU3@@Z 100233e0 f i V8EngineProxy.obj
 0001:00022480       ?_Unused_capacity@?$vector@HV?$allocator@H@std@@@std@@QBEIXZ 10023480 f i V8EngineProxy.obj
 0001:000224c0       ?_Unused_capacity@?$vector@IV?$allocator@_N@std@@@std@@QBEIXZ 100234c0 f i V8EngineProxy.obj
 0001:00022500       ?_Unused_capacity@?$vector@PAUHandleProxy@@V?$allocator@PAUHandleProxy@@@std@@@std@@QBEIXZ 10023500 f i V8EngineProxy.obj
 0001:00022540       ?_Unused_capacity@?$vector@U_StringItem@@V?$allocator@U_StringItem@@@std@@@std@@QBEIXZ 10023540 f i V8EngineProxy.obj
 0001:00022580       ?_Valid@?$_Vb_iter_base@U?$_Wrap_alloc@V?$allocator@I@std@@@std@@@std@@QBEHI@Z 10023580 f i V8EngineProxy.obj
 0001:00022640       ?_Xlen@?$vector@HV?$allocator@H@std@@@std@@IBEXXZ 10023640 f i V8EngineProxy.obj
 0001:00022690       ?_Xlen@?$vector@IV?$allocator@_N@std@@@std@@IBEXXZ 10023690 f i V8EngineProxy.obj
 0001:000226e0       ?_Xlen@?$vector@PAUHandleProxy@@V?$allocator@PAUHandleProxy@@@std@@@std@@IBEXXZ 100236e0 f i V8EngineProxy.obj
 0001:00022730       ?_Xlen@?$vector@U_StringItem@@V?$allocator@U_StringItem@@@std@@@std@@IBEXXZ 10023730 f i V8EngineProxy.obj
 0001:00022780       ?_Xlen@?$vector@_NV?$allocator@_N@std@@@std@@QBEXXZ 10023780 f i V8EngineProxy.obj
 0001:000227d0       ?_Xran@?$vector@PAUHandleProxy@@V?$allocator@PAUHandleProxy@@@std@@@std@@IBEXXZ 100237d0 f i V8EngineProxy.obj
 0001:00022820       ?allocate@?$_Wrap_alloc@V?$allocator@H@std@@@std@@QAEPAHI@Z 10023820 f i V8EngineProxy.obj
 0001:00022870       ?allocate@?$_Wrap_alloc@V?$allocator@I@std@@@std@@QAEPAII@Z 10023870 f i V8EngineProxy.obj
 0001:000228c0       ?allocate@?$_Wrap_alloc@V?$allocator@PAUHandleProxy@@@std@@@std@@QAEPAPAUHandleProxy@@I@Z 100238c0 f i V8EngineProxy.obj
 0001:00022910       ?allocate@?$_Wrap_alloc@V?$allocator@U_Container_proxy@std@@@std@@@std@@QAEPAU_Container_proxy@2@I@Z 10023910 f i V8EngineProxy.obj
 0001:00022960       ?allocate@?$_Wrap_alloc@V?$allocator@U_StringItem@@@std@@@std@@QAEPAU_StringItem@@I@Z 10023960 f i V8EngineProxy.obj
 0001:000229b0       ?allocate@?$allocator@H@std@@QAEPAHI@Z 100239b0 f i V8EngineProxy.obj
 0001:00022a00       ?allocate@?$allocator@I@std@@QAEPAII@Z 10023a00 f i V8EngineProxy.obj
 0001:00022a50       ?allocate@?$allocator@PAUHandleProxy@@@std@@QAEPAPAUHandleProxy@@I@Z 10023a50 f i V8EngineProxy.obj
 0001:00022aa0       ?allocate@?$allocator@U_Container_proxy@std@@@std@@QAEPAU_Container_proxy@2@I@Z 10023aa0 f i V8EngineProxy.obj
 0001:00022af0       ?allocate@?$allocator@U_StringItem@@@std@@QAEPAU_StringItem@@I@Z 10023af0 f i V8EngineProxy.obj
 0001:00022b40       ?at@?$vector@PAUHandleProxy@@V?$allocator@PAUHandleProxy@@@std@@@std@@QAEAAPAUHandleProxy@@I@Z 10023b40 f i V8EngineProxy.obj
 0001:00022ba0       ?back@?$vector@HV?$allocator@H@std@@@std@@QAEAAHXZ 10023ba0 f i V8EngineProxy.obj
 0001:00022c90       ?begin@?$vector@IV?$allocator@_N@std@@@std@@QAE?AV?$_Vector_iterator@V?$_Vector_val@U?$_Simple_types@I@std@@@std@@@2@XZ 10023c90 f i V8EngineProxy.obj
 0001:00022d30       ?begin@?$vector@_NV?$allocator@_N@std@@@std@@QAE?AV?$_Vb_iterator@U?$_Wrap_alloc@V?$allocator@I@std@@@std@@@2@XZ 10023d30 f i V8EngineProxy.obj
 0001:00022dd0       ?capacity@?$vector@HV?$allocator@H@std@@@std@@QBEIXZ 10023dd0 f i V8EngineProxy.obj
 0001:00022e10       ?capacity@?$vector@IV?$allocator@_N@std@@@std@@QBEIXZ 10023e10 f i V8EngineProxy.obj
 0001:00022e50       ?capacity@?$vector@PAUHandleProxy@@V?$allocator@PAUHandleProxy@@@std@@@std@@QBEIXZ 10023e50 f i V8EngineProxy.obj
 0001:00022e90       ?capacity@?$vector@U_StringItem@@V?$allocator@U_StringItem@@@std@@@std@@QBEIXZ 10023e90 f i V8EngineProxy.obj
 0001:00022ed0       ?capacity@?$vector@_NV?$allocator@_N@std@@@std@@QBEIXZ 10023ed0 f i V8EngineProxy.obj
 0001:00022f20       ?clear@?$vector@HV?$allocator@H@std@@@std@@QAEXXZ 10023f20 f i V8EngineProxy.obj
 0001:00022f90       ?clear@?$vector@IV?$allocator@_N@std@@@std@@QAEXXZ 10023f90 f i V8EngineProxy.obj
 0001:00023000       ?clear@?$vector@PAUHandleProxy@@V?$allocator@PAUHandleProxy@@@std@@@std@@QAEXXZ 10024000 f i V8EngineProxy.obj
 0001:00023070       ?clear@?$vector@U_StringItem@@V?$allocator@U_StringItem@@@std@@@std@@QAEXXZ 10024070 f i V8EngineProxy.obj
 0001:000230e0       ?clear@?$vector@_NV?$allocator@_N@std@@@std@@QAEXXZ 100240e0 f i V8EngineProxy.obj
 0001:00023230       ?construct@?$allocator@H@std@@QAEXPAHABH@Z 10024230 f i V8EngineProxy.obj
 0001:000232b0       ?construct@?$allocator@PAUHandleProxy@@@std@@QAEXPAPAUHandleProxy@@ABQAU3@@Z 100242b0 f i V8EngineProxy.obj
 0001:00023330       ?construct@?$allocator@U_StringItem@@@std@@QAEXPAU_StringItem@@ABU3@@Z 10024330 f i V8EngineProxy.obj
 0001:000233c0       ?deallocate@?$_Wrap_alloc@V?$allocator@H@std@@@std@@QAEXPAHI@Z 100243c0 f i V8EngineProxy.obj
 0001:00023410       ?deallocate@?$_Wrap_alloc@V?$allocator@I@std@@@std@@QAEXPAII@Z 10024410 f i V8EngineProxy.obj
 0001:00023460       ?deallocate@?$_Wrap_alloc@V?$allocator@PAUHandleProxy@@@std@@@std@@QAEXPAPAUHandleProxy@@I@Z 10024460 f i V8EngineProxy.obj
 0001:000234b0       ?deallocate@?$_Wrap_alloc@V?$allocator@U_Container_proxy@std@@@std@@@std@@QAEXPAU_Container_proxy@2@I@Z 100244b0 f i V8EngineProxy.obj
 0001:00023500       ?deallocate@?$_Wrap_alloc@V?$allocator@U_StringItem@@@std@@@std@@QAEXPAU_StringItem@@I@Z 10024500 f i V8EngineProxy.obj
 0001:00023550       ?deallocate@?$allocator@H@std@@QAEXPAHI@Z 10024550 f i V8EngineProxy.obj
 0001:000235a0       ?deallocate@?$allocator@I@std@@QAEXPAII@Z 100245a0 f i V8EngineProxy.obj
 0001:000235f0       ?deallocate@?$allocator@PAUHandleProxy@@@std@@QAEXPAPAUHandleProxy@@I@Z 100245f0 f i V8EngineProxy.obj
 0001:00023640       ?deallocate@?$allocator@U_Container_proxy@std@@@std@@QAEXPAU_Container_proxy@2@I@Z 10024640 f i V8EngineProxy.obj
 0001:00023690       ?deallocate@?$allocator@U_StringItem@@@std@@QAEXPAU_StringItem@@I@Z 10024690 f i V8EngineProxy.obj
 0001:000236e0       ?empty@?$vector@HV?$allocator@H@std@@@std@@QBE_NXZ 100246e0 f i V8EngineProxy.obj
 0001:00023740       ?empty@?$vector@U_StringItem@@V?$allocator@U_StringItem@@@std@@@std@@QBE_NXZ 10024740 f i V8EngineProxy.obj
 0001:000237a0       ?empty@?$vector@_NV?$allocator@_N@std@@@std@@QBE_NXZ 100247a0 f i V8EngineProxy.obj
 0001:00023800       ?end@?$vector@HV?$allocator@H@std@@@std@@QAE?AV?$_Vector_iterator@V?$_Vector_val@U?$_Simple_types@H@std@@@std@@@2@XZ 10024800 f i V8EngineProxy.obj
 0001:000238a0       ?end@?$vector@IV?$allocator@_N@std@@@std@@QAE?AV?$_Vector_iterator@V?$_Vector_val@U?$_Simple_types@I@std@@@std@@@2@XZ 100248a0 f i V8EngineProxy.obj
 0001:00023940       ?end@?$vector@_NV?$allocator@_N@std@@@std@@QAE?AV?$_Vb_iterator@U?$_Wrap_alloc@V?$allocator@I@std@@@std@@@2@XZ 10024940 f i V8EngineProxy.obj
 0001:00023a30       ?erase@?$vector@IV?$allocator@_N@std@@@std@@QAE?AV?$_Vector_iterator@V?$_Vector_val@U?$_Simple_types@I@std@@@std@@@2@V?$_Vector_const_iterator@V?$_Vector_val@U?$_Simple_types@I@std@@@std@@@2@0@Z 10024a30 f i V8EngineProxy.obj
 0001:00023de0       ?erase@?$vector@_NV?$allocator@_N@std@@@std@@QAE?AV?$_Vb_iterator@U?$_Wrap_alloc@V?$allocator@I@std@@@std@@@2@V?$_Vb_const_iterator@U?$_Wrap_alloc@V?$allocator@I@std@@@std@@@2@0@Z 10024de0 f i V8EngineProxy.obj
 0001:000241f0       ?get_allocator@?$vector@IV?$allocator@_N@std@@@std@@QBE?AV?$allocator@_N@2@XZ 100251f0 f i V8EngineProxy.obj
 0001:00024250       ?insert@?$vector@_NV?$allocator@_N@std@@@std@@QAE?AV?$_Vb_iterator@U?$_Wrap_alloc@V?$allocator@I@std@@@std@@@2@V?$_Vb_const_iterator@U?$_Wrap_alloc@V?$allocator@I@std@@@std@@@2@AB_N@Z 10025250 f i V8EngineProxy.obj
 0001:00024330       ?max_size@?$_Wrap_alloc@V?$allocator@H@std@@@std@@QBEIXZ 10025330 f i V8EngineProxy.obj
 0001:00024380       ?max_size@?$_Wrap_alloc@V?$allocator@I@std@@@std@@QBEIXZ 10025380 f i V8EngineProxy.obj
 0001:000243d0       ?max_size@?$_Wrap_alloc@V?$allocator@PAUHandleProxy@@@std@@@std@@QBEIXZ 100253d0 f i V8EngineProxy.obj
 0001:00024420       ?max_size@?$_Wrap_alloc@V?$allocator@U_StringItem@@@std@@@std@@QBEIXZ 10025420 f i V8EngineProxy.obj
 0001:00024470       ?max_size@?$allocator@H@std@@QBEIXZ 10025470 f i V8EngineProxy.obj
 0001:000244a0       ?max_size@?$allocator@I@std@@QBEIXZ 100254a0 f i V8EngineProxy.obj
 0001:000244d0       ?max_size@?$allocator@PAUHandleProxy@@@std@@QBEIXZ 100254d0 f i V8EngineProxy.obj
 0001:00024500       ?max_size@?$allocator@U_StringItem@@@std@@QBEIXZ 10025500 f i V8EngineProxy.obj
 0001:00024530       ?max_size@?$allocator_traits@V?$allocator@H@std@@@std@@SAIABV?$allocator@H@2@@Z 10025530 f i V8EngineProxy.obj
 0001:00024570       ?max_size@?$allocator_traits@V?$allocator@I@std@@@std@@SAIABV?$allocator@I@2@@Z 10025570 f i V8EngineProxy.obj
 0001:000245b0       ?max_size@?$allocator_traits@V?$allocator@PAUHandleProxy@@@std@@@std@@SAIABV?$allocator@PAUHandleProxy@@@2@@Z 100255b0 f i V8EngineProxy.obj
 0001:000245f0       ?max_size@?$allocator_traits@V?$allocator@U_StringItem@@@std@@@std@@SAIABV?$allocator@U_StringItem@@@2@@Z 100255f0 f i V8EngineProxy.obj
 0001:00024630       ?max_size@?$vector@HV?$allocator@H@std@@@std@@QBEIXZ 10025630 f i V8EngineProxy.obj
 0001:00024680       ?max_size@?$vector@IV?$allocator@_N@std@@@std@@QBEIXZ 10025680 f i V8EngineProxy.obj
 0001:000246d0       ?max_size@?$vector@PAUHandleProxy@@V?$allocator@PAUHandleProxy@@@std@@@std@@QBEIXZ 100256d0 f i V8EngineProxy.obj
 0001:00024720       ?max_size@?$vector@U_StringItem@@V?$allocator@U_StringItem@@@std@@@std@@QBEIXZ 10025720 f i V8EngineProxy.obj
 0001:00024770       ?max_size@?$vector@_NV?$allocator@_N@std@@@std@@QBEIXZ 10025770 f i V8EngineProxy.obj
 0001:000247e0       ?pop_back@?$vector@HV?$allocator@H@std@@@std@@QAEXXZ 100257e0 f i V8EngineProxy.obj
 0001:000248a0       ?pop_back@?$vector@U_StringItem@@V?$allocator@U_StringItem@@@std@@@std@@QAEXXZ 100258a0 f i V8EngineProxy.obj
 0001:00024960       ?push_back@?$vector@HV?$allocator@H@std@@@std@@QAEXABH@Z 10025960 f i V8EngineProxy.obj
 0001:00024aa0       ?push_back@?$vector@PAUHandleProxy@@V?$allocator@PAUHandleProxy@@@std@@@std@@QAEXABQAUHandleProxy@@@Z 10025aa0 f i V8EngineProxy.obj
 0001:00024be0       ?push_back@?$vector@U_StringItem@@V?$allocator@U_StringItem@@@std@@@std@@QAEXABU_StringItem@@@Z 10025be0 f i V8EngineProxy.obj
 0001:00024d20       ?push_back@?$vector@_NV?$allocator@_N@std@@@std@@QAEXAB_N@Z 10025d20 f i V8EngineProxy.obj
 0001:00024e20       ?resize@?$vector@IV?$allocator@_N@std@@@std@@QAEXIABI@Z 10025e20 f i V8EngineProxy.obj
 0001:00024fb0       ?resize@?$vector@_NV?$allocator@_N@std@@@std@@QAEXI_N@Z 10025fb0 f i V8EngineProxy.obj
 0001:00025200       ?size@?$vector@HV?$allocator@H@std@@@std@@QBEIXZ 10026200 f i V8EngineProxy.obj
 0001:00025240       ?size@?$vector@IV?$allocator@_N@std@@@std@@QBEIXZ 10026240 f i V8EngineProxy.obj
 0001:00025280       ?size@?$vector@PAUHandleProxy@@V?$allocator@PAUHandleProxy@@@std@@@std@@QBEIXZ 10026280 f i V8EngineProxy.obj
 0001:000252c0       ?size@?$vector@U_StringItem@@V?$allocator@U_StringItem@@@std@@@std@@QBEIXZ 100262c0 f i V8EngineProxy.obj
 0001:00025300       ?size@?$vector@_NV?$allocator@_N@std@@@std@@QBEIXZ 10026300 f i V8EngineProxy.obj
 0001:00025330       ??0HandleValue@@QAE@XZ     10026330 f   ValueProxy.obj
 0001:00025380       ??1HandleValue@@QAE@XZ     10026380 f   ValueProxy.obj
 0001:000253c0       ?Dispose@HandleValue@@QAEXXZ 100263c0 f   ValueProxy.obj
 0001:00025440       ??$?0AAV?$_Tree_iterator@V?$_Tree_val@U?$_Tree_simple_types@U?$pair@QAVIsolate@v8@@V?$queue@PAVTask@v8@@V?$deque@PAVTask@v8@@V?$allocator@PAVTask@v8@@@std@@@std@@@std@@@std@@@std@@@std@@@std@@_NX@?$pair@V?$_Tree_iterator@V?$_Tree_val@U?$_Tree_simple_types@U?$pair@QAVIsolate@v8@@V?$queue@PAVTask@v8@@V?$deque@PAVTask@v8@@V?$allocator@PAVTask@v8@@@std@@@std@@@std@@@std@@@std@@@std@@@std@@_N@std@@QAE@AAV?$_Tree_iterator@V?$_Tree_val@U?$_Tree_simple_types@U?$pair@QAVIsolate@v8@@V?$queue@PAVTask@v8@@V?$deque@PAVTask@v8@@V?$allocator@PAVTask@v8@@@std@@@std@@@std@@@std@@@std@@@std@@@1@$$QA_N@Z 10026440 f i v8_libplatform:default-platform.obj
 0001:000254c0       ??$?0ABQAVIsolate@v8@@$$$V@?$pair@QAVIsolate@v8@@V?$queue@PAVTask@v8@@V?$deque@PAVTask@v8@@V?$allocator@PAVTask@v8@@@std@@@std@@@std@@@std@@QAE@Upiecewise_construct_t@1@V?$tuple@ABQAVIsolate@v8@@@1@V?$tuple@$$$V@1@@Z 100264c0 f i v8_libplatform:default-platform.obj
 0001:00025500       ??$?0ABQAVIsolate@v8@@@?$_Tuple_val@ABQAVIsolate@v8@@@std@@QAE@ABQAVIsolate@v8@@@Z 10026500 f i v8_libplatform:default-platform.obj
 0001:00025530       ??$?0ABQAVIsolate@v8@@PAPAX@?$tuple@ABQAVIsolate@v8@@@std@@QAE@$$QAV01@@Z 10026530 f i v8_libplatform:default-platform.obj
 0001:00025580       ??$?0PAVTask@v8@@@?$allocator@PAPAVTask@v8@@@std@@QAE@ABV?$allocator@PAVTask@v8@@@1@@Z 10026580 f i v8_libplatform:default-platform.obj
 0001:00025590       ??$?0U?$_Tree_node@U?$pair@QAVIsolate@v8@@V?$queue@PAVTask@v8@@V?$deque@PAVTask@v8@@V?$allocator@PAVTask@v8@@@std@@@std@@@std@@@std@@PAX@std@@@?$allocator@U_Container_proxy@std@@@std@@QAE@ABV?$allocator@U?$_Tree_node@U?$pair@QAVIsolate@v8@@V?$queue@PAVTask@v8@@V?$deque@PAVTask@v8@@V?$allocator@PAVTask@v8@@@std@@@std@@@std@@@std@@PAX@std@@@1@@Z 10026590 f i v8_libplatform:default-platform.obj
 0001:000255a0       ??$?0U?$_Wrap_alloc@V?$allocator@PAVTask@v8@@@std@@@std@@@?$_Wrap_alloc@V?$allocator@PAPAVTask@v8@@@std@@@std@@QAE@ABU?$_Wrap_alloc@V?$allocator@PAVTask@v8@@@std@@@1@@Z 100265a0 f i v8_libplatform:default-platform.obj
 0001:000255c0       ??$?0U?$_Wrap_alloc@V?$allocator@U?$_Tree_node@U?$pair@QAVIsolate@v8@@V?$queue@PAVTask@v8@@V?$deque@PAVTask@v8@@V?$allocator@PAVTask@v8@@@std@@@std@@@std@@@std@@PAX@std@@@std@@@std@@@?$_Wrap_alloc@V?$allocator@U_Container_proxy@std@@@std@@@std@@QAE@ABU?$_Wrap_alloc@V?$allocator@U?$_Tree_node@U?$pair@QAVIsolate@v8@@V?$queue@PAVTask@v8@@V?$deque@PAVTask@v8@@V?$allocator@PAVTask@v8@@@std@@@std@@@std@@@std@@PAX@std@@@std@@@1@@Z 100265c0 f i v8_libplatform:default-platform.obj
 0001:000255e0       ??$?0V?$_Tree_iterator@V?$_Tree_val@U?$_Tree_simple_types@U?$pair@QAVIsolate@v8@@V?$queue@PAVTask@v8@@V?$deque@PAVTask@v8@@V?$allocator@PAVTask@v8@@@std@@@std@@@std@@@std@@@std@@@std@@@std@@_NX@?$pair@V?$_Tree_iterator@V?$_Tree_val@U?$_Tree_simple_types@U?$pair@QAVIsolate@v8@@V?$queue@PAVTask@v8@@V?$deque@PAVTask@v8@@V?$allocator@PAVTask@v8@@@std@@@std@@@std@@@std@@@std@@@std@@@std@@_N@std@@QAE@$$QAV?$_Tree_iterator@V?$_Tree_val@U?$_Tree_simple_types@U?$pair@QAVIsolate@v8@@V?$queue@PAVTask@v8@@V?$deque@PAVTask@v8@@V?$allocator@PAVTask@v8@@@std@@@std@@@std@@@std@@@std@@@std@@@1@$$QA_N@Z 100265e0 f i v8_libplatform:default-platform.obj
 0001:00025660       ??$?0V?$tuple@ABQAVIsolate@v8@@@std@@V?$tuple@$$$V@1@$0A@$S@?$pair@QAVIsolate@v8@@V?$queue@PAVTask@v8@@V?$deque@PAVTask@v8@@V?$allocator@PAVTask@v8@@@std@@@std@@@std@@@std@@QAE@AAV?$tuple@ABQAVIsolate@v8@@@1@AAV?$tuple@$$$V@1@U?$_Arg_idx@$0A@@1@U?$_Arg_idx@$S@1@@Z 10026660 f i v8_libplatform:default-platform.obj
 0001:000256a0       ??$?RABHABH@?$less@X@std@@QBE_NABH0@Z 100266a0 f i v8_libplatform:default-platform.obj
 0001:000256d0       ??$_Allocate@D@std@@YAPADIPAD@Z 100266d0 f i v8_libplatform:default-platform.obj
 0001:00025710       ??$_Allocate@PAPAVTask@v8@@@std@@YAPAPAPAVTask@v8@@IPAPAPAV12@@Z 10026710 f i v8_libplatform:default-platform.obj
 0001:00025760       ??$_Allocate@PAVTask@v8@@@std@@YAPAPAVTask@v8@@IPAPAV12@@Z 10026760 f i v8_libplatform:default-platform.obj
 0001:000257b0       ??$_Allocate@PAVWorkerThread@platform@v8@@@std@@YAPAPAVWorkerThread@platform@v8@@IPAPAV123@@Z 100267b0 f i v8_libplatform:default-platform.obj
 0001:00025800       ??$_Allocate@U?$_Tree_node@U?$pair@QAVIsolate@v8@@V?$queue@PAVTask@v8@@V?$deque@PAVTask@v8@@V?$allocator@PAVTask@v8@@@std@@@std@@@std@@@std@@PAX@std@@@std@@YAPAU?$_Tree_node@U?$pair@QAVIsolate@v8@@V?$queue@PAVTask@v8@@V?$deque@PAVTask@v8@@V?$allocator@PAVTask@v8@@@std@@@std@@@std@@@std@@PAX@0@IPAU10@@Z 10026800 f i v8_libplatform:default-platform.obj
 0001:00025840       ??$_Buynode@ABUpiecewise_construct_t@std@@V?$tuple@ABQAVIsolate@v8@@@2@V?$tuple@$$$V@2@@?$_Tree_buy@U?$pair@QAVIsolate@v8@@V?$queue@PAVTask@v8@@V?$deque@PAVTask@v8@@V?$allocator@PAVTask@v8@@@std@@@std@@@std@@@std@@V?$allocator@U?$pair@QAVIsolate@v8@@V?$queue@PAVTask@v8@@V?$deque@PAVTask@v8@@V?$allocator@PAVTask@v8@@@std@@@std@@@std@@@std@@@2@@std@@QAEPAU?$_Tree_node@U?$pair@QAVIsolate@v8@@V?$queue@PAVTask@v8@@V?$deque@PAVTask@v8@@V?$allocator@PAVTask@v8@@@std@@@std@@@std@@@std@@PAX@1@ABUpiecewise_construct_t@1@$$QAV?$tuple@ABQAVIsolate@v8@@@1@$$QAV?$tuple@$$$V@1@@Z 10026840 f i v8_libplatform:default-platform.obj
 0001:00025950       ??$_Buynode_if_nil@AAU?$pair@QAVIsolate@v8@@V?$queue@PAVTask@v8@@V?$deque@PAVTask@v8@@V?$allocator@PAVTask@v8@@@std@@@std@@@std@@@std@@@?$_Tree@V?$_Tmap_traits@PAVIsolate@v8@@V?$queue@PAVTask@v8@@V?$deque@PAVTask@v8@@V?$allocator@PAVTask@v8@@@std@@@std@@@std@@U?$less@PAVIsolate@v8@@@4@V?$allocator@U?$pair@QAVIsolate@v8@@V?$queue@PAVTask@v8@@V?$deque@PAVTask@v8@@V?$allocator@PAVTask@v8@@@std@@@std@@@std@@@std@@@4@$0A@@std@@@std@@IAEPAU?$_Tree_node@U?$pair@QAVIsolate@v8@@V?$queue@PAVTask@v8@@V?$deque@PAVTask@v8@@V?$allocator@PAVTask@v8@@@std@@@std@@@std@@@std@@PAX@1@PAU21@AAU?$pair@QAVIsolate@v8@@V?$queue@PAVTask@v8@@V?$deque@PAVTask@v8@@V?$allocator@PAVTask@v8@@@std@@@std@@@std@@@1@@Z 10026950 f i v8_libplatform:default-platform.obj
 0001:00025960       ??$_Debug_lt@ABHABH@std@@YA_NABH0PB_WI@Z 10026960 f i v8_libplatform:default-platform.obj
 0001:000259a0       ??$_Debug_lt_pred@U?$less@PAVIsolate@v8@@@std@@ABQAVIsolate@v8@@ABQAV34@@std@@YA_NU?$less@PAVIsolate@v8@@@0@ABQAVIsolate@v8@@1PB_WI@Z 100269a0 f i v8_libplatform:default-platform.obj
 0001:00025a20       ??$_Debug_lt_pred@U?$less@X@std@@ABHABH@std@@YA_NU?$less@X@0@ABH1PB_WI@Z 10026a20 f i v8_libplatform:default-platform.obj
 0001:00025aa0       ??$_Debug_pointer@D@std@@YAXPBDPB_WI@Z 10026aa0 f i v8_libplatform:default-platform.obj
 0001:00025ad0       ??$_Debug_pointer@PAPAVTask@v8@@@std@@YAXPAPAPAVTask@v8@@PB_WI@Z 10026ad0 f i v8_libplatform:default-platform.obj
 0001:00025b00       ??$_Debug_pointer@PAVWorkerThread@platform@v8@@@std@@YAXPAPAVWorkerThread@platform@v8@@PB_WI@Z 10026b00 f i v8_libplatform:default-platform.obj
 0001:00025b30       ??$_Debug_range2@PAPAPAVTask@v8@@@std@@YAXPAPAPAVTask@v8@@0PB_WIUrandom_access_iterator_tag@0@@Z 10026b30 f i v8_libplatform:default-platform.obj
 0001:00025b90       ??$_Debug_range2@PAPAVWorkerThread@platform@v8@@@std@@YAXPAPAVWorkerThread@platform@v8@@0PB_WIUrandom_access_iterator_tag@0@@Z 10026b90 f i v8_libplatform:default-platform.obj
 0001:00025bf0       ??$_Debug_range@PAPAPAVTask@v8@@@std@@YAXPAPAPAVTask@v8@@0PB_WI@Z 10026bf0 f i v8_libplatform:default-platform.obj
 0001:00025c30       ??$_Debug_range@PAPAVWorkerThread@platform@v8@@@std@@YAXPAPAVWorkerThread@platform@v8@@0PB_WI@Z 10026c30 f i v8_libplatform:default-platform.obj
 0001:00025c70       ??$_Destroy_range@U?$_Wrap_alloc@V?$allocator@PAPAVTask@v8@@@std@@@std@@@std@@YAXPAPAPAVTask@v8@@0AAU?$_Wrap_alloc@V?$allocator@PAPAVTask@v8@@@std@@@0@@Z 10026c70 f i v8_libplatform:default-platform.obj
 0001:00025cb0       ??$_Destroy_range@U?$_Wrap_alloc@V?$allocator@PAPAVTask@v8@@@std@@@std@@@std@@YAXPAPAPAVTask@v8@@0AAU?$_Wrap_alloc@V?$allocator@PAPAVTask@v8@@@std@@@0@U_Scalar_ptr_iterator_tag@0@@Z 10026cb0 f i v8_libplatform:default-platform.obj
 0001:00025cc0       ??$_Destroy_range@U?$_Wrap_alloc@V?$allocator@PAVWorkerThread@platform@v8@@@std@@@std@@@std@@YAXPAPAVWorkerThread@platform@v8@@0AAU?$_Wrap_alloc@V?$allocator@PAVWorkerThread@platform@v8@@@std@@@0@@Z 10026cc0 f i v8_libplatform:default-platform.obj
 0001:00025d00       ??$_Destroy_range@U?$_Wrap_alloc@V?$allocator@PAVWorkerThread@platform@v8@@@std@@@std@@@std@@YAXPAPAVWorkerThread@platform@v8@@0AAU?$_Wrap_alloc@V?$allocator@PAVWorkerThread@platform@v8@@@std@@@0@U_Scalar_ptr_iterator_tag@0@@Z 10026d00 f i v8_libplatform:default-platform.obj
 0001:00025d10       ??$_Fill_n@PAPAPAVTask@v8@@IPAPAV12@@std@@YAPAPAPAVTask@v8@@PAPAPAV12@IABQAPAV12@@Z 10026d10 f i v8_libplatform:default-platform.obj
 0001:00025d40       ??$_Insert_at@AAU?$pair@QAVIsolate@v8@@V?$queue@PAVTask@v8@@V?$deque@PAVTask@v8@@V?$allocator@PAVTask@v8@@@std@@@std@@@std@@@std@@PAU?$_Tree_node@U?$pair@QAVIsolate@v8@@V?$queue@PAVTask@v8@@V?$deque@PAVTask@v8@@V?$allocator@PAVTask@v8@@@std@@@std@@@std@@@std@@PAX@2@@?$_Tree@V?$_Tmap_traits@PAVIsolate@v8@@V?$queue@PAVTask@v8@@V?$deque@PAVTask@v8@@V?$allocator@PAVTask@v8@@@std@@@std@@@std@@U?$less@PAVIsolate@v8@@@4@V?$allocator@U?$pair@QAVIsolate@v8@@V?$queue@PAVTask@v8@@V?$deque@PAVTask@v8@@V?$allocator@PAVTask@v8@@@std@@@std@@@std@@@std@@@4@$0A@@std@@@std@@IAE?AV?$_Tree_iterator@V?$_Tree_val@U?$_Tree_simple_types@U?$pair@QAVIsolate@v8@@V?$queue@PAVTask@v8@@V?$deque@PAVTask@v8@@V?$allocator@PAVTask@v8@@@std@@@std@@@std@@@std@@@std@@@std@@@1@_NPAU?$_Tree_node@U?$pair@QAVIsolate@v8@@V?$queue@PAVTask@v8@@V?$deque@PAVTask@v8@@V?$allocator@PAVTask@v8@@@std@@@std@@@std@@@std@@PAX@1@AAU?$pair@QAVIsolate@v8@@V?$queue@PAVTask@v8@@V?$deque@PAVTask@v8@@V?$allocator@PAVTask@v8@@@std@@@std@@@std@@@1@1@Z 10026d40 f i v8_libplatform:default-platform.obj
 0001:00026180       ??$_Insert_hint@AAU?$pair@QAVIsolate@v8@@V?$queue@PAVTask@v8@@V?$deque@PAVTask@v8@@V?$allocator@PAVTask@v8@@@std@@@std@@@std@@@std@@PAU?$_Tree_node@U?$pair@QAVIsolate@v8@@V?$queue@PAVTask@v8@@V?$deque@PAVTask@v8@@V?$allocator@PAVTask@v8@@@std@@@std@@@std@@@std@@PAX@2@@?$_Tree@V?$_Tmap_traits@PAVIsolate@v8@@V?$queue@PAVTask@v8@@V?$deque@PAVTask@v8@@V?$allocator@PAVTask@v8@@@std@@@std@@@std@@U?$less@PAVIsolate@v8@@@4@V?$allocator@U?$pair@QAVIsolate@v8@@V?$queue@PAVTask@v8@@V?$deque@PAVTask@v8@@V?$allocator@PAVTask@v8@@@std@@@std@@@std@@@std@@@4@$0A@@std@@@std@@IAE?AV?$_Tree_iterator@V?$_Tree_val@U?$_Tree_simple_types@U?$pair@QAVIsolate@v8@@V?$queue@PAVTask@v8@@V?$deque@PAVTask@v8@@V?$allocator@PAVTask@v8@@@std@@@std@@@std@@@std@@@std@@@std@@@1@V?$_Tree_const_iterator@V?$_Tree_val@U?$_Tree_simple_types@U?$pair@QAVIsolate@v8@@V?$queue@PAVTask@v8@@V?$deque@PAVTask@v8@@V?$allocator@PAVTask@v8@@@std@@@std@@@std@@@std@@@std@@@std@@@1@AAU?$pair@QAVIsolate@v8@@V?$queue@PAVTask@v8@@V?$deque@PAVTask@v8@@V?$allocator@PAVTask@v8@@@std@@@std@@@std@@@1@PAU?$_Tree_node@U?$pair@QAVIsolate@v8@@V?$queue@PAVTask@v8@@V?$deque@PAVTask@v8@@V?$allocator@PAVTask@v8@@@std@@@std@@@std@@@std@@PAX@1@@Z 10027180 f i v8_libplatform:default-platform.obj
 0001:00027260       ??$_Insert_nohint@AAU?$pair@QAVIsolate@v8@@V?$queue@PAVTask@v8@@V?$deque@PAVTask@v8@@V?$allocator@PAVTask@v8@@@std@@@std@@@std@@@std@@PAU?$_Tree_node@U?$pair@QAVIsolate@v8@@V?$queue@PAVTask@v8@@V?$deque@PAVTask@v8@@V?$allocator@PAVTask@v8@@@std@@@std@@@std@@@std@@PAX@2@@?$_Tree@V?$_Tmap_traits@PAVIsolate@v8@@V?$queue@PAVTask@v8@@V?$deque@PAVTask@v8@@V?$allocator@PAVTask@v8@@@std@@@std@@@std@@U?$less@PAVIsolate@v8@@@4@V?$allocator@U?$pair@QAVIsolate@v8@@V?$queue@PAVTask@v8@@V?$deque@PAVTask@v8@@V?$allocator@PAVTask@v8@@@std@@@std@@@std@@@std@@@4@$0A@@std@@@std@@IAE?AU?$pair@V?$_Tree_iterator@V?$_Tree_val@U?$_Tree_simple_types@U?$pair@QAVIsolate@v8@@V?$queue@PAVTask@v8@@V?$deque@PAVTask@v8@@V?$allocator@PAVTask@v8@@@std@@@std@@@std@@@std@@@std@@@std@@@std@@_N@1@_NAAU?$pair@QAVIsolate@v8@@V?$queue@PAVTask@v8@@V?$deque@PAVTask@v8@@V?$allocator@PAVTask@v8@@@std@@@std@@@std@@@1@PAU?$_Tree_node@U?$pair@QAVIsolate@v8@@V?$queue@PAVTask@v8@@V?$deque@PAVTask@v8@@V?$allocator@PAVTask@v8@@@std@@@std@@@std@@@std@@PAX@1@@Z 10028260 f i v8_libplatform:default-platform.obj
 0001:00027720       ??$_Iter_cat@PAPAPAVTask@v8@@@std@@YA?AUrandom_access_iterator_tag@0@ABQAPAPAVTask@v8@@@Z 10028720 f i v8_libplatform:default-platform.obj
 0001:00027740       ??$_Iter_cat@PAPAVWorkerThread@platform@v8@@@std@@YA?AUrandom_access_iterator_tag@0@ABQAPAVWorkerThread@platform@v8@@@Z 10028740 f i v8_libplatform:default-platform.obj
 0001:00027760       ??$_Kfn@QAVIsolate@v8@@V?$queue@PAVTask@v8@@V?$deque@PAVTask@v8@@V?$allocator@PAVTask@v8@@@std@@@std@@@std@@@?$_Tmap_traits@PAVIsolate@v8@@V?$queue@PAVTask@v8@@V?$deque@PAVTask@v8@@V?$allocator@PAVTask@v8@@@std@@@std@@@std@@U?$less@PAVIsolate@v8@@@4@V?$allocator@U?$pair@QAVIsolate@v8@@V?$queue@PAVTask@v8@@V?$deque@PAVTask@v8@@V?$allocator@PAVTask@v8@@@std@@@std@@@std@@@std@@@4@$0A@@std@@SAABQAVIsolate@v8@@ABU?$pair@QAVIsolate@v8@@V?$queue@PAVTask@v8@@V?$deque@PAVTask@v8@@V?$allocator@PAVTask@v8@@@std@@@std@@@std@@@1@@Z 10028760 f i v8_libplatform:default-platform.obj
 0001:00027770       ??$_Move@AAD@std@@YA$$QADAAD@Z 10028770 f i v8_libplatform:default-platform.obj
 0001:00027780       ??$_Ptr_cat@PAPAVTask@v8@@PAPAV12@@std@@YA?AU_Scalar_ptr_iterator_tag@0@PAPAPAVTask@v8@@0@Z 10028780 f i v8_libplatform:default-platform.obj
 0001:00027790       ??$_Ptr_cat@PAVWorkerThread@platform@v8@@PAV123@@std@@YA?AU_Scalar_ptr_iterator_tag@0@PAPAVWorkerThread@platform@v8@@0@Z 10028790 f i v8_libplatform:default-platform.obj
 0001:000277a0       ??$_Rechecked@PAPAPAVTask@v8@@PAPAPAV12@@std@@YAAAPAPAPAVTask@v8@@AAPAPAPAV12@PAPAPAV12@@Z 100287a0 f i v8_libplatform:default-platform.obj
 0001:000277b0       ??$_Rechecked@PAPAVWorkerThread@platform@v8@@PAPAV123@@std@@YAAAPAPAVWorkerThread@platform@v8@@AAPAPAV123@PAPAV123@@Z 100287b0 f i v8_libplatform:default-platform.obj
 0001:000277c0       ??$_Umove@PAPAVWorkerThread@platform@v8@@@?$vector@PAVWorkerThread@platform@v8@@V?$allocator@PAVWorkerThread@platform@v8@@@std@@@std@@IAEPAPAVWorkerThread@platform@v8@@PAPAV234@00@Z 100287c0 f i v8_libplatform:default-platform.obj
 0001:00027800       ??$_Unchecked@PAPAPAVTask@v8@@@std@@YAPAPAPAVTask@v8@@PAPAPAV12@@Z 10028800 f i v8_libplatform:default-platform.obj
 0001:00027810       ??$_Unchecked@PAPAVWorkerThread@platform@v8@@@std@@YAPAPAVWorkerThread@platform@v8@@PAPAV123@@Z 10028810 f i v8_libplatform:default-platform.obj
 0001:00027820       ??$_Uninit_copy@PAPAPAVTask@v8@@PAPAPAV12@U?$_Wrap_alloc@V?$allocator@PAPAVTask@v8@@@std@@@std@@@std@@YAPAPAPAVTask@v8@@PAPAPAV12@00AAU?$_Wrap_alloc@V?$allocator@PAPAVTask@v8@@@std@@@0@@Z 10028820 f i v8_libplatform:default-platform.obj
 0001:00027860       ??$_Uninit_copy@PAPAVTask@v8@@PAPAV12@@std@@YAPAPAPAVTask@v8@@PAPAPAV12@00AAU?$_Wrap_alloc@V?$allocator@PAPAVTask@v8@@@std@@@0@U_Scalar_ptr_iterator_tag@0@@Z 10028860 f i v8_libplatform:default-platform.obj
 0001:000278d0       ??$_Uninit_def_fill_n@PAPAVTask@v8@@IPAPAV12@@std@@YAXPAPAPAVTask@v8@@IAAU?$_Wrap_alloc@V?$allocator@PAPAVTask@v8@@@std@@@0@0U_Scalar_ptr_iterator_tag@0@@Z 100288d0 f i v8_libplatform:default-platform.obj
 0001:00027900       ??$_Uninit_move@PAPAVWorkerThread@platform@v8@@PAPAV123@U?$_Wrap_alloc@V?$allocator@PAVWorkerThread@platform@v8@@@std@@@std@@@std@@YAPAPAVWorkerThread@platform@v8@@PAPAV123@00AAU?$_Wrap_alloc@V?$allocator@PAVWorkerThread@platform@v8@@@std@@@0@@Z 10028900 f i v8_libplatform:default-platform.obj
 0001:00027950       ??$_Uninit_move@PAVWorkerThread@platform@v8@@PAV123@PAV123@@std@@YAPAPAVWorkerThread@platform@v8@@PAPAV123@00AAU?$_Wrap_alloc@V?$allocator@PAVWorkerThread@platform@v8@@@std@@@0@0U_Scalar_ptr_iterator_tag@0@@Z 10028950 f i v8_libplatform:default-platform.obj
 0001:000279c0       ??$_Uninitialized_copy@PAPAPAVTask@v8@@PAPAPAV12@U?$_Wrap_alloc@V?$allocator@PAPAVTask@v8@@@std@@@std@@@std@@YAPAPAPAVTask@v8@@PAPAPAV12@00AAU?$_Wrap_alloc@V?$allocator@PAPAVTask@v8@@@std@@@0@@Z 100289c0 f i v8_libplatform:default-platform.obj
 0001:00027a10       ??$_Uninitialized_default_fill_n@PAPAPAVTask@v8@@IU?$_Wrap_alloc@V?$allocator@PAPAVTask@v8@@@std@@@std@@@std@@YAXPAPAPAVTask@v8@@IAAU?$_Wrap_alloc@V?$allocator@PAPAVTask@v8@@@std@@@0@@Z 10028a10 f i v8_libplatform:default-platform.obj
 0001:00027a60       ??$_Uninitialized_move@PAPAVWorkerThread@platform@v8@@PAPAV123@U?$_Wrap_alloc@V?$allocator@PAVWorkerThread@platform@v8@@@std@@@std@@@std@@YAPAPAVWorkerThread@platform@v8@@PAPAV123@00AAU?$_Wrap_alloc@V?$allocator@PAVWorkerThread@platform@v8@@@std@@@0@@Z 10028a60 f i v8_libplatform:default-platform.obj
 0001:00027ab0       ??$_Val_type@PAPAPAVTask@v8@@@std@@YAPAPAPAVTask@v8@@PAPAPAV12@@Z 10028ab0 f i v8_libplatform:default-platform.obj
 0001:00027ac0       ??$_Val_type@PAPAVWorkerThread@platform@v8@@@std@@YAPAPAVWorkerThread@platform@v8@@PAPAV123@@Z 10028ac0 f i v8_libplatform:default-platform.obj
 0001:00027ad0       ??$addressof@D@std@@YAPADAAD@Z 10028ad0 f i v8_libplatform:default-platform.obj
 0001:00027ae0       ??$addressof@PAU?$_Tree_node@U?$pair@QAVIsolate@v8@@V?$queue@PAVTask@v8@@V?$deque@PAVTask@v8@@V?$allocator@PAVTask@v8@@@std@@@std@@@std@@@std@@PAX@std@@@std@@YAPAPAU?$_Tree_node@U?$pair@QAVIsolate@v8@@V?$queue@PAVTask@v8@@V?$deque@PAVTask@v8@@V?$allocator@PAVTask@v8@@@std@@@std@@@std@@@std@@PAX@0@AAPAU10@@Z 10028ae0 f i v8_libplatform:default-platform.obj
 0001:00027af0       ??$addressof@PAVWorkerThread@platform@v8@@@std@@YAPAPAVWorkerThread@platform@v8@@AAPAV123@@Z 10028af0 f i v8_libplatform:default-platform.obj
 0001:00027b00       ??$addressof@U?$pair@QAVIsolate@v8@@V?$queue@PAVTask@v8@@V?$deque@PAVTask@v8@@V?$allocator@PAVTask@v8@@@std@@@std@@@std@@@std@@@std@@YAPAU?$pair@QAVIsolate@v8@@V?$queue@PAVTask@v8@@V?$deque@PAVTask@v8@@V?$allocator@PAVTask@v8@@@std@@@std@@@std@@@0@AAU10@@Z 10028b00 f i v8_libplatform:default-platform.obj
 0001:00027b10       ??$construct@PADAAPAD@?$_Wrap_alloc@V?$allocator@D@std@@@std@@QAEXPAPADAAPAD@Z 10028b10 f i v8_libplatform:default-platform.obj
 0001:00027b40       ??$construct@PADAAPAD@?$allocator@D@std@@QAEXPAPADAAPAD@Z 10028b40 f i v8_libplatform:default-platform.obj
 0001:00027bd0       ??$construct@PADAAPAD@?$allocator_traits@V?$allocator@D@std@@@std@@SAXAAV?$allocator@D@1@PAPADAAPAD@Z 10028bd0 f i v8_libplatform:default-platform.obj
 0001:00027bf0       ??$construct@PAU?$_Tree_node@U?$pair@QAVIsolate@v8@@V?$queue@PAVTask@v8@@V?$deque@PAVTask@v8@@V?$allocator@PAVTask@v8@@@std@@@std@@@std@@@std@@PAX@std@@AAPAU12@@?$_Wrap_alloc@V?$allocator@U?$_Tree_node@U?$pair@QAVIsolate@v8@@V?$queue@PAVTask@v8@@V?$deque@PAVTask@v8@@V?$allocator@PAVTask@v8@@@std@@@std@@@std@@@std@@PAX@std@@@std@@@std@@QAEXPAPAU?$_Tree_node@U?$pair@QAVIsolate@v8@@V?$queue@PAVTask@v8@@V?$deque@PAVTask@v8@@V?$allocator@PAVTask@v8@@@std@@@std@@@std@@@std@@PAX@1@AAPAU21@@Z 10028bf0 f i v8_libplatform:default-platform.obj
 0001:00027c20       ??$construct@PAU?$_Tree_node@U?$pair@QAVIsolate@v8@@V?$queue@PAVTask@v8@@V?$deque@PAVTask@v8@@V?$allocator@PAVTask@v8@@@std@@@std@@@std@@@std@@PAX@std@@AAPAU12@@?$allocator@U?$_Tree_node@U?$pair@QAVIsolate@v8@@V?$queue@PAVTask@v8@@V?$deque@PAVTask@v8@@V?$allocator@PAVTask@v8@@@std@@@std@@@std@@@std@@PAX@std@@@std@@QAEXPAPAU?$_Tree_node@U?$pair@QAVIsolate@v8@@V?$queue@PAVTask@v8@@V?$deque@PAVTask@v8@@V?$allocator@PAVTask@v8@@@std@@@std@@@std@@@std@@PAX@1@AAPAU21@@Z 10028c20 f i v8_libplatform:default-platform.obj
 0001:00027cb0       ??$construct@PAU?$_Tree_node@U?$pair@QAVIsolate@v8@@V?$queue@PAVTask@v8@@V?$deque@PAVTask@v8@@V?$allocator@PAVTask@v8@@@std@@@std@@@std@@@std@@PAX@std@@AAPAU12@@?$allocator_traits@V?$allocator@U?$_Tree_node@U?$pair@QAVIsolate@v8@@V?$queue@PAVTask@v8@@V?$deque@PAVTask@v8@@V?$allocator@PAVTask@v8@@@std@@@std@@@std@@@std@@PAX@std@@@std@@@std@@SAXAAV?$allocator@U?$_Tree_node@U?$pair@QAVIsolate@v8@@V?$queue@PAVTask@v8@@V?$deque@PAVTask@v8@@V?$allocator@PAVTask@v8@@@std@@@std@@@std@@@std@@PAX@std@@@1@PAPAU?$_Tree_node@U?$pair@QAVIsolate@v8@@V?$queue@PAVTask@v8@@V?$deque@PAVTask@v8@@V?$allocator@PAVTask@v8@@@std@@@std@@@std@@@std@@PAX@1@AAPAU31@@Z 10028cb0 f i v8_libplatform:default-platform.obj
 0001:00027cd0       ??$construct@PAVTask@v8@@ABQAV12@@?$_Wrap_alloc@V?$allocator@PAVTask@v8@@@std@@@std@@QAEXPAPAVTask@v8@@ABQAV23@@Z 10028cd0 f i v8_libplatform:default-platform.obj
 0001:00027d00       ??$construct@PAVTask@v8@@ABQAV12@@?$allocator_traits@V?$allocator@PAVTask@v8@@@std@@@std@@SAXAAV?$allocator@PAVTask@v8@@@1@PAPAVTask@v8@@ABQAV34@@Z 10028d00 f i v8_libplatform:default-platform.obj
 0001:00027d20       ??$construct@PAVWorkerThread@platform@v8@@PAV123@@?$_Wrap_alloc@V?$allocator@PAVWorkerThread@platform@v8@@@std@@@std@@QAEXPAPAVWorkerThread@platform@v8@@$$QAPAV234@@Z 10028d20 f i v8_libplatform:default-platform.obj
 0001:00027d50       ??$construct@PAVWorkerThread@platform@v8@@PAV123@@?$allocator@PAVWorkerThread@platform@v8@@@std@@QAEXPAPAVWorkerThread@platform@v8@@$$QAPAV234@@Z 10028d50 f i v8_libplatform:default-platform.obj
 0001:00027de0       ??$construct@PAVWorkerThread@platform@v8@@PAV123@@?$allocator_traits@V?$allocator@PAVWorkerThread@platform@v8@@@std@@@std@@SAXAAV?$allocator@PAVWorkerThread@platform@v8@@@1@PAPAVWorkerThread@platform@v8@@$$QAPAV345@@Z 10028de0 f i v8_libplatform:default-platform.obj
 0001:00027e00       ??$construct@U?$pair@QAVIsolate@v8@@V?$queue@PAVTask@v8@@V?$deque@PAVTask@v8@@V?$allocator@PAVTask@v8@@@std@@@std@@@std@@@std@@ABUpiecewise_construct_t@2@V?$tuple@ABQAVIsolate@v8@@@2@V?$tuple@$$$V@2@@?$_Wrap_alloc@V?$allocator@U?$_Tree_node@U?$pair@QAVIsolate@v8@@V?$queue@PAVTask@v8@@V?$deque@PAVTask@v8@@V?$allocator@PAVTask@v8@@@std@@@std@@@std@@@std@@PAX@std@@@std@@@std@@QAEXPAU?$pair@QAVIsolate@v8@@V?$queue@PAVTask@v8@@V?$deque@PAVTask@v8@@V?$allocator@PAVTask@v8@@@std@@@std@@@std@@@1@ABUpiecewise_construct_t@1@$$QAV?$tuple@ABQAVIsolate@v8@@@1@$$QAV?$tuple@$$$V@1@@Z 10028e00 f i v8_libplatform:default-platform.obj
 0001:00027e50       ??$construct@U?$pair@QAVIsolate@v8@@V?$queue@PAVTask@v8@@V?$deque@PAVTask@v8@@V?$allocator@PAVTask@v8@@@std@@@std@@@std@@@std@@ABUpiecewise_construct_t@2@V?$tuple@ABQAVIsolate@v8@@@2@V?$tuple@$$$V@2@@?$allocator@U?$_Tree_node@U?$pair@QAVIsolate@v8@@V?$queue@PAVTask@v8@@V?$deque@PAVTask@v8@@V?$allocator@PAVTask@v8@@@std@@@std@@@std@@@std@@PAX@std@@@std@@QAEXPAU?$pair@QAVIsolate@v8@@V?$queue@PAVTask@v8@@V?$deque@PAVTask@v8@@V?$allocator@PAVTask@v8@@@std@@@std@@@std@@@1@ABUpiecewise_construct_t@1@$$QAV?$tuple@ABQAVIsolate@v8@@@1@$$QAV?$tuple@$$$V@1@@Z 10028e50 f i v8_libplatform:default-platform.obj
 0001:00027f10       ??$construct@U?$pair@QAVIsolate@v8@@V?$queue@PAVTask@v8@@V?$deque@PAVTask@v8@@V?$allocator@PAVTask@v8@@@std@@@std@@@std@@@std@@ABUpiecewise_construct_t@2@V?$tuple@ABQAVIsolate@v8@@@2@V?$tuple@$$$V@2@@?$allocator_traits@V?$allocator@U?$_Tree_node@U?$pair@QAVIsolate@v8@@V?$queue@PAVTask@v8@@V?$deque@PAVTask@v8@@V?$allocator@PAVTask@v8@@@std@@@std@@@std@@@std@@PAX@std@@@std@@@std@@SAXAAV?$allocator@U?$_Tree_node@U?$pair@QAVIsolate@v8@@V?$queue@PAVTask@v8@@V?$deque@PAVTask@v8@@V?$allocator@PAVTask@v8@@@std@@@std@@@std@@@std@@PAX@std@@@1@PAU?$pair@QAVIsolate@v8@@V?$queue@PAVTask@v8@@V?$deque@PAVTask@v8@@V?$allocator@PAVTask@v8@@@std@@@std@@@std@@@1@ABUpiecewise_construct_t@1@$$QAV?$tuple@ABQAVIsolate@v8@@@1@$$QAV?$tuple@$$$V@1@@Z 10028f10 f i v8_libplatform:default-platform.obj
 0001:00027f50       ??$destroy@PAD@?$_Wrap_alloc@V?$allocator@D@std@@@std@@QAEXPAPAD@Z 10028f50 f i v8_libplatform:default-platform.obj
 0001:00027f70       ??$destroy@PAD@?$allocator@D@std@@QAEXPAPAD@Z 10028f70 f i v8_libplatform:default-platform.obj
 0001:00027f80       ??$destroy@PAD@?$allocator_traits@V?$allocator@D@std@@@std@@SAXAAV?$allocator@D@1@PAPAD@Z 10028f80 f i v8_libplatform:default-platform.obj
 0001:00027fa0       ??$destroy@PAPAVTask@v8@@@?$_Wrap_alloc@V?$allocator@PAVTask@v8@@@std@@@std@@QAEXPAPAPAVTask@v8@@@Z 10028fa0 f i v8_libplatform:default-platform.obj
 0001:00027fc0       ??$destroy@PAPAVTask@v8@@@?$allocator@PAVTask@v8@@@std@@QAEXPAPAPAVTask@v8@@@Z 10028fc0 f i v8_libplatform:default-platform.obj
 0001:00027fd0       ??$destroy@PAPAVTask@v8@@@?$allocator_traits@V?$allocator@PAVTask@v8@@@std@@@std@@SAXAAV?$allocator@PAVTask@v8@@@1@PAPAPAVTask@v8@@@Z 10028fd0 f i v8_libplatform:default-platform.obj
 0001:00027ff0       ??$destroy@PAU?$_Tree_node@U?$pair@QAVIsolate@v8@@V?$queue@PAVTask@v8@@V?$deque@PAVTask@v8@@V?$allocator@PAVTask@v8@@@std@@@std@@@std@@@std@@PAX@std@@@?$_Wrap_alloc@V?$allocator@U?$_Tree_node@U?$pair@QAVIsolate@v8@@V?$queue@PAVTask@v8@@V?$deque@PAVTask@v8@@V?$allocator@PAVTask@v8@@@std@@@std@@@std@@@std@@PAX@std@@@std@@@std@@QAEXPAPAU?$_Tree_node@U?$pair@QAVIsolate@v8@@V?$queue@PAVTask@v8@@V?$deque@PAVTask@v8@@V?$allocator@PAVTask@v8@@@std@@@std@@@std@@@std@@PAX@1@@Z 10028ff0 f i v8_libplatform:default-platform.obj
 0001:00028010       ??$destroy@PAU?$_Tree_node@U?$pair@QAVIsolate@v8@@V?$queue@PAVTask@v8@@V?$deque@PAVTask@v8@@V?$allocator@PAVTask@v8@@@std@@@std@@@std@@@std@@PAX@std@@@?$allocator@U?$_Tree_node@U?$pair@QAVIsolate@v8@@V?$queue@PAVTask@v8@@V?$deque@PAVTask@v8@@V?$allocator@PAVTask@v8@@@std@@@std@@@std@@@std@@PAX@std@@@std@@QAEXPAPAU?$_Tree_node@U?$pair@QAVIsolate@v8@@V?$queue@PAVTask@v8@@V?$deque@PAVTask@v8@@V?$allocator@PAVTask@v8@@@std@@@std@@@std@@@std@@PAX@1@@Z 10029010 f i v8_libplatform:default-platform.obj
 0001:00028020       ??$destroy@PAU?$_Tree_node@U?$pair@QAVIsolate@v8@@V?$queue@PAVTask@v8@@V?$deque@PAVTask@v8@@V?$allocator@PAVTask@v8@@@std@@@std@@@std@@@std@@PAX@std@@@?$allocator_traits@V?$allocator@U?$_Tree_node@U?$pair@QAVIsolate@v8@@V?$queue@PAVTask@v8@@V?$deque@PAVTask@v8@@V?$allocator@PAVTask@v8@@@std@@@std@@@std@@@std@@PAX@std@@@std@@@std@@SAXAAV?$allocator@U?$_Tree_node@U?$pair@QAVIsolate@v8@@V?$queue@PAVTask@v8@@V?$deque@PAVTask@v8@@V?$allocator@PAVTask@v8@@@std@@@std@@@std@@@std@@PAX@std@@@1@PAPAU?$_Tree_node@U?$pair@QAVIsolate@v8@@V?$queue@PAVTask@v8@@V?$deque@PAVTask@v8@@V?$allocator@PAVTask@v8@@@std@@@std@@@std@@@std@@PAX@1@@Z 10029020 f i v8_libplatform:default-platform.obj
 0001:00028040       ??$destroy@PAVTask@v8@@@?$_Wrap_alloc@V?$allocator@PAVTask@v8@@@std@@@std@@QAEXPAPAVTask@v8@@@Z 10029040 f i v8_libplatform:default-platform.obj
 0001:00028060       ??$destroy@PAVTask@v8@@@?$allocator@PAVTask@v8@@@std@@QAEXPAPAVTask@v8@@@Z 10029060 f i v8_libplatform:default-platform.obj
 0001:00028070       ??$destroy@PAVTask@v8@@@?$allocator_traits@V?$allocator@PAVTask@v8@@@std@@@std@@SAXAAV?$allocator@PAVTask@v8@@@1@PAPAVTask@v8@@@Z 10029070 f i v8_libplatform:default-platform.obj
 0001:00028090       ??$destroy@U?$pair@QAVIsolate@v8@@V?$queue@PAVTask@v8@@V?$deque@PAVTask@v8@@V?$allocator@PAVTask@v8@@@std@@@std@@@std@@@std@@@?$_Wrap_alloc@V?$allocator@U?$_Tree_node@U?$pair@QAVIsolate@v8@@V?$queue@PAVTask@v8@@V?$deque@PAVTask@v8@@V?$allocator@PAVTask@v8@@@std@@@std@@@std@@@std@@PAX@std@@@std@@@std@@QAEXPAU?$pair@QAVIsolate@v8@@V?$queue@PAVTask@v8@@V?$deque@PAVTask@v8@@V?$allocator@PAVTask@v8@@@std@@@std@@@std@@@1@@Z 10029090 f i v8_libplatform:default-platform.obj
 0001:000280b0       ??$destroy@U?$pair@QAVIsolate@v8@@V?$queue@PAVTask@v8@@V?$deque@PAVTask@v8@@V?$allocator@PAVTask@v8@@@std@@@std@@@std@@@std@@@?$allocator@U?$_Tree_node@U?$pair@QAVIsolate@v8@@V?$queue@PAVTask@v8@@V?$deque@PAVTask@v8@@V?$allocator@PAVTask@v8@@@std@@@std@@@std@@@std@@PAX@std@@@std@@QAEXPAU?$pair@QAVIsolate@v8@@V?$queue@PAVTask@v8@@V?$deque@PAVTask@v8@@V?$allocator@PAVTask@v8@@@std@@@std@@@std@@@1@@Z 100290b0 f i v8_libplatform:default-platform.obj
 0001:000280d0       ??$destroy@U?$pair@QAVIsolate@v8@@V?$queue@PAVTask@v8@@V?$deque@PAVTask@v8@@V?$allocator@PAVTask@v8@@@std@@@std@@@std@@@std@@@?$allocator_traits@V?$allocator@U?$_Tree_node@U?$pair@QAVIsolate@v8@@V?$queue@PAVTask@v8@@V?$deque@PAVTask@v8@@V?$allocator@PAVTask@v8@@@std@@@std@@@std@@@std@@PAX@std@@@std@@@std@@SAXAAV?$allocator@U?$_Tree_node@U?$pair@QAVIsolate@v8@@V?$queue@PAVTask@v8@@V?$deque@PAVTask@v8@@V?$allocator@PAVTask@v8@@@std@@@std@@@std@@@std@@PAX@std@@@1@PAU?$pair@QAVIsolate@v8@@V?$queue@PAVTask@v8@@V?$deque@PAVTask@v8@@V?$allocator@PAVTask@v8@@@std@@@std@@@std@@@1@@Z 100290d0 f i v8_libplatform:default-platform.obj
 0001:000280f0       ??$emplace_hint@ABUpiecewise_construct_t@std@@V?$tuple@ABQAVIsolate@v8@@@2@V?$tuple@$$$V@2@@?$_Tree@V?$_Tmap_traits@PAVIsolate@v8@@V?$queue@PAVTask@v8@@V?$deque@PAVTask@v8@@V?$allocator@PAVTask@v8@@@std@@@std@@@std@@U?$less@PAVIsolate@v8@@@4@V?$allocator@U?$pair@QAVIsolate@v8@@V?$queue@PAVTask@v8@@V?$deque@PAVTask@v8@@V?$allocator@PAVTask@v8@@@std@@@std@@@std@@@std@@@4@$0A@@std@@@std@@QAE?AV?$_Tree_iterator@V?$_Tree_val@U?$_Tree_simple_types@U?$pair@QAVIsolate@v8@@V?$queue@PAVTask@v8@@V?$deque@PAVTask@v8@@V?$allocator@PAVTask@v8@@@std@@@std@@@std@@@std@@@std@@@std@@@1@V?$_Tree_const_iterator@V?$_Tree_val@U?$_Tree_simple_types@U?$pair@QAVIsolate@v8@@V?$queue@PAVTask@v8@@V?$deque@PAVTask@v8@@V?$allocator@PAVTask@v8@@@std@@@std@@@std@@@std@@@std@@@std@@@1@ABUpiecewise_construct_t@1@$$QAV?$tuple@ABQAVIsolate@v8@@@1@$$QAV?$tuple@$$$V@1@@Z 100290f0 f i v8_libplatform:default-platform.obj
 0001:000281c0       ??$forward@AAPAD@std@@YAAAPADAAPAD@Z 100291c0 f i v8_libplatform:default-platform.obj
 0001:000281d0       ??$forward@AAPAU?$_Tree_node@U?$pair@QAVIsolate@v8@@V?$queue@PAVTask@v8@@V?$deque@PAVTask@v8@@V?$allocator@PAVTask@v8@@@std@@@std@@@std@@@std@@PAX@std@@@std@@YAAAPAU?$_Tree_node@U?$pair@QAVIsolate@v8@@V?$queue@PAVTask@v8@@V?$deque@PAVTask@v8@@V?$allocator@PAVTask@v8@@@std@@@std@@@std@@@std@@PAX@0@AAPAU10@@Z 100291d0 f i v8_libplatform:default-platform.obj
 0001:000281e0       ??$forward@AAU?$pair@QAVIsolate@v8@@V?$queue@PAVTask@v8@@V?$deque@PAVTask@v8@@V?$allocator@PAVTask@v8@@@std@@@std@@@std@@@std@@@std@@YAAAU?$pair@QAVIsolate@v8@@V?$queue@PAVTask@v8@@V?$deque@PAVTask@v8@@V?$allocator@PAVTask@v8@@@std@@@std@@@std@@@0@AAU10@@Z 100291e0 f i v8_libplatform:default-platform.obj
 0001:000281f0       ??$forward@AAV?$_Tree_iterator@V?$_Tree_val@U?$_Tree_simple_types@U?$pair@QAVIsolate@v8@@V?$queue@PAVTask@v8@@V?$deque@PAVTask@v8@@V?$allocator@PAVTask@v8@@@std@@@std@@@std@@@std@@@std@@@std@@@std@@@std@@YAAAV?$_Tree_iterator@V?$_Tree_val@U?$_Tree_simple_types@U?$pair@QAVIsolate@v8@@V?$queue@PAVTask@v8@@V?$deque@PAVTask@v8@@V?$allocator@PAVTask@v8@@@std@@@std@@@std@@@std@@@std@@@std@@@0@AAV10@@Z 100291f0 f i v8_libplatform:default-platform.obj
 0001:00028200       ??$forward@ABQAVIsolate@v8@@@std@@YAABQAVIsolate@v8@@ABQAV12@@Z 10029200 f i v8_libplatform:default-platform.obj
 0001:00028210       ??$forward@ABQAVTask@v8@@@std@@YAABQAVTask@v8@@ABQAV12@@Z 10029210 f i v8_libplatform:default-platform.obj
 0001:00028220       ??$forward@ABUpiecewise_construct_t@std@@@std@@YAABUpiecewise_construct_t@0@ABU10@@Z 10029220 f i v8_libplatform:default-platform.obj
 0001:00028230       ??$forward@PAVWorkerThread@platform@v8@@@std@@YA$$QAPAVWorkerThread@platform@v8@@AAPAV123@@Z 10029230 f i v8_libplatform:default-platform.obj
 0001:00028240       ??$forward@V?$_Tree_iterator@V?$_Tree_val@U?$_Tree_simple_types@U?$pair@QAVIsolate@v8@@V?$queue@PAVTask@v8@@V?$deque@PAVTask@v8@@V?$allocator@PAVTask@v8@@@std@@@std@@@std@@@std@@@std@@@std@@@std@@@std@@YA$$QAV?$_Tree_iterator@V?$_Tree_val@U?$_Tree_simple_types@U?$pair@QAVIsolate@v8@@V?$queue@PAVTask@v8@@V?$deque@PAVTask@v8@@V?$allocator@PAVTask@v8@@@std@@@std@@@std@@@std@@@std@@@std@@@0@AAV10@@Z 10029240 f i v8_libplatform:default-platform.obj
 0001:00028250       ??$forward@V?$tuple@$$$V@std@@@std@@YA$$QAV?$tuple@$$$V@0@AAV10@@Z 10029250 f i v8_libplatform:default-platform.obj
 0001:00028260       ??$forward@V?$tuple@ABQAVIsolate@v8@@@std@@@std@@YA$$QAV?$tuple@ABQAVIsolate@v8@@@0@AAV10@@Z 10029260 f i v8_libplatform:default-platform.obj
 0001:00028270       ??$forward@_N@std@@YA$$QA_NAA_N@Z 10029270 f i v8_libplatform:default-platform.obj
 0001:00028280       ??$forward_as_tuple@ABQAVIsolate@v8@@@std@@YA?AV?$tuple@ABQAVIsolate@v8@@@0@ABQAVIsolate@v8@@@Z 10029280 f i v8_libplatform:default-platform.obj
 0001:000282a0       ??$get@$0A@ABQAVIsolate@v8@@@std@@YAABQAVIsolate@v8@@$$QAV?$tuple@ABQAVIsolate@v8@@@0@@Z 100292a0 f i v8_libplatform:default-platform.obj
 0001:000282c0       ??$max@H@std@@YAABHABH0@Z  100292c0 f i v8_libplatform:default-platform.obj
 0001:00028310       ??$min@H@std@@YAABHABH0@Z  10029310 f i v8_libplatform:default-platform.obj
 0001:00028360       ??$move@AAV?$tuple@ABQAVIsolate@v8@@@std@@@std@@YA$$QAV?$tuple@ABQAVIsolate@v8@@@0@AAV10@@Z 10029360 f i v8_libplatform:default-platform.obj
 0001:00028370       ??$swap@D@std@@YAXAAD0@Z   10029370 f i v8_libplatform:default-platform.obj
 0001:000283b0       ??0?$LockGuard@VMutex@base@v8@@@base@v8@@QAE@PAVMutex@12@@Z 100293b0 f i v8_libplatform:default-platform.obj
 0001:000283e0       ??0?$_Deque_alloc@$0A@U?$_Deque_base_types@PAVTask@v8@@V?$allocator@PAVTask@v8@@@std@@@std@@@std@@QAE@ABV?$allocator@PAVTask@v8@@@1@@Z 100293e0 f i v8_libplatform:default-platform.obj
 0001:00028440       ??0?$_Deque_const_iterator@V?$_Deque_val@U?$_Deque_simple_types@PAVTask@v8@@@std@@@std@@@std@@QAE@IPBU_Container_base12@1@@Z 10029440 f i v8_libplatform:default-platform.obj
 0001:000284b0       ??0?$_Deque_iterator@V?$_Deque_val@U?$_Deque_simple_types@PAVTask@v8@@@std@@@std@@@std@@QAE@IPBU_Container_base12@1@@Z 100294b0 f i v8_libplatform:default-platform.obj
 0001:000284d0       ??0?$_Deque_val@U?$_Deque_simple_types@PAVTask@v8@@@std@@@std@@QAE@XZ 100294d0 f i v8_libplatform:default-platform.obj
 0001:00028510       ??0?$_Iterator012@Ubidirectional_iterator_tag@std@@U?$pair@QAVIsolate@v8@@V?$queue@PAVTask@v8@@V?$deque@PAVTask@v8@@V?$allocator@PAVTask@v8@@@std@@@std@@@std@@@2@HPBU32@ABU32@U_Iterator_base12@2@@std@@QAE@ABU01@@Z 10029510 f i v8_libplatform:default-platform.obj
 0001:00028530       ??0?$_Iterator012@Ubidirectional_iterator_tag@std@@U?$pair@QAVIsolate@v8@@V?$queue@PAVTask@v8@@V?$deque@PAVTask@v8@@V?$allocator@PAVTask@v8@@@std@@@std@@@std@@@2@HPBU32@ABU32@U_Iterator_base12@2@@std@@QAE@XZ 10029530 f i v8_libplatform:default-platform.obj
 0001:00028550       ??0?$_Iterator012@Urandom_access_iterator_tag@std@@PAVWorkerThread@platform@v8@@HPBQAV345@ABQAV345@U_Iterator_base12@2@@std@@QAE@XZ 10029550 f i v8_libplatform:default-platform.obj
 0001:00028570       ??0?$_String_alloc@$0A@U?$_String_base_types@DV?$allocator@D@std@@@std@@@std@@QAE@ABV?$allocator@D@1@@Z 10029570 f i v8_libplatform:default-platform.obj
 0001:000285d0       ??0?$_String_val@U?$_Simple_types@D@std@@@std@@QAE@XZ 100295d0 f i v8_libplatform:default-platform.obj
 0001:00028600       ??0?$_Tree@V?$_Tmap_traits@PAVIsolate@v8@@V?$queue@PAVTask@v8@@V?$deque@PAVTask@v8@@V?$allocator@PAVTask@v8@@@std@@@std@@@std@@U?$less@PAVIsolate@v8@@@4@V?$allocator@U?$pair@QAVIsolate@v8@@V?$queue@PAVTask@v8@@V?$deque@PAVTask@v8@@V?$allocator@PAVTask@v8@@@std@@@std@@@std@@@std@@@4@$0A@@std@@@std@@QAE@ABU?$less@PAVIsolate@v8@@@1@ABV?$allocator@U?$pair@QAVIsolate@v8@@V?$queue@PAVTask@v8@@V?$deque@PAVTask@v8@@V?$allocator@PAVTask@v8@@@std@@@std@@@std@@@std@@@1@@Z 10029600 f i v8_libplatform:default-platform.obj
 0001:00028620       ??0?$_Tree_alloc@$0A@U?$_Tree_base_types@U?$pair@QAVIsolate@v8@@V?$queue@PAVTask@v8@@V?$deque@PAVTask@v8@@V?$allocator@PAVTask@v8@@@std@@@std@@@std@@@std@@V?$allocator@U?$pair@QAVIsolate@v8@@V?$queue@PAVTask@v8@@V?$deque@PAVTask@v8@@V?$allocator@PAVTask@v8@@@std@@@std@@@std@@@std@@@2@@std@@@std@@QAE@ABV?$allocator@U?$pair@QAVIsolate@v8@@V?$queue@PAVTask@v8@@V?$deque@PAVTask@v8@@V?$allocator@PAVTask@v8@@@std@@@std@@@std@@@std@@@1@@Z 10029620 f i v8_libplatform:default-platform.obj
 0001:000286d0       ??0?$_Tree_buy@U?$pair@QAVIsolate@v8@@V?$queue@PAVTask@v8@@V?$deque@PAVTask@v8@@V?$allocator@PAVTask@v8@@@std@@@std@@@std@@@std@@V?$allocator@U?$pair@QAVIsolate@v8@@V?$queue@PAVTask@v8@@V?$deque@PAVTask@v8@@V?$allocator@PAVTask@v8@@@std@@@std@@@std@@@std@@@2@@std@@QAE@ABV?$allocator@U?$pair@QAVIsolate@v8@@V?$queue@PAVTask@v8@@V?$deque@PAVTask@v8@@V?$allocator@PAVTask@v8@@@std@@@std@@@std@@@std@@@1@@Z 100296d0 f i v8_libplatform:default-platform.obj
 0001:000286f0       ??0?$_Tree_comp@$0A@V?$_Tmap_traits@PAVIsolate@v8@@V?$queue@PAVTask@v8@@V?$deque@PAVTask@v8@@V?$allocator@PAVTask@v8@@@std@@@std@@@std@@U?$less@PAVIsolate@v8@@@4@V?$allocator@U?$pair@QAVIsolate@v8@@V?$queue@PAVTask@v8@@V?$deque@PAVTask@v8@@V?$allocator@PAVTask@v8@@@std@@@std@@@std@@@std@@@4@$0A@@std@@@std@@QAE@ABU?$less@PAVIsolate@v8@@@1@ABV?$allocator@U?$pair@QAVIsolate@v8@@V?$queue@PAVTask@v8@@V?$deque@PAVTask@v8@@V?$allocator@PAVTask@v8@@@std@@@std@@@std@@@std@@@1@@Z 100296f0 f i v8_libplatform:default-platform.obj
 0001:00028710       ??0?$_Tree_const_iterator@V?$_Tree_val@U?$_Tree_simple_types@U?$pair@QAVIsolate@v8@@V?$queue@PAVTask@v8@@V?$deque@PAVTask@v8@@V?$allocator@PAVTask@v8@@@std@@@std@@@std@@@std@@@std@@@std@@@std@@QAE@ABV01@@Z 10029710 f i v8_libplatform:default-platform.obj
 0001:00028730       ??0?$_Tree_const_iterator@V?$_Tree_val@U?$_Tree_simple_types@U?$pair@QAVIsolate@v8@@V?$queue@PAVTask@v8@@V?$deque@PAVTask@v8@@V?$allocator@PAVTask@v8@@@std@@@std@@@std@@@std@@@std@@@std@@@std@@QAE@PAU?$_Tree_node@U?$pair@QAVIsolate@v8@@V?$queue@PAVTask@v8@@V?$deque@PAVTask@v8@@V?$allocator@PAVTask@v8@@@std@@@std@@@std@@@std@@PAX@1@PBV?$_Tree_val@U?$_Tree_simple_types@U?$pair@QAVIsolate@v8@@V?$queue@PAVTask@v8@@V?$deque@PAVTask@v8@@V?$allocator@PAVTask@v8@@@std@@@std@@@std@@@std@@@std@@@1@@Z 10029730 f i v8_libplatform:default-platform.obj
 0001:00028750       ??0?$_Tree_const_iterator@V?$_Tree_val@U?$_Tree_simple_types@U?$pair@QAVIsolate@v8@@V?$queue@PAVTask@v8@@V?$deque@PAVTask@v8@@V?$allocator@PAVTask@v8@@@std@@@std@@@std@@@std@@@std@@@std@@@std@@QAE@XZ 10029750 f i v8_libplatform:default-platform.obj
 0001:00028770       ??0?$_Tree_iterator@V?$_Tree_val@U?$_Tree_simple_types@U?$pair@QAVIsolate@v8@@V?$queue@PAVTask@v8@@V?$deque@PAVTask@v8@@V?$allocator@PAVTask@v8@@@std@@@std@@@std@@@std@@@std@@@std@@@std@@QAE@ABV01@@Z 10029770 f i v8_libplatform:default-platform.obj
 0001:00028790       ??0?$_Tree_iterator@V?$_Tree_val@U?$_Tree_simple_types@U?$pair@QAVIsolate@v8@@V?$queue@PAVTask@v8@@V?$deque@PAVTask@v8@@V?$allocator@PAVTask@v8@@@std@@@std@@@std@@@std@@@std@@@std@@@std@@QAE@PAU?$_Tree_node@U?$pair@QAVIsolate@v8@@V?$queue@PAVTask@v8@@V?$deque@PAVTask@v8@@V?$allocator@PAVTask@v8@@@std@@@std@@@std@@@std@@PAX@1@PBV?$_Tree_val@U?$_Tree_simple_types@U?$pair@QAVIsolate@v8@@V?$queue@PAVTask@v8@@V?$deque@PAVTask@v8@@V?$allocator@PAVTask@v8@@@std@@@std@@@std@@@std@@@std@@@1@@Z 10029790 f i v8_libplatform:default-platform.obj
 0001:000287b0       ??0?$_Tree_unchecked_const_iterator@V?$_Tree_val@U?$_Tree_simple_types@U?$pair@QAVIsolate@v8@@V?$queue@PAVTask@v8@@V?$deque@PAVTask@v8@@V?$allocator@PAVTask@v8@@@std@@@std@@@std@@@std@@@std@@@std@@U_Iterator_base12@2@@std@@QAE@ABV01@@Z 100297b0 f i v8_libplatform:default-platform.obj
 0001:000287e0       ??0?$_Tree_unchecked_const_iterator@V?$_Tree_val@U?$_Tree_simple_types@U?$pair@QAVIsolate@v8@@V?$queue@PAVTask@v8@@V?$deque@PAVTask@v8@@V?$allocator@PAVTask@v8@@@std@@@std@@@std@@@std@@@std@@@std@@U_Iterator_base12@2@@std@@QAE@PAU?$_Tree_node@U?$pair@QAVIsolate@v8@@V?$queue@PAVTask@v8@@V?$deque@PAVTask@v8@@V?$allocator@PAVTask@v8@@@std@@@std@@@std@@@std@@PAX@1@PBV?$_Tree_val@U?$_Tree_simple_types@U?$pair@QAVIsolate@v8@@V?$queue@PAVTask@v8@@V?$deque@PAVTask@v8@@V?$allocator@PAVTask@v8@@@std@@@std@@@std@@@std@@@std@@@1@@Z 100297e0 f i v8_libplatform:default-platform.obj
 0001:00028850       ??0?$_Tree_unchecked_const_iterator@V?$_Tree_val@U?$_Tree_simple_types@U?$pair@QAVIsolate@v8@@V?$queue@PAVTask@v8@@V?$deque@PAVTask@v8@@V?$allocator@PAVTask@v8@@@std@@@std@@@std@@@std@@@std@@@std@@U_Iterator_base12@2@@std@@QAE@XZ 10029850 f i v8_libplatform:default-platform.obj
 0001:00028870       ??0?$_Tree_val@U?$_Tree_simple_types@U?$pair@QAVIsolate@v8@@V?$queue@PAVTask@v8@@V?$deque@PAVTask@v8@@V?$allocator@PAVTask@v8@@@std@@@std@@@std@@@std@@@std@@@std@@QAE@XZ 10029870 f i v8_libplatform:default-platform.obj
 0001:000288a0       ??0?$_Vector_alloc@$0A@U?$_Vec_base_types@PAVWorkerThread@platform@v8@@V?$allocator@PAVWorkerThread@platform@v8@@@std@@@std@@@std@@QAE@ABV?$allocator@PAVWorkerThread@platform@v8@@@1@@Z 100298a0 f i v8_libplatform:default-platform.obj
 0001:00028900       ??0?$_Vector_const_iterator@V?$_Vector_val@U?$_Simple_types@PAVWorkerThread@platform@v8@@@std@@@std@@@std@@QAE@PAPAVWorkerThread@platform@v8@@PBU_Container_base12@1@@Z 10029900 f i v8_libplatform:default-platform.obj
 0001:00028970       ??0?$_Vector_iterator@V?$_Vector_val@U?$_Simple_types@PAVWorkerThread@platform@v8@@@std@@@std@@@std@@QAE@PAPAVWorkerThread@platform@v8@@PBU_Container_base12@1@@Z 10029970 f i v8_libplatform:default-platform.obj
 0001:00028990       ??0?$_Vector_val@U?$_Simple_types@PAVWorkerThread@platform@v8@@@std@@@std@@QAE@XZ 10029990 f i v8_libplatform:default-platform.obj
 0001:000289d0       ??0?$_Wrap_alloc@V?$allocator@D@std@@@std@@QAE@XZ 100299d0 f i v8_libplatform:default-platform.obj
 0001:000289f0       ??0?$_Wrap_alloc@V?$allocator@PAVTask@v8@@@std@@@std@@QAE@XZ 100299f0 f i v8_libplatform:default-platform.obj
 0001:00028a10       ??0?$_Wrap_alloc@V?$allocator@PAVWorkerThread@platform@v8@@@std@@@std@@QAE@XZ 10029a10 f i v8_libplatform:default-platform.obj
 0001:00028a30       ??0?$_Wrap_alloc@V?$allocator@U?$_Tree_node@U?$pair@QAVIsolate@v8@@V?$queue@PAVTask@v8@@V?$deque@PAVTask@v8@@V?$allocator@PAVTask@v8@@@std@@@std@@@std@@@std@@PAX@std@@@std@@@std@@QAE@XZ 10029a30 f i v8_libplatform:default-platform.obj
 0001:00028a50       ??0?$allocator@D@std@@QAE@XZ 10029a50 f i v8_libplatform:default-platform.obj
 0001:00028a60       ??0?$allocator@PAVTask@v8@@@std@@QAE@XZ 10029a60 f i v8_libplatform:default-platform.obj
 0001:00028a70       ??0?$allocator@PAVWorkerThread@platform@v8@@@std@@QAE@XZ 10029a70 f i v8_libplatform:default-platform.obj
 0001:00028a80       ??0?$allocator@U?$_Tree_node@U?$pair@QAVIsolate@v8@@V?$queue@PAVTask@v8@@V?$deque@PAVTask@v8@@V?$allocator@PAVTask@v8@@@std@@@std@@@std@@@std@@PAX@std@@@std@@QAE@XZ 10029a80 f i v8_libplatform:default-platform.obj
 0001:00028a90       ??0?$allocator@U?$pair@QAVIsolate@v8@@V?$queue@PAVTask@v8@@V?$deque@PAVTask@v8@@V?$allocator@PAVTask@v8@@@std@@@std@@@std@@@std@@@std@@QAE@XZ 10029a90 f i v8_libplatform:default-platform.obj
 0001:00028aa0       ??0?$basic_string@DU?$char_traits@D@std@@V?$allocator@D@2@@std@@QAE@PBD@Z 10029aa0 f i v8_libplatform:default-platform.obj
 0001:00028b20       ??0?$deque@PAVTask@v8@@V?$allocator@PAVTask@v8@@@std@@@std@@QAE@XZ 10029b20 f i v8_libplatform:default-platform.obj
 0001:00028b50       ??0?$map@PAVIsolate@v8@@V?$queue@PAVTask@v8@@V?$deque@PAVTask@v8@@V?$allocator@PAVTask@v8@@@std@@@std@@@std@@U?$less@PAVIsolate@v8@@@4@V?$allocator@U?$pair@QAVIsolate@v8@@V?$queue@PAVTask@v8@@V?$deque@PAVTask@v8@@V?$allocator@PAVTask@v8@@@std@@@std@@@std@@@std@@@4@@std@@QAE@XZ 10029b50 f i v8_libplatform:default-platform.obj
 0001:00028b80       ??0?$queue@PAVTask@v8@@V?$deque@PAVTask@v8@@V?$allocator@PAVTask@v8@@@std@@@std@@@std@@QAE@XZ 10029b80 f i v8_libplatform:default-platform.obj
 0001:00028ba0       ??0?$tuple@$$$V@std@@QAE@ABV01@@Z 10029ba0 f i v8_libplatform:default-platform.obj
 0001:00028bb0       ??0?$tuple@$$$V@std@@QAE@XZ 10029bb0 f i v8_libplatform:default-platform.obj
 0001:00028bc0       ??0?$tuple@ABQAVIsolate@v8@@@std@@QAE@ABQAVIsolate@v8@@@Z 10029bc0 f i v8_libplatform:default-platform.obj
 0001:00028bf0       ??0?$vector@PAVWorkerThread@platform@v8@@V?$allocator@PAVWorkerThread@platform@v8@@@std@@@std@@QAE@XZ 10029bf0 f i v8_libplatform:default-platform.obj
 0001:00028c20       ??0DefaultPlatform@platform@v8@@QAE@XZ 10029c20 f   v8_libplatform:default-platform.obj
 0001:00028cc0       ??0Platform@v8@@QAE@XZ     10029cc0 f i v8_libplatform:default-platform.obj
 0001:00028ce0       ??0_Generic_error_category@std@@QAE@XZ 10029ce0 f i v8_libplatform:default-platform.obj
 0001:00028d00       ??0_Iostream_error_category@std@@QAE@XZ 10029d00 f i v8_libplatform:default-platform.obj
 0001:00028d20       ??0_System_error_category@std@@QAE@XZ 10029d20 f i v8_libplatform:default-platform.obj
 0001:00028d40       ??0error_category@std@@QAE@XZ 10029d40 f i v8_libplatform:default-platform.obj
 0001:00028d60       ??0error_condition@std@@QAE@HABVerror_category@1@@Z 10029d60 f i v8_libplatform:default-platform.obj
 0001:00028d90       ??1?$LockGuard@VMutex@base@v8@@@base@v8@@QAE@XZ 10029d90 f i v8_libplatform:default-platform.obj
 0001:00028db0       ??1?$_Deque_alloc@$0A@U?$_Deque_base_types@PAVTask@v8@@V?$allocator@PAVTask@v8@@@std@@@std@@@std@@QAE@XZ 10029db0 f i v8_libplatform:default-platform.obj
 0001:00028dd0       ??1?$_Deque_const_iterator@V?$_Deque_val@U?$_Deque_simple_types@PAVTask@v8@@@std@@@std@@@std@@QAE@XZ 10029dd0 f i v8_libplatform:default-platform.obj
 0001:00028df0       ??1?$_Deque_iterator@V?$_Deque_val@U?$_Deque_simple_types@PAVTask@v8@@@std@@@std@@@std@@QAE@XZ 10029df0 f i v8_libplatform:default-platform.obj
 0001:00028e10       ??1?$_Deque_val@U?$_Deque_simple_types@PAVTask@v8@@@std@@@std@@QAE@XZ 10029e10 f i v8_libplatform:default-platform.obj
 0001:00028e30       ??1?$_Iterator012@Ubidirectional_iterator_tag@std@@U?$pair@QAVIsolate@v8@@V?$queue@PAVTask@v8@@V?$deque@PAVTask@v8@@V?$allocator@PAVTask@v8@@@std@@@std@@@std@@@2@HPBU32@ABU32@U_Iterator_base12@2@@std@@QAE@XZ 10029e30 f i v8_libplatform:default-platform.obj
 0001:00028e50       ??1?$_Iterator012@Urandom_access_iterator_tag@std@@PAVWorkerThread@platform@v8@@HPBQAV345@ABQAV345@U_Iterator_base12@2@@std@@QAE@XZ 10029e50 f i v8_libplatform:default-platform.obj
 0001:00028e70       ??1?$_String_alloc@$0A@U?$_String_base_types@DV?$allocator@D@std@@@std@@@std@@QAE@XZ 10029e70 f i v8_libplatform:default-platform.obj
 0001:00028e90       ??1?$_String_val@U?$_Simple_types@D@std@@@std@@QAE@XZ 10029e90 f i v8_libplatform:default-platform.obj
 0001:00028eb0       ??1?$_Tree@V?$_Tmap_traits@PAVIsolate@v8@@V?$queue@PAVTask@v8@@V?$deque@PAVTask@v8@@V?$allocator@PAVTask@v8@@@std@@@std@@@std@@U?$less@PAVIsolate@v8@@@4@V?$allocator@U?$pair@QAVIsolate@v8@@V?$queue@PAVTask@v8@@V?$deque@PAVTask@v8@@V?$allocator@PAVTask@v8@@@std@@@std@@@std@@@std@@@4@$0A@@std@@@std@@QAE@XZ 10029eb0 f i v8_libplatform:default-platform.obj
 0001:00028ed0       ??1?$_Tree_alloc@$0A@U?$_Tree_base_types@U?$pair@QAVIsolate@v8@@V?$queue@PAVTask@v8@@V?$deque@PAVTask@v8@@V?$allocator@PAVTask@v8@@@std@@@std@@@std@@@std@@V?$allocator@U?$pair@QAVIsolate@v8@@V?$queue@PAVTask@v8@@V?$deque@PAVTask@v8@@V?$allocator@PAVTask@v8@@@std@@@std@@@std@@@std@@@2@@std@@@std@@QAE@XZ 10029ed0 f i v8_libplatform:default-platform.obj
 0001:00028f00       ??1?$_Tree_buy@U?$pair@QAVIsolate@v8@@V?$queue@PAVTask@v8@@V?$deque@PAVTask@v8@@V?$allocator@PAVTask@v8@@@std@@@std@@@std@@@std@@V?$allocator@U?$pair@QAVIsolate@v8@@V?$queue@PAVTask@v8@@V?$deque@PAVTask@v8@@V?$allocator@PAVTask@v8@@@std@@@std@@@std@@@std@@@2@@std@@QAE@XZ 10029f00 f i v8_libplatform:default-platform.obj
 0001:00028f20       ??1?$_Tree_comp@$0A@V?$_Tmap_traits@PAVIsolate@v8@@V?$queue@PAVTask@v8@@V?$deque@PAVTask@v8@@V?$allocator@PAVTask@v8@@@std@@@std@@@std@@U?$less@PAVIsolate@v8@@@4@V?$allocator@U?$pair@QAVIsolate@v8@@V?$queue@PAVTask@v8@@V?$deque@PAVTask@v8@@V?$allocator@PAVTask@v8@@@std@@@std@@@std@@@std@@@4@$0A@@std@@@std@@QAE@XZ 10029f20 f i v8_libplatform:default-platform.obj
 0001:00028f40       ??1?$_Tree_const_iterator@V?$_Tree_val@U?$_Tree_simple_types@U?$pair@QAVIsolate@v8@@V?$queue@PAVTask@v8@@V?$deque@PAVTask@v8@@V?$allocator@PAVTask@v8@@@std@@@std@@@std@@@std@@@std@@@std@@@std@@QAE@XZ 10029f40 f i v8_libplatform:default-platform.obj
 0001:00028f60       ??1?$_Tree_iterator@V?$_Tree_val@U?$_Tree_simple_types@U?$pair@QAVIsolate@v8@@V?$queue@PAVTask@v8@@V?$deque@PAVTask@v8@@V?$allocator@PAVTask@v8@@@std@@@std@@@std@@@std@@@std@@@std@@@std@@QAE@XZ 10029f60 f i v8_libplatform:default-platform.obj
 0001:00028f80       ??1?$_Tree_unchecked_const_iterator@V?$_Tree_val@U?$_Tree_simple_types@U?$pair@QAVIsolate@v8@@V?$queue@PAVTask@v8@@V?$deque@PAVTask@v8@@V?$allocator@PAVTask@v8@@@std@@@std@@@std@@@std@@@std@@@std@@U_Iterator_base12@2@@std@@QAE@XZ 10029f80 f i v8_libplatform:default-platform.obj
 0001:00028fa0       ??1?$_Tree_val@U?$_Tree_simple_types@U?$pair@QAVIsolate@v8@@V?$queue@PAVTask@v8@@V?$deque@PAVTask@v8@@V?$allocator@PAVTask@v8@@@std@@@std@@@std@@@std@@@std@@@std@@QAE@XZ 10029fa0 f i v8_libplatform:default-platform.obj
 0001:00028fc0       ??1?$_Vector_alloc@$0A@U?$_Vec_base_types@PAVWorkerThread@platform@v8@@V?$allocator@PAVWorkerThread@platform@v8@@@std@@@std@@@std@@QAE@XZ 10029fc0 f i v8_libplatform:default-platform.obj
 0001:00028fe0       ??1?$_Vector_const_iterator@V?$_Vector_val@U?$_Simple_types@PAVWorkerThread@platform@v8@@@std@@@std@@@std@@QAE@XZ 10029fe0 f i v8_libplatform:default-platform.obj
 0001:00029000       ??1?$_Vector_iterator@V?$_Vector_val@U?$_Simple_types@PAVWorkerThread@platform@v8@@@std@@@std@@@std@@QAE@XZ 1002a000 f i v8_libplatform:default-platform.obj
 0001:00029020       ??1?$_Vector_val@U?$_Simple_types@PAVWorkerThread@platform@v8@@@std@@@std@@QAE@XZ 1002a020 f i v8_libplatform:default-platform.obj
 0001:00029040       ??1?$deque@PAVTask@v8@@V?$allocator@PAVTask@v8@@@std@@@std@@QAE@XZ 1002a040 f i v8_libplatform:default-platform.obj
 0001:00029060       ??1?$map@PAVIsolate@v8@@V?$queue@PAVTask@v8@@V?$deque@PAVTask@v8@@V?$allocator@PAVTask@v8@@@std@@@std@@@std@@U?$less@PAVIsolate@v8@@@4@V?$allocator@U?$pair@QAVIsolate@v8@@V?$queue@PAVTask@v8@@V?$deque@PAVTask@v8@@V?$allocator@PAVTask@v8@@@std@@@std@@@std@@@std@@@4@@std@@QAE@XZ 1002a060 f i v8_libplatform:default-platform.obj
 0001:00029080       ??1?$pair@QAVIsolate@v8@@V?$queue@PAVTask@v8@@V?$deque@PAVTask@v8@@V?$allocator@PAVTask@v8@@@std@@@std@@@std@@@std@@QAE@XZ 1002a080 f i v8_libplatform:default-platform.obj
 0001:000290a0       ??1?$pair@V?$_Tree_iterator@V?$_Tree_val@U?$_Tree_simple_types@U?$pair@QAVIsolate@v8@@V?$queue@PAVTask@v8@@V?$deque@PAVTask@v8@@V?$allocator@PAVTask@v8@@@std@@@std@@@std@@@std@@@std@@@std@@@std@@_N@std@@QAE@XZ 1002a0a0 f i v8_libplatform:default-platform.obj
 0001:000290c0       ??1?$queue@PAVTask@v8@@V?$deque@PAVTask@v8@@V?$allocator@PAVTask@v8@@@std@@@std@@@std@@QAE@XZ 1002a0c0 f i v8_libplatform:default-platform.obj
 0001:000290e0       ??1?$vector@PAVWorkerThread@platform@v8@@V?$allocator@PAVWorkerThread@platform@v8@@@std@@@std@@QAE@XZ 1002a0e0 f i v8_libplatform:default-platform.obj
 0001:00029100       ??1DefaultPlatform@platform@v8@@UAE@XZ 1002a100 f   v8_libplatform:default-platform.obj
 0001:00029340       ??1Platform@v8@@UAE@XZ     1002a340 f i v8_libplatform:default-platform.obj
 0001:00029360       ??1_Generic_error_category@std@@UAE@XZ 1002a360 f i v8_libplatform:default-platform.obj
 0001:00029380       ??1_Iostream_error_category@std@@UAE@XZ 1002a380 f i v8_libplatform:default-platform.obj
 0001:000293a0       ??1_System_error_category@std@@UAE@XZ 1002a3a0 f i v8_libplatform:default-platform.obj
 0001:000293c0       ??1error_category@std@@UAE@XZ 1002a3c0 f i v8_libplatform:default-platform.obj
 0001:000293e0       ??4?$_Iterator012@Ubidirectional_iterator_tag@std@@U?$pair@QAVIsolate@v8@@V?$queue@PAVTask@v8@@V?$deque@PAVTask@v8@@V?$allocator@PAVTask@v8@@@std@@@std@@@std@@@2@HPBU32@ABU32@U_Iterator_base12@2@@std@@QAEAAU01@ABU01@@Z 1002a3e0 f i v8_libplatform:default-platform.obj
 0001:00029400       ??4?$_Tree_const_iterator@V?$_Tree_val@U?$_Tree_simple_types@U?$pair@QAVIsolate@v8@@V?$queue@PAVTask@v8@@V?$deque@PAVTask@v8@@V?$allocator@PAVTask@v8@@@std@@@std@@@std@@@std@@@std@@@std@@@std@@QAEAAV01@ABV01@@Z 1002a400 f i v8_libplatform:default-platform.obj
 0001:00029420       ??4?$_Tree_iterator@V?$_Tree_val@U?$_Tree_simple_types@U?$pair@QAVIsolate@v8@@V?$queue@PAVTask@v8@@V?$deque@PAVTask@v8@@V?$allocator@PAVTask@v8@@@std@@@std@@@std@@@std@@@std@@@std@@@std@@QAEAAV01@ABV01@@Z 1002a420 f i v8_libplatform:default-platform.obj
 0001:00029440       ??4?$_Tree_unchecked_const_iterator@V?$_Tree_val@U?$_Tree_simple_types@U?$pair@QAVIsolate@v8@@V?$queue@PAVTask@v8@@V?$deque@PAVTask@v8@@V?$allocator@PAVTask@v8@@@std@@@std@@@std@@@std@@@std@@@std@@U_Iterator_base12@2@@std@@QAEAAV01@ABV01@@Z 1002a440 f i v8_libplatform:default-platform.obj
 0001:00029470       ??8?$_Tree_const_iterator@V?$_Tree_val@U?$_Tree_simple_types@U?$pair@QAVIsolate@v8@@V?$queue@PAVTask@v8@@V?$deque@PAVTask@v8@@V?$allocator@PAVTask@v8@@@std@@@std@@@std@@@std@@@std@@@std@@@std@@QBE_NABV01@@Z 1002a470 f i v8_libplatform:default-platform.obj
 0001:00029530       ??8?$_Vector_const_iterator@V?$_Vector_val@U?$_Simple_types@PAVWorkerThread@platform@v8@@@std@@@std@@@std@@QBE_NABV01@@Z 1002a530 f i v8_libplatform:default-platform.obj
 0001:00029570       ??8error_category@std@@QBE_NABV01@@Z 1002a570 f i v8_libplatform:default-platform.obj
 0001:000295a0       ??8error_condition@std@@QBE_NABV01@@Z 1002a5a0 f i v8_libplatform:default-platform.obj
 0001:00029600       ??9?$_Tree_const_iterator@V?$_Tree_val@U?$_Tree_simple_types@U?$pair@QAVIsolate@v8@@V?$queue@PAVTask@v8@@V?$deque@PAVTask@v8@@V?$allocator@PAVTask@v8@@@std@@@std@@@std@@@std@@@std@@@std@@@std@@QBE_NABV01@@Z 1002a600 f i v8_libplatform:default-platform.obj
 0001:00029640       ??9?$_Vector_const_iterator@V?$_Vector_val@U?$_Simple_types@PAVWorkerThread@platform@v8@@@std@@@std@@@std@@QBE_NABV01@@Z 1002a640 f i v8_libplatform:default-platform.obj
 0001:00029680       ??A?$map@PAVIsolate@v8@@V?$queue@PAVTask@v8@@V?$deque@PAVTask@v8@@V?$allocator@PAVTask@v8@@@std@@@std@@@std@@U?$less@PAVIsolate@v8@@@4@V?$allocator@U?$pair@QAVIsolate@v8@@V?$queue@PAVTask@v8@@V?$deque@PAVTask@v8@@V?$allocator@PAVTask@v8@@@std@@@std@@@std@@@std@@@4@@std@@QAEAAV?$queue@PAVTask@v8@@V?$deque@PAVTask@v8@@V?$allocator@PAVTask@v8@@@std@@@std@@@1@ABQAVIsolate@v8@@@Z 1002a680 f i v8_libplatform:default-platform.obj
 0001:00029800       ??C?$_Tree_iterator@V?$_Tree_val@U?$_Tree_simple_types@U?$pair@QAVIsolate@v8@@V?$queue@PAVTask@v8@@V?$deque@PAVTask@v8@@V?$allocator@PAVTask@v8@@@std@@@std@@@std@@@std@@@std@@@std@@@std@@QBEPAU?$pair@QAVIsolate@v8@@V?$queue@PAVTask@v8@@V?$deque@PAVTask@v8@@V?$allocator@PAVTask@v8@@@std@@@std@@@std@@@1@XZ 1002a800 f i v8_libplatform:default-platform.obj
 0001:00029820       ??D?$_Deque_const_iterator@V?$_Deque_val@U?$_Deque_simple_types@PAVTask@v8@@@std@@@std@@@std@@QBEABQAVTask@v8@@XZ 1002a820 f i v8_libplatform:default-platform.obj
 0001:00029910       ??D?$_Deque_iterator@V?$_Deque_val@U?$_Deque_simple_types@PAVTask@v8@@@std@@@std@@@std@@QBEAAPAVTask@v8@@XZ 1002a910 f i v8_libplatform:default-platform.obj
 0001:00029930       ??D?$_Tree_const_iterator@V?$_Tree_val@U?$_Tree_simple_types@U?$pair@QAVIsolate@v8@@V?$queue@PAVTask@v8@@V?$deque@PAVTask@v8@@V?$allocator@PAVTask@v8@@@std@@@std@@@std@@@std@@@std@@@std@@@std@@QBEABU?$pair@QAVIsolate@v8@@V?$queue@PAVTask@v8@@V?$deque@PAVTask@v8@@V?$allocator@PAVTask@v8@@@std@@@std@@@std@@@1@XZ 1002a930 f i v8_libplatform:default-platform.obj
 0001:000299e0       ??D?$_Tree_iterator@V?$_Tree_val@U?$_Tree_simple_types@U?$pair@QAVIsolate@v8@@V?$queue@PAVTask@v8@@V?$deque@PAVTask@v8@@V?$allocator@PAVTask@v8@@@std@@@std@@@std@@@std@@@std@@@std@@@std@@QBEAAU?$pair@QAVIsolate@v8@@V?$queue@PAVTask@v8@@V?$deque@PAVTask@v8@@V?$allocator@PAVTask@v8@@@std@@@std@@@std@@@1@XZ 1002a9e0 f i v8_libplatform:default-platform.obj
 0001:00029a00       ??D?$_Vector_const_iterator@V?$_Vector_val@U?$_Simple_types@PAVWorkerThread@platform@v8@@@std@@@std@@@std@@QBEABQAVWorkerThread@platform@v8@@XZ 1002aa00 f i v8_libplatform:default-platform.obj
 0001:00029ab0       ??D?$_Vector_iterator@V?$_Vector_val@U?$_Simple_types@PAVWorkerThread@platform@v8@@@std@@@std@@@std@@QBEAAPAVWorkerThread@platform@v8@@XZ 1002aab0 f i v8_libplatform:default-platform.obj
 0001:00029ad0       ??E?$_Tree_const_iterator@V?$_Tree_val@U?$_Tree_simple_types@U?$pair@QAVIsolate@v8@@V?$queue@PAVTask@v8@@V?$deque@PAVTask@v8@@V?$allocator@PAVTask@v8@@@std@@@std@@@std@@@std@@@std@@@std@@@std@@QAE?AV01@H@Z 1002aad0 f i v8_libplatform:default-platform.obj
 0001:00029b60       ??E?$_Tree_const_iterator@V?$_Tree_val@U?$_Tree_simple_types@U?$pair@QAVIsolate@v8@@V?$queue@PAVTask@v8@@V?$deque@PAVTask@v8@@V?$allocator@PAVTask@v8@@@std@@@std@@@std@@@std@@@std@@@std@@@std@@QAEAAV01@XZ 1002ab60 f i v8_libplatform:default-platform.obj
 0001:00029c10       ??E?$_Tree_iterator@V?$_Tree_val@U?$_Tree_simple_types@U?$pair@QAVIsolate@v8@@V?$queue@PAVTask@v8@@V?$deque@PAVTask@v8@@V?$allocator@PAVTask@v8@@@std@@@std@@@std@@@std@@@std@@@std@@@std@@QAEAAV01@XZ 1002ac10 f i v8_libplatform:default-platform.obj
 0001:00029c30       ??E?$_Tree_unchecked_const_iterator@V?$_Tree_val@U?$_Tree_simple_types@U?$pair@QAVIsolate@v8@@V?$queue@PAVTask@v8@@V?$deque@PAVTask@v8@@V?$allocator@PAVTask@v8@@@std@@@std@@@std@@@std@@@std@@@std@@U_Iterator_base12@2@@std@@QAEAAV01@XZ 1002ac30 f i v8_libplatform:default-platform.obj
 0001:00029cf0       ??E?$_Vector_const_iterator@V?$_Vector_val@U?$_Simple_types@PAVWorkerThread@platform@v8@@@std@@@std@@@std@@QAEAAV01@XZ 1002acf0 f i v8_libplatform:default-platform.obj
 0001:00029da0       ??E?$_Vector_iterator@V?$_Vector_val@U?$_Simple_types@PAVWorkerThread@platform@v8@@@std@@@std@@@std@@QAEAAV01@XZ 1002ada0 f i v8_libplatform:default-platform.obj
 0001:00029dc0       ??F?$_Tree_const_iterator@V?$_Tree_val@U?$_Tree_simple_types@U?$pair@QAVIsolate@v8@@V?$queue@PAVTask@v8@@V?$deque@PAVTask@v8@@V?$allocator@PAVTask@v8@@@std@@@std@@@std@@@std@@@std@@@std@@@std@@QAEAAV01@XZ 1002adc0 f i v8_libplatform:default-platform.obj
 0001:00029ee0       ??F?$_Tree_iterator@V?$_Tree_val@U?$_Tree_simple_types@U?$pair@QAVIsolate@v8@@V?$queue@PAVTask@v8@@V?$deque@PAVTask@v8@@V?$allocator@PAVTask@v8@@@std@@@std@@@std@@@std@@@std@@@std@@@std@@QAEAAV01@XZ 1002aee0 f i v8_libplatform:default-platform.obj
 0001:00029f00       ??F?$_Tree_unchecked_const_iterator@V?$_Tree_val@U?$_Tree_simple_types@U?$pair@QAVIsolate@v8@@V?$queue@PAVTask@v8@@V?$deque@PAVTask@v8@@V?$allocator@PAVTask@v8@@@std@@@std@@@std@@@std@@@std@@@std@@U_Iterator_base12@2@@std@@QAEAAV01@XZ 1002af00 f i v8_libplatform:default-platform.obj
 0001:00029ff0       ??R?$less@PAVIsolate@v8@@@std@@QBE_NABQAVIsolate@v8@@0@Z 1002aff0 f i v8_libplatform:default-platform.obj
 0001:0002a020       ??_G?$pair@QAVIsolate@v8@@V?$queue@PAVTask@v8@@V?$deque@PAVTask@v8@@V?$allocator@PAVTask@v8@@@std@@@std@@@std@@@std@@QAEPAXI@Z 1002b020 f i v8_libplatform:default-platform.obj
 0001:0002a050       ??_GDefaultPlatform@platform@v8@@UAEPAXI@Z 1002b050 f i v8_libplatform:default-platform.obj
 0001:0002a050       ??_EDefaultPlatform@platform@v8@@UAEPAXI@Z 1002b050 f i v8_libplatform:default-platform.obj
 0001:0002a080       ??_GPlatform@v8@@UAEPAXI@Z 1002b080 f i v8_libplatform:default-platform.obj
 0001:0002a080       ??_EPlatform@v8@@UAEPAXI@Z 1002b080 f i v8_libplatform:default-platform.obj
 0001:0002a0b0       ??_G_Generic_error_category@std@@UAEPAXI@Z 1002b0b0 f i v8_libplatform:default-platform.obj
 0001:0002a0b0       ??_E_Generic_error_category@std@@UAEPAXI@Z 1002b0b0 f i v8_libplatform:default-platform.obj
 0001:0002a0e0       ??_G_Iostream_error_category@std@@UAEPAXI@Z 1002b0e0 f i v8_libplatform:default-platform.obj
 0001:0002a0e0       ??_E_Iostream_error_category@std@@UAEPAXI@Z 1002b0e0 f i v8_libplatform:default-platform.obj
 0001:0002a110       ??_E_System_error_category@std@@UAEPAXI@Z 1002b110 f i v8_libplatform:default-platform.obj
 0001:0002a110       ??_G_System_error_category@std@@UAEPAXI@Z 1002b110 f i v8_libplatform:default-platform.obj
 0001:0002a140       ??_Gerror_category@std@@UAEPAXI@Z 1002b140 f i v8_libplatform:default-platform.obj
 0001:0002a140       ??_Eerror_category@std@@UAEPAXI@Z 1002b140 f i v8_libplatform:default-platform.obj
 0001:0002a170       ?CallOnBackgroundThread@DefaultPlatform@platform@v8@@UAEXPAVTask@3@W4ExpectedRuntime@Platform@3@@Z 1002b170 f   v8_libplatform:default-platform.obj
 0001:0002a1a0       ?CallOnForegroundThread@DefaultPlatform@platform@v8@@UAEXPAVIsolate@3@PAVTask@3@@Z 1002b1a0 f   v8_libplatform:default-platform.obj
 0001:0002a220       ?CreateDefaultPlatform@platform@v8@@YAPAVPlatform@2@H@Z 1002b220 f   v8_libplatform:default-platform.obj
 0001:0002a2b0       ?EnsureInitialized@DefaultPlatform@platform@v8@@QAEXXZ 1002b2b0 f   v8_libplatform:default-platform.obj
 0001:0002a3b0       ?SetThreadPoolSize@DefaultPlatform@platform@v8@@QAEXH@Z 1002b3b0 f   v8_libplatform:default-platform.obj
 0001:0002a470       ?_Alloc_proxy@?$_Deque_alloc@$0A@U?$_Deque_base_types@PAVTask@v8@@V?$allocator@PAVTask@v8@@@std@@@std@@@std@@QAEXXZ 1002b470 f i v8_libplatform:default-platform.obj
 0001:0002a4c0       ?_Alloc_proxy@?$_String_alloc@$0A@U?$_String_base_types@DV?$allocator@D@std@@@std@@@std@@QAEXXZ 1002b4c0 f i v8_libplatform:default-platform.obj
 0001:0002a510       ?_Alloc_proxy@?$_Tree_alloc@$0A@U?$_Tree_base_types@U?$pair@QAVIsolate@v8@@V?$queue@PAVTask@v8@@V?$deque@PAVTask@v8@@V?$allocator@PAVTask@v8@@@std@@@std@@@std@@@std@@V?$allocator@U?$pair@QAVIsolate@v8@@V?$queue@PAVTask@v8@@V?$deque@PAVTask@v8@@V?$allocator@PAVTask@v8@@@std@@@std@@@std@@@std@@@2@@std@@@std@@QAEXXZ 1002b510 f i v8_libplatform:default-platform.obj
 0001:0002a570       ?_Alloc_proxy@?$_Vector_alloc@$0A@U?$_Vec_base_types@PAVWorkerThread@platform@v8@@V?$allocator@PAVWorkerThread@platform@v8@@@std@@@std@@@std@@QAEXXZ 1002b570 f i v8_libplatform:default-platform.obj
 0001:0002a5c0       ?_Buyheadnode@?$_Tree_alloc@$0A@U?$_Tree_base_types@U?$pair@QAVIsolate@v8@@V?$queue@PAVTask@v8@@V?$deque@PAVTask@v8@@V?$allocator@PAVTask@v8@@@std@@@std@@@std@@@std@@V?$allocator@U?$pair@QAVIsolate@v8@@V?$queue@PAVTask@v8@@V?$deque@PAVTask@v8@@V?$allocator@PAVTask@v8@@@std@@@std@@@std@@@std@@@2@@std@@@std@@QAEPAU?$_Tree_node@U?$pair@QAVIsolate@v8@@V?$queue@PAVTask@v8@@V?$deque@PAVTask@v8@@V?$allocator@PAVTask@v8@@@std@@@std@@@std@@@std@@PAX@2@XZ 1002b5c0 f i v8_libplatform:default-platform.obj
 0001:0002a720       ?_Buynode0@?$_Tree_buy@U?$pair@QAVIsolate@v8@@V?$queue@PAVTask@v8@@V?$deque@PAVTask@v8@@V?$allocator@PAVTask@v8@@@std@@@std@@@std@@@std@@V?$allocator@U?$pair@QAVIsolate@v8@@V?$queue@PAVTask@v8@@V?$deque@PAVTask@v8@@V?$allocator@PAVTask@v8@@@std@@@std@@@std@@@std@@@2@@std@@QAEPAU?$_Tree_node@U?$pair@QAVIsolate@v8@@V?$queue@PAVTask@v8@@V?$deque@PAVTask@v8@@V?$allocator@PAVTask@v8@@@std@@@std@@@std@@@std@@PAX@2@XZ 1002b720 f i v8_libplatform:default-platform.obj
 0001:0002a870       ?_Color@?$_Tree_val@U?$_Tree_simple_types@U?$pair@QAVIsolate@v8@@V?$queue@PAVTask@v8@@V?$deque@PAVTask@v8@@V?$allocator@PAVTask@v8@@@std@@@std@@@std@@@std@@@std@@@std@@SAAADPAU?$_Tree_node@U?$pair@QAVIsolate@v8@@V?$queue@PAVTask@v8@@V?$deque@PAVTask@v8@@V?$allocator@PAVTask@v8@@@std@@@std@@@std@@@std@@PAX@2@@Z 1002b870 f i v8_libplatform:default-platform.obj
 0001:0002a880       ?_Compat@?$_Vector_const_iterator@V?$_Vector_val@U?$_Simple_types@PAVWorkerThread@platform@v8@@@std@@@std@@@std@@QBEXABV12@@Z 1002b880 f i v8_libplatform:default-platform.obj
 0001:0002a920       ?_Copy@?$basic_string@DU?$char_traits@D@std@@V?$allocator@D@2@@std@@QAEXII@Z 1002b920 f i v8_libplatform:default-platform.obj
 0001:0002aae0       ?_Destroy@?$vector@PAVWorkerThread@platform@v8@@V?$allocator@PAVWorkerThread@platform@v8@@@std@@@std@@IAEXPAPAVWorkerThread@platform@v8@@0@Z 1002bae0 f i v8_libplatform:default-platform.obj
 0001:0002ab10       ?_Destroy_if_not_nil@?$_Tree@V?$_Tmap_traits@PAVIsolate@v8@@V?$queue@PAVTask@v8@@V?$deque@PAVTask@v8@@V?$allocator@PAVTask@v8@@@std@@@std@@@std@@U?$less@PAVIsolate@v8@@@4@V?$allocator@U?$pair@QAVIsolate@v8@@V?$queue@PAVTask@v8@@V?$deque@PAVTask@v8@@V?$allocator@PAVTask@v8@@@std@@@std@@@std@@@std@@@4@$0A@@std@@@std@@IAEXPAU?$_Tree_node@U?$pair@QAVIsolate@v8@@V?$queue@PAVTask@v8@@V?$deque@PAVTask@v8@@V?$allocator@PAVTask@v8@@@std@@@std@@@std@@@std@@PAX@2@@Z 1002bb10 f i v8_libplatform:default-platform.obj
 0001:0002ab70       ?_Eos@?$basic_string@DU?$char_traits@D@std@@V?$allocator@D@2@@std@@QAEXI@Z 1002bb70 f i v8_libplatform:default-platform.obj
 0001:0002abb0       ?_Erase@?$_Tree@V?$_Tmap_traits@PAVIsolate@v8@@V?$queue@PAVTask@v8@@V?$deque@PAVTask@v8@@V?$allocator@PAVTask@v8@@@std@@@std@@@std@@U?$less@PAVIsolate@v8@@@4@V?$allocator@U?$pair@QAVIsolate@v8@@V?$queue@PAVTask@v8@@V?$deque@PAVTask@v8@@V?$allocator@PAVTask@v8@@@std@@@std@@@std@@@std@@@4@$0A@@std@@@std@@IAEXPAU?$_Tree_node@U?$pair@QAVIsolate@v8@@V?$queue@PAVTask@v8@@V?$deque@PAVTask@v8@@V?$allocator@PAVTask@v8@@@std@@@std@@@std@@@std@@PAX@2@@Z 1002bbb0 f i v8_libplatform:default-platform.obj
 0001:0002ac50       ?_Free_proxy@?$_Deque_alloc@$0A@U?$_Deque_base_types@PAVTask@v8@@V?$allocator@PAVTask@v8@@@std@@@std@@@std@@QAEXXZ 1002bc50 f i v8_libplatform:default-platform.obj
 0001:0002aca0       ?_Free_proxy@?$_String_alloc@$0A@U?$_String_base_types@DV?$allocator@D@std@@@std@@@std@@QAEXXZ 1002bca0 f i v8_libplatform:default-platform.obj
 0001:0002acf0       ?_Free_proxy@?$_Tree_alloc@$0A@U?$_Tree_base_types@U?$pair@QAVIsolate@v8@@V?$queue@PAVTask@v8@@V?$deque@PAVTask@v8@@V?$allocator@PAVTask@v8@@@std@@@std@@@std@@@std@@V?$allocator@U?$pair@QAVIsolate@v8@@V?$queue@PAVTask@v8@@V?$deque@PAVTask@v8@@V?$allocator@PAVTask@v8@@@std@@@std@@@std@@@std@@@2@@std@@@std@@QAEXXZ 1002bcf0 f i v8_libplatform:default-platform.obj
 0001:0002ad50       ?_Free_proxy@?$_Vector_alloc@$0A@U?$_Vec_base_types@PAVWorkerThread@platform@v8@@V?$allocator@PAVWorkerThread@platform@v8@@@std@@@std@@@std@@QAEXXZ 1002bd50 f i v8_libplatform:default-platform.obj
 0001:0002ada0       ?_Freeheadnode@?$_Tree_alloc@$0A@U?$_Tree_base_types@U?$pair@QAVIsolate@v8@@V?$queue@PAVTask@v8@@V?$deque@PAVTask@v8@@V?$allocator@PAVTask@v8@@@std@@@std@@@std@@@std@@V?$allocator@U?$pair@QAVIsolate@v8@@V?$queue@PAVTask@v8@@V?$deque@PAVTask@v8@@V?$allocator@PAVTask@v8@@@std@@@std@@@std@@@std@@@2@@std@@@std@@QAEXPAU?$_Tree_node@U?$pair@QAVIsolate@v8@@V?$queue@PAVTask@v8@@V?$deque@PAVTask@v8@@V?$allocator@PAVTask@v8@@@std@@@std@@@std@@@std@@PAX@2@@Z 1002bda0 f i v8_libplatform:default-platform.obj
 0001:0002ae50       ?_Freenode0@?$_Tree_buy@U?$pair@QAVIsolate@v8@@V?$queue@PAVTask@v8@@V?$deque@PAVTask@v8@@V?$allocator@PAVTask@v8@@@std@@@std@@@std@@@std@@V?$allocator@U?$pair@QAVIsolate@v8@@V?$queue@PAVTask@v8@@V?$deque@PAVTask@v8@@V?$allocator@PAVTask@v8@@@std@@@std@@@std@@@std@@@2@@std@@QAEXPAU?$_Tree_node@U?$pair@QAVIsolate@v8@@V?$queue@PAVTask@v8@@V?$deque@PAVTask@v8@@V?$allocator@PAVTask@v8@@@std@@@std@@@std@@@std@@PAX@2@@Z 1002be50 f i v8_libplatform:default-platform.obj
 0001:0002af00       ?_Get_rest@?$tuple@ABQAVIsolate@v8@@@std@@QAEAAV?$tuple@$$$V@2@XZ 1002bf00 f i v8_libplatform:default-platform.obj
 0001:0002af10       ?_Getal@?$_Deque_alloc@$0A@U?$_Deque_base_types@PAVTask@v8@@V?$allocator@PAVTask@v8@@@std@@@std@@@std@@QBE?AU?$_Wrap_alloc@V?$allocator@PAVTask@v8@@@std@@@2@XZ 1002bf10 f i v8_libplatform:default-platform.obj
 0001:0002af30       ?_Getal@?$_String_alloc@$0A@U?$_String_base_types@DV?$allocator@D@std@@@std@@@std@@QBE?AU?$_Wrap_alloc@V?$allocator@D@std@@@2@XZ 1002bf30 f i v8_libplatform:default-platform.obj
 0001:0002af50       ?_Getal@?$_Tree_alloc@$0A@U?$_Tree_base_types@U?$pair@QAVIsolate@v8@@V?$queue@PAVTask@v8@@V?$deque@PAVTask@v8@@V?$allocator@PAVTask@v8@@@std@@@std@@@std@@@std@@V?$allocator@U?$pair@QAVIsolate@v8@@V?$queue@PAVTask@v8@@V?$deque@PAVTask@v8@@V?$allocator@PAVTask@v8@@@std@@@std@@@std@@@std@@@2@@std@@@std@@QBE?AU?$_Wrap_alloc@V?$allocator@U?$_Tree_node@U?$pair@QAVIsolate@v8@@V?$queue@PAVTask@v8@@V?$deque@PAVTask@v8@@V?$allocator@PAVTask@v8@@@std@@@std@@@std@@@std@@PAX@std@@@std@@@2@XZ 1002bf50 f i v8_libplatform:default-platform.obj
 0001:0002af70       ?_Getal@?$_Vector_alloc@$0A@U?$_Vec_base_types@PAVWorkerThread@platform@v8@@V?$allocator@PAVWorkerThread@platform@v8@@@std@@@std@@@std@@QBE?AU?$_Wrap_alloc@V?$allocator@PAVWorkerThread@platform@v8@@@std@@@2@XZ 1002bf70 f i v8_libplatform:default-platform.obj
 0001:0002af90       ?_Getblock@?$_Deque_val@U?$_Deque_simple_types@PAVTask@v8@@@std@@@std@@QBEII@Z 1002bf90 f i v8_libplatform:default-platform.obj
 0001:0002afb0       ?_Getcomp@?$_Tree_comp@$0A@V?$_Tmap_traits@PAVIsolate@v8@@V?$queue@PAVTask@v8@@V?$deque@PAVTask@v8@@V?$allocator@PAVTask@v8@@@std@@@std@@@std@@U?$less@PAVIsolate@v8@@@4@V?$allocator@U?$pair@QAVIsolate@v8@@V?$queue@PAVTask@v8@@V?$deque@PAVTask@v8@@V?$allocator@PAVTask@v8@@@std@@@std@@@std@@@std@@@4@$0A@@std@@@std@@QBE?AU?$less@PAVIsolate@v8@@@2@XZ 1002bfb0 f i v8_libplatform:default-platform.obj
 0001:0002afc0       ?_Grow@?$basic_string@DU?$char_traits@D@std@@V?$allocator@D@2@@std@@QAE_NI_N@Z 1002bfc0 f i v8_libplatform:default-platform.obj
 0001:0002b070       ?_Grow_to@?$vector@PAVWorkerThread@platform@v8@@V?$allocator@PAVWorkerThread@platform@v8@@@std@@@std@@IBEII@Z 1002c070 f i v8_libplatform:default-platform.obj
 0001:0002b0d0       ?_Growmap@?$deque@PAVTask@v8@@V?$allocator@PAVTask@v8@@@std@@@std@@IAEXI@Z 1002c0d0 f i v8_libplatform:default-platform.obj
 0001:0002b2e0       ?_Inside@?$basic_string@DU?$char_traits@D@std@@V?$allocator@D@2@@std@@QAE_NPBD@Z 1002c2e0 f i v8_libplatform:default-platform.obj
 0001:0002b320       ?_Inside@?$vector@PAVWorkerThread@platform@v8@@V?$allocator@PAVWorkerThread@platform@v8@@@std@@@std@@IBE_NPBQAVWorkerThread@platform@v8@@@Z 1002c320 f i v8_libplatform:default-platform.obj
 0001:0002b360       ?_Isnil@?$_Tree_val@U?$_Tree_simple_types@U?$pair@QAVIsolate@v8@@V?$queue@PAVTask@v8@@V?$deque@PAVTask@v8@@V?$allocator@PAVTask@v8@@@std@@@std@@@std@@@std@@@std@@@std@@SAAADPAU?$_Tree_node@U?$pair@QAVIsolate@v8@@V?$queue@PAVTask@v8@@V?$deque@PAVTask@v8@@V?$allocator@PAVTask@v8@@@std@@@std@@@std@@@std@@PAX@2@@Z 1002c360 f i v8_libplatform:default-platform.obj
 0001:0002b370       ?_Key@?$_Tree@V?$_Tmap_traits@PAVIsolate@v8@@V?$queue@PAVTask@v8@@V?$deque@PAVTask@v8@@V?$allocator@PAVTask@v8@@@std@@@std@@@std@@U?$less@PAVIsolate@v8@@@4@V?$allocator@U?$pair@QAVIsolate@v8@@V?$queue@PAVTask@v8@@V?$deque@PAVTask@v8@@V?$allocator@PAVTask@v8@@@std@@@std@@@std@@@std@@@4@$0A@@std@@@std@@IBEABQAVIsolate@v8@@PAU?$_Tree_node@U?$pair@QAVIsolate@v8@@V?$queue@PAVTask@v8@@V?$deque@PAVTask@v8@@V?$allocator@PAVTask@v8@@@std@@@std@@@std@@@std@@PAX@2@@Z 1002c370 f i v8_libplatform:default-platform.obj
 0001:0002b3a0       ?_Kfn@?$_Tree@V?$_Tmap_traits@PAVIsolate@v8@@V?$queue@PAVTask@v8@@V?$deque@PAVTask@v8@@V?$allocator@PAVTask@v8@@@std@@@std@@@std@@U?$less@PAVIsolate@v8@@@4@V?$allocator@U?$pair@QAVIsolate@v8@@V?$queue@PAVTask@v8@@V?$deque@PAVTask@v8@@V?$allocator@PAVTask@v8@@@std@@@std@@@std@@@std@@@4@$0A@@std@@@std@@IBEABQAVIsolate@v8@@ABU?$pair@QAVIsolate@v8@@V?$queue@PAVTask@v8@@V?$deque@PAVTask@v8@@V?$allocator@PAVTask@v8@@@std@@@std@@@std@@@2@@Z 1002c3a0 f i v8_libplatform:default-platform.obj
 0001:0002b3c0       ?_Lbound@?$_Tree@V?$_Tmap_traits@PAVIsolate@v8@@V?$queue@PAVTask@v8@@V?$deque@PAVTask@v8@@V?$allocator@PAVTask@v8@@@std@@@std@@@std@@U?$less@PAVIsolate@v8@@@4@V?$allocator@U?$pair@QAVIsolate@v8@@V?$queue@PAVTask@v8@@V?$deque@PAVTask@v8@@V?$allocator@PAVTask@v8@@@std@@@std@@@std@@@std@@@4@$0A@@std@@@std@@IAEPAU?$_Tree_node@U?$pair@QAVIsolate@v8@@V?$queue@PAVTask@v8@@V?$deque@PAVTask@v8@@V?$allocator@PAVTask@v8@@@std@@@std@@@std@@@std@@PAX@2@ABQAVIsolate@v8@@@Z 1002c3c0 f i v8_libplatform:default-platform.obj
 0001:0002b470       ?_Left@?$_Tree_val@U?$_Tree_simple_types@U?$pair@QAVIsolate@v8@@V?$queue@PAVTask@v8@@V?$deque@PAVTask@v8@@V?$allocator@PAVTask@v8@@@std@@@std@@@std@@@std@@@std@@@std@@SAAAPAU?$_Tree_node@U?$pair@QAVIsolate@v8@@V?$queue@PAVTask@v8@@V?$deque@PAVTask@v8@@V?$allocator@PAVTask@v8@@@std@@@std@@@std@@@std@@PAX@2@PAU32@@Z 1002c470 f i v8_libplatform:default-platform.obj
 0001:0002b480       ?_Lmost@?$_Tree@V?$_Tmap_traits@PAVIsolate@v8@@V?$queue@PAVTask@v8@@V?$deque@PAVTask@v8@@V?$allocator@PAVTask@v8@@@std@@@std@@@std@@U?$less@PAVIsolate@v8@@@4@V?$allocator@U?$pair@QAVIsolate@v8@@V?$queue@PAVTask@v8@@V?$deque@PAVTask@v8@@V?$allocator@PAVTask@v8@@@std@@@std@@@std@@@std@@@4@$0A@@std@@@std@@IBEAAPAU?$_Tree_node@U?$pair@QAVIsolate@v8@@V?$queue@PAVTask@v8@@V?$deque@PAVTask@v8@@V?$allocator@PAVTask@v8@@@std@@@std@@@std@@@std@@PAX@2@XZ 1002c480 f i v8_libplatform:default-platform.obj
 0001:0002b4a0       ?_Lrotate@?$_Tree@V?$_Tmap_traits@PAVIsolate@v8@@V?$queue@PAVTask@v8@@V?$deque@PAVTask@v8@@V?$allocator@PAVTask@v8@@@std@@@std@@@std@@U?$less@PAVIsolate@v8@@@4@V?$allocator@U?$pair@QAVIsolate@v8@@V?$queue@PAVTask@v8@@V?$deque@PAVTask@v8@@V?$allocator@PAVTask@v8@@@std@@@std@@@std@@@std@@@4@$0A@@std@@@std@@IAEXPAU?$_Tree_node@U?$pair@QAVIsolate@v8@@V?$queue@PAVTask@v8@@V?$deque@PAVTask@v8@@V?$allocator@PAVTask@v8@@@std@@@std@@@std@@@std@@PAX@2@@Z 1002c4a0 f i v8_libplatform:default-platform.obj
 0001:0002b5d0       ?_Max@?$_Tree_val@U?$_Tree_simple_types@U?$pair@QAVIsolate@v8@@V?$queue@PAVTask@v8@@V?$deque@PAVTask@v8@@V?$allocator@PAVTask@v8@@@std@@@std@@@std@@@std@@@std@@@std@@SAPAU?$_Tree_node@U?$pair@QAVIsolate@v8@@V?$queue@PAVTask@v8@@V?$deque@PAVTask@v8@@V?$allocator@PAVTask@v8@@@std@@@std@@@std@@@std@@PAX@2@PAU32@@Z 1002c5d0 f i v8_libplatform:default-platform.obj
 0001:0002b610       ?_Min@?$_Tree_val@U?$_Tree_simple_types@U?$pair@QAVIsolate@v8@@V?$queue@PAVTask@v8@@V?$deque@PAVTask@v8@@V?$allocator@PAVTask@v8@@@std@@@std@@@std@@@std@@@std@@@std@@SAPAU?$_Tree_node@U?$pair@QAVIsolate@v8@@V?$queue@PAVTask@v8@@V?$deque@PAVTask@v8@@V?$allocator@PAVTask@v8@@@std@@@std@@@std@@@std@@PAX@2@PAU32@@Z 1002c610 f i v8_libplatform:default-platform.obj
 0001:0002b650       ?_Mynode@?$_Tree_unchecked_const_iterator@V?$_Tree_val@U?$_Tree_simple_types@U?$pair@QAVIsolate@v8@@V?$queue@PAVTask@v8@@V?$deque@PAVTask@v8@@V?$allocator@PAVTask@v8@@@std@@@std@@@std@@@std@@@std@@@std@@U_Iterator_base12@2@@std@@QBEPAU?$_Tree_node@U?$pair@QAVIsolate@v8@@V?$queue@PAVTask@v8@@V?$deque@PAVTask@v8@@V?$allocator@PAVTask@v8@@@std@@@std@@@std@@@std@@PAX@2@XZ 1002c650 f i v8_libplatform:default-platform.obj
 0001:0002b670       ?_Myptr@?$_String_val@U?$_Simple_types@D@std@@@std@@QAEPADXZ 1002c670 f i v8_libplatform:default-platform.obj
 0001:0002b6b0       ?_Myptr@?$_String_val@U?$_Simple_types@D@std@@@std@@QBEPBDXZ 1002c6b0 f i v8_libplatform:default-platform.obj
 0001:0002b6f0       ?_Myval@?$_Tree_val@U?$_Tree_simple_types@U?$pair@QAVIsolate@v8@@V?$queue@PAVTask@v8@@V?$deque@PAVTask@v8@@V?$allocator@PAVTask@v8@@@std@@@std@@@std@@@std@@@std@@@std@@SAAAU?$pair@QAVIsolate@v8@@V?$queue@PAVTask@v8@@V?$deque@PAVTask@v8@@V?$allocator@PAVTask@v8@@@std@@@std@@@std@@@2@PAU?$_Tree_node@U?$pair@QAVIsolate@v8@@V?$queue@PAVTask@v8@@V?$deque@PAVTask@v8@@V?$allocator@PAVTask@v8@@@std@@@std@@@std@@@std@@PAX@2@@Z 1002c6f0 f i v8_libplatform:default-platform.obj
 0001:0002b700       ?_Orphan_off@?$deque@PAVTask@v8@@V?$allocator@PAVTask@v8@@@std@@@std@@IBEXI@Z 1002c700 f i v8_libplatform:default-platform.obj
 0001:0002b800       ?_Orphan_ptr@?$_Tree@V?$_Tmap_traits@PAVIsolate@v8@@V?$queue@PAVTask@v8@@V?$deque@PAVTask@v8@@V?$allocator@PAVTask@v8@@@std@@@std@@@std@@U?$less@PAVIsolate@v8@@@4@V?$allocator@U?$pair@QAVIsolate@v8@@V?$queue@PAVTask@v8@@V?$deque@PAVTask@v8@@V?$allocator@PAVTask@v8@@@std@@@std@@@std@@@std@@@4@$0A@@std@@@std@@IBEXAAV12@PAU?$_Tree_node@U?$pair@QAVIsolate@v8@@V?$queue@PAVTask@v8@@V?$deque@PAVTask@v8@@V?$allocator@PAVTask@v8@@@std@@@std@@@std@@@std@@PAX@2@@Z 1002c800 f i v8_libplatform:default-platform.obj
 0001:0002b8d0       ?_Orphan_range@?$vector@PAVWorkerThread@platform@v8@@V?$allocator@PAVWorkerThread@platform@v8@@@std@@@std@@IBEXPAPAVWorkerThread@platform@v8@@0@Z 1002c8d0 f i v8_libplatform:default-platform.obj
 0001:0002b990       ?_Parent@?$_Tree_val@U?$_Tree_simple_types@U?$pair@QAVIsolate@v8@@V?$queue@PAVTask@v8@@V?$deque@PAVTask@v8@@V?$allocator@PAVTask@v8@@@std@@@std@@@std@@@std@@@std@@@std@@SAAAPAU?$_Tree_node@U?$pair@QAVIsolate@v8@@V?$queue@PAVTask@v8@@V?$deque@PAVTask@v8@@V?$allocator@PAVTask@v8@@@std@@@std@@@std@@@std@@PAX@2@PAU32@@Z 1002c990 f i v8_libplatform:default-platform.obj
 0001:0002b9a0       ?_Reallocate@?$vector@PAVWorkerThread@platform@v8@@V?$allocator@PAVWorkerThread@platform@v8@@@std@@@std@@IAEXI@Z 1002c9a0 f i v8_libplatform:default-platform.obj
 0001:0002bae0       ?_Reserve@?$vector@PAVWorkerThread@platform@v8@@V?$allocator@PAVWorkerThread@platform@v8@@@std@@@std@@IAEXI@Z 1002cae0 f i v8_libplatform:default-platform.obj
 0001:0002bb40       ?_Right@?$_Tree_val@U?$_Tree_simple_types@U?$pair@QAVIsolate@v8@@V?$queue@PAVTask@v8@@V?$deque@PAVTask@v8@@V?$allocator@PAVTask@v8@@@std@@@std@@@std@@@std@@@std@@@std@@SAAAPAU?$_Tree_node@U?$pair@QAVIsolate@v8@@V?$queue@PAVTask@v8@@V?$deque@PAVTask@v8@@V?$allocator@PAVTask@v8@@@std@@@std@@@std@@@std@@PAX@2@PAU32@@Z 1002cb40 f i v8_libplatform:default-platform.obj
 0001:0002bb50       ?_Rmost@?$_Tree@V?$_Tmap_traits@PAVIsolate@v8@@V?$queue@PAVTask@v8@@V?$deque@PAVTask@v8@@V?$allocator@PAVTask@v8@@@std@@@std@@@std@@U?$less@PAVIsolate@v8@@@4@V?$allocator@U?$pair@QAVIsolate@v8@@V?$queue@PAVTask@v8@@V?$deque@PAVTask@v8@@V?$allocator@PAVTask@v8@@@std@@@std@@@std@@@std@@@4@$0A@@std@@@std@@IBEAAPAU?$_Tree_node@U?$pair@QAVIsolate@v8@@V?$queue@PAVTask@v8@@V?$deque@PAVTask@v8@@V?$allocator@PAVTask@v8@@@std@@@std@@@std@@@std@@PAX@2@XZ 1002cb50 f i v8_libplatform:default-platform.obj
 0001:0002bb70       ?_Root@?$_Tree@V?$_Tmap_traits@PAVIsolate@v8@@V?$queue@PAVTask@v8@@V?$deque@PAVTask@v8@@V?$allocator@PAVTask@v8@@@std@@@std@@@std@@U?$less@PAVIsolate@v8@@@4@V?$allocator@U?$pair@QAVIsolate@v8@@V?$queue@PAVTask@v8@@V?$deque@PAVTask@v8@@V?$allocator@PAVTask@v8@@@std@@@std@@@std@@@std@@@4@$0A@@std@@@std@@IBEAAPAU?$_Tree_node@U?$pair@QAVIsolate@v8@@V?$queue@PAVTask@v8@@V?$deque@PAVTask@v8@@V?$allocator@PAVTask@v8@@@std@@@std@@@std@@@std@@PAX@2@XZ 1002cb70 f i v8_libplatform:default-platform.obj
 0001:0002bb90       ?_Rrotate@?$_Tree@V?$_Tmap_traits@PAVIsolate@v8@@V?$queue@PAVTask@v8@@V?$deque@PAVTask@v8@@V?$allocator@PAVTask@v8@@@std@@@std@@@std@@U?$less@PAVIsolate@v8@@@4@V?$allocator@U?$pair@QAVIsolate@v8@@V?$queue@PAVTask@v8@@V?$deque@PAVTask@v8@@V?$allocator@PAVTask@v8@@@std@@@std@@@std@@@std@@@4@$0A@@std@@@std@@IAEXPAU?$_Tree_node@U?$pair@QAVIsolate@v8@@V?$queue@PAVTask@v8@@V?$deque@PAVTask@v8@@V?$allocator@PAVTask@v8@@@std@@@std@@@std@@@std@@PAX@2@@Z 1002cb90 f i v8_libplatform:default-platform.obj
 0001:0002bcc0       ?_Setcont@?$_Deque_const_iterator@V?$_Deque_val@U?$_Deque_simple_types@PAVTask@v8@@@std@@@std@@@std@@QAEXPBV?$_Deque_val@U?$_Deque_simple_types@PAVTask@v8@@@std@@@2@@Z 1002ccc0 f i v8_libplatform:default-platform.obj
 0001:0002bce0       ?_Tidy@?$_Tree@V?$_Tmap_traits@PAVIsolate@v8@@V?$queue@PAVTask@v8@@V?$deque@PAVTask@v8@@V?$allocator@PAVTask@v8@@@std@@@std@@@std@@U?$less@PAVIsolate@v8@@@4@V?$allocator@U?$pair@QAVIsolate@v8@@V?$queue@PAVTask@v8@@V?$deque@PAVTask@v8@@V?$allocator@PAVTask@v8@@@std@@@std@@@std@@@std@@@4@$0A@@std@@@std@@IAEXXZ 1002cce0 f i v8_libplatform:default-platform.obj
 0001:0002bdc0       ?_Tidy@?$basic_string@DU?$char_traits@D@std@@V?$allocator@D@2@@std@@QAEX_NI@Z 1002cdc0 f i v8_libplatform:default-platform.obj
 0001:0002be70       ?_Tidy@?$deque@PAVTask@v8@@V?$allocator@PAVTask@v8@@@std@@@std@@IAEXXZ 1002ce70 f i v8_libplatform:default-platform.obj
 0001:0002bf50       ?_Tidy@?$vector@PAVWorkerThread@platform@v8@@V?$allocator@PAVWorkerThread@platform@v8@@@std@@@std@@IAEXXZ 1002cf50 f i v8_libplatform:default-platform.obj
 0001:0002bfd0       ?_Unused_capacity@?$vector@PAVWorkerThread@platform@v8@@V?$allocator@PAVWorkerThread@platform@v8@@@std@@@std@@QBEIXZ 1002cfd0 f i v8_libplatform:default-platform.obj
 0001:0002c000       ?_Xlen@?$basic_string@DU?$char_traits@D@std@@V?$allocator@D@2@@std@@QBEXXZ 1002d000 f i v8_libplatform:default-platform.obj
 0001:0002c020       ?_Xlen@?$deque@PAVTask@v8@@V?$allocator@PAVTask@v8@@@std@@@std@@IBEXXZ 1002d020 f i v8_libplatform:default-platform.obj
 0001:0002c040       ?_Xlen@?$vector@PAVWorkerThread@platform@v8@@V?$allocator@PAVWorkerThread@platform@v8@@@std@@@std@@IBEXXZ 1002d040 f i v8_libplatform:default-platform.obj
 0001:0002c060       ?_Xran@?$basic_string@DU?$char_traits@D@std@@V?$allocator@D@2@@std@@QBEXXZ 1002d060 f i v8_libplatform:default-platform.obj
 0001:0002c080       ?allocate@?$_Wrap_alloc@V?$allocator@D@std@@@std@@QAEPADI@Z 1002d080 f i v8_libplatform:default-platform.obj
 0001:0002c0a0       ?allocate@?$_Wrap_alloc@V?$allocator@PAPAVTask@v8@@@std@@@std@@QAEPAPAPAVTask@v8@@I@Z 1002d0a0 f i v8_libplatform:default-platform.obj
 0001:0002c0c0       ?allocate@?$_Wrap_alloc@V?$allocator@PAVTask@v8@@@std@@@std@@QAEPAPAVTask@v8@@I@Z 1002d0c0 f i v8_libplatform:default-platform.obj
 0001:0002c0e0       ?allocate@?$_Wrap_alloc@V?$allocator@PAVWorkerThread@platform@v8@@@std@@@std@@QAEPAPAVWorkerThread@platform@v8@@I@Z 1002d0e0 f i v8_libplatform:default-platform.obj
 0001:0002c100       ?allocate@?$_Wrap_alloc@V?$allocator@U?$_Tree_node@U?$pair@QAVIsolate@v8@@V?$queue@PAVTask@v8@@V?$deque@PAVTask@v8@@V?$allocator@PAVTask@v8@@@std@@@std@@@std@@@std@@PAX@std@@@std@@@std@@QAEPAU?$_Tree_node@U?$pair@QAVIsolate@v8@@V?$queue@PAVTask@v8@@V?$deque@PAVTask@v8@@V?$allocator@PAVTask@v8@@@std@@@std@@@std@@@std@@PAX@2@I@Z 1002d100 f i v8_libplatform:default-platform.obj
 0001:0002c120       ?allocate@?$allocator@D@std@@QAEPADI@Z 1002d120 f i v8_libplatform:default-platform.obj
 0001:0002c140       ?allocate@?$allocator@PAPAVTask@v8@@@std@@QAEPAPAPAVTask@v8@@I@Z 1002d140 f i v8_libplatform:default-platform.obj
 0001:0002c160       ?allocate@?$allocator@PAVTask@v8@@@std@@QAEPAPAVTask@v8@@I@Z 1002d160 f i v8_libplatform:default-platform.obj
 0001:0002c180       ?allocate@?$allocator@PAVWorkerThread@platform@v8@@@std@@QAEPAPAVWorkerThread@platform@v8@@I@Z 1002d180 f i v8_libplatform:default-platform.obj
 0001:0002c1a0       ?allocate@?$allocator@U?$_Tree_node@U?$pair@QAVIsolate@v8@@V?$queue@PAVTask@v8@@V?$deque@PAVTask@v8@@V?$allocator@PAVTask@v8@@@std@@@std@@@std@@@std@@PAX@std@@@std@@QAEPAU?$_Tree_node@U?$pair@QAVIsolate@v8@@V?$queue@PAVTask@v8@@V?$deque@PAVTask@v8@@V?$allocator@PAVTask@v8@@@std@@@std@@@std@@@std@@PAX@2@I@Z 1002d1a0 f i v8_libplatform:default-platform.obj
 0001:0002c1c0       ?assign@?$basic_string@DU?$char_traits@D@std@@V?$allocator@D@2@@std@@QAEAAV12@ABV12@II@Z 1002d1c0 f i v8_libplatform:default-platform.obj
 0001:0002c270       ?assign@?$basic_string@DU?$char_traits@D@std@@V?$allocator@D@2@@std@@QAEAAV12@PBD@Z 1002d270 f i v8_libplatform:default-platform.obj
 0001:0002c2b0       ?assign@?$basic_string@DU?$char_traits@D@std@@V?$allocator@D@2@@std@@QAEAAV12@PBDI@Z 1002d2b0 f i v8_libplatform:default-platform.obj
 0001:0002c350       ?assign@?$char_traits@D@std@@SAXAADABD@Z 1002d350 f i v8_libplatform:default-platform.obj
 0001:0002c360       ?begin@?$_Tree@V?$_Tmap_traits@PAVIsolate@v8@@V?$queue@PAVTask@v8@@V?$deque@PAVTask@v8@@V?$allocator@PAVTask@v8@@@std@@@std@@@std@@U?$less@PAVIsolate@v8@@@4@V?$allocator@U?$pair@QAVIsolate@v8@@V?$queue@PAVTask@v8@@V?$deque@PAVTask@v8@@V?$allocator@PAVTask@v8@@@std@@@std@@@std@@@std@@@4@$0A@@std@@@std@@QAE?AV?$_Tree_iterator@V?$_Tree_val@U?$_Tree_simple_types@U?$pair@QAVIsolate@v8@@V?$queue@PAVTask@v8@@V?$deque@PAVTask@v8@@V?$allocator@PAVTask@v8@@@std@@@std@@@std@@@std@@@std@@@std@@@2@XZ 1002d360 f i v8_libplatform:default-platform.obj
 0001:0002c390       ?begin@?$deque@PAVTask@v8@@V?$allocator@PAVTask@v8@@@std@@@std@@QAE?AV?$_Deque_iterator@V?$_Deque_val@U?$_Deque_simple_types@PAVTask@v8@@@std@@@std@@@2@XZ 1002d390 f i v8_libplatform:default-platform.obj
 0001:0002c3c0       ?begin@?$vector@PAVWorkerThread@platform@v8@@V?$allocator@PAVWorkerThread@platform@v8@@@std@@@std@@QAE?AV?$_Vector_iterator@V?$_Vector_val@U?$_Simple_types@PAVWorkerThread@platform@v8@@@std@@@std@@@2@XZ 1002d3c0 f i v8_libplatform:default-platform.obj
 0001:0002c3f0       ?capacity@?$vector@PAVWorkerThread@platform@v8@@V?$allocator@PAVWorkerThread@platform@v8@@@std@@@std@@QBEIXZ 1002d3f0 f i v8_libplatform:default-platform.obj
 0001:0002c410       ?category@error_code@std@@QBEABVerror_category@2@XZ 1002d410 f i v8_libplatform:default-platform.obj
 0001:0002c430       ?category@error_condition@std@@QBEABVerror_category@2@XZ 1002d430 f i v8_libplatform:default-platform.obj
 0001:0002c450       ?clear@?$_Tree@V?$_Tmap_traits@PAVIsolate@v8@@V?$queue@PAVTask@v8@@V?$deque@PAVTask@v8@@V?$allocator@PAVTask@v8@@@std@@@std@@@std@@U?$less@PAVIsolate@v8@@@4@V?$allocator@U?$pair@QAVIsolate@v8@@V?$queue@PAVTask@v8@@V?$deque@PAVTask@v8@@V?$allocator@PAVTask@v8@@@std@@@std@@@std@@@std@@@4@$0A@@std@@@std@@QAEXXZ 1002d450 f i v8_libplatform:default-platform.obj
 0001:0002c4c0       ?construct@?$allocator@PAVTask@v8@@@std@@QAEXPAPAVTask@v8@@ABQAV34@@Z 1002d4c0 f i v8_libplatform:default-platform.obj
 0001:0002c500       ?copy@?$char_traits@D@std@@SAPADPADPBDI@Z 1002d500 f i v8_libplatform:default-platform.obj
 0001:0002c530       ?deallocate@?$_Wrap_alloc@V?$allocator@D@std@@@std@@QAEXPADI@Z 1002d530 f i v8_libplatform:default-platform.obj
 0001:0002c550       ?deallocate@?$_Wrap_alloc@V?$allocator@PAPAVTask@v8@@@std@@@std@@QAEXPAPAPAVTask@v8@@I@Z 1002d550 f i v8_libplatform:default-platform.obj
 0001:0002c570       ?deallocate@?$_Wrap_alloc@V?$allocator@PAVTask@v8@@@std@@@std@@QAEXPAPAVTask@v8@@I@Z 1002d570 f i v8_libplatform:default-platform.obj
 0001:0002c590       ?deallocate@?$_Wrap_alloc@V?$allocator@PAVWorkerThread@platform@v8@@@std@@@std@@QAEXPAPAVWorkerThread@platform@v8@@I@Z 1002d590 f i v8_libplatform:default-platform.obj
 0001:0002c5b0       ?deallocate@?$_Wrap_alloc@V?$allocator@U?$_Tree_node@U?$pair@QAVIsolate@v8@@V?$queue@PAVTask@v8@@V?$deque@PAVTask@v8@@V?$allocator@PAVTask@v8@@@std@@@std@@@std@@@std@@PAX@std@@@std@@@std@@QAEXPAU?$_Tree_node@U?$pair@QAVIsolate@v8@@V?$queue@PAVTask@v8@@V?$deque@PAVTask@v8@@V?$allocator@PAVTask@v8@@@std@@@std@@@std@@@std@@PAX@2@I@Z 1002d5b0 f i v8_libplatform:default-platform.obj
 0001:0002c5d0       ?deallocate@?$allocator@D@std@@QAEXPADI@Z 1002d5d0 f i v8_libplatform:default-platform.obj
 0001:0002c5f0       ?deallocate@?$allocator@PAPAVTask@v8@@@std@@QAEXPAPAPAVTask@v8@@I@Z 1002d5f0 f i v8_libplatform:default-platform.obj
 0001:0002c610       ?deallocate@?$allocator@PAVTask@v8@@@std@@QAEXPAPAVTask@v8@@I@Z 1002d610 f i v8_libplatform:default-platform.obj
 0001:0002c630       ?deallocate@?$allocator@PAVWorkerThread@platform@v8@@@std@@QAEXPAPAVWorkerThread@platform@v8@@I@Z 1002d630 f i v8_libplatform:default-platform.obj
 0001:0002c650       ?deallocate@?$allocator@U?$_Tree_node@U?$pair@QAVIsolate@v8@@V?$queue@PAVTask@v8@@V?$deque@PAVTask@v8@@V?$allocator@PAVTask@v8@@@std@@@std@@@std@@@std@@PAX@std@@@std@@QAEXPAU?$_Tree_node@U?$pair@QAVIsolate@v8@@V?$queue@PAVTask@v8@@V?$deque@PAVTask@v8@@V?$allocator@PAVTask@v8@@@std@@@std@@@std@@@std@@PAX@2@I@Z 1002d650 f i v8_libplatform:default-platform.obj
 0001:0002c670       ?default_error_condition@_System_error_category@std@@UBE?AVerror_condition@2@H@Z 1002d670 f i v8_libplatform:default-platform.obj
 0001:0002c6c0       ?default_error_condition@error_category@std@@UBE?AVerror_condition@2@H@Z 1002d6c0 f i v8_libplatform:default-platform.obj
 0001:0002c6e0       ?empty@?$deque@PAVTask@v8@@V?$allocator@PAVTask@v8@@@std@@@std@@QBE_NXZ 1002d6e0 f i v8_libplatform:default-platform.obj
 0001:0002c710       ?empty@?$queue@PAVTask@v8@@V?$deque@PAVTask@v8@@V?$allocator@PAVTask@v8@@@std@@@std@@@std@@QBE_NXZ 1002d710 f i v8_libplatform:default-platform.obj
 0001:0002c730       ?end@?$_Tree@V?$_Tmap_traits@PAVIsolate@v8@@V?$queue@PAVTask@v8@@V?$deque@PAVTask@v8@@V?$allocator@PAVTask@v8@@@std@@@std@@@std@@U?$less@PAVIsolate@v8@@@4@V?$allocator@U?$pair@QAVIsolate@v8@@V?$queue@PAVTask@v8@@V?$deque@PAVTask@v8@@V?$allocator@PAVTask@v8@@@std@@@std@@@std@@@std@@@4@$0A@@std@@@std@@QAE?AV?$_Tree_iterator@V?$_Tree_val@U?$_Tree_simple_types@U?$pair@QAVIsolate@v8@@V?$queue@PAVTask@v8@@V?$deque@PAVTask@v8@@V?$allocator@PAVTask@v8@@@std@@@std@@@std@@@std@@@std@@@std@@@2@XZ 1002d730 f i v8_libplatform:default-platform.obj
 0001:0002c760       ?end@?$vector@PAVWorkerThread@platform@v8@@V?$allocator@PAVWorkerThread@platform@v8@@@std@@@std@@QAE?AV?$_Vector_iterator@V?$_Vector_val@U?$_Simple_types@PAVWorkerThread@platform@v8@@@std@@@std@@@2@XZ 1002d760 f i v8_libplatform:default-platform.obj
 0001:0002c790       ?equivalent@error_category@std@@UBE_NABVerror_code@2@H@Z 1002d790 f i v8_libplatform:default-platform.obj
 0001:0002c7e0       ?equivalent@error_category@std@@UBE_NHABVerror_condition@2@@Z 1002d7e0 f i v8_libplatform:default-platform.obj
 0001:0002c810       ?erase@?$_Tree@V?$_Tmap_traits@PAVIsolate@v8@@V?$queue@PAVTask@v8@@V?$deque@PAVTask@v8@@V?$allocator@PAVTask@v8@@@std@@@std@@@std@@U?$less@PAVIsolate@v8@@@4@V?$allocator@U?$pair@QAVIsolate@v8@@V?$queue@PAVTask@v8@@V?$deque@PAVTask@v8@@V?$allocator@PAVTask@v8@@@std@@@std@@@std@@@std@@@4@$0A@@std@@@std@@QAE?AV?$_Tree_iterator@V?$_Tree_val@U?$_Tree_simple_types@U?$pair@QAVIsolate@v8@@V?$queue@PAVTask@v8@@V?$deque@PAVTask@v8@@V?$allocator@PAVTask@v8@@@std@@@std@@@std@@@std@@@std@@@std@@@2@V?$_Tree_const_iterator@V?$_Tree_val@U?$_Tree_simple_types@U?$pair@QAVIsolate@v8@@V?$queue@PAVTask@v8@@V?$deque@PAVTask@v8@@V?$allocator@PAVTask@v8@@@std@@@std@@@std@@@std@@@std@@@std@@@2@0@Z 1002d810 f i v8_libplatform:default-platform.obj
 0001:0002c9f0       ?erase@?$_Tree@V?$_Tmap_traits@PAVIsolate@v8@@V?$queue@PAVTask@v8@@V?$deque@PAVTask@v8@@V?$allocator@PAVTask@v8@@@std@@@std@@@std@@U?$less@PAVIsolate@v8@@@4@V?$allocator@U?$pair@QAVIsolate@v8@@V?$queue@PAVTask@v8@@V?$deque@PAVTask@v8@@V?$allocator@PAVTask@v8@@@std@@@std@@@std@@@std@@@4@$0A@@std@@@std@@QAE?AV?$_Tree_iterator@V?$_Tree_val@U?$_Tree_simple_types@U?$pair@QAVIsolate@v8@@V?$queue@PAVTask@v8@@V?$deque@PAVTask@v8@@V?$allocator@PAVTask@v8@@@std@@@std@@@std@@@std@@@std@@@std@@@2@V?$_Tree_const_iterator@V?$_Tree_val@U?$_Tree_simple_types@U?$pair@QAVIsolate@v8@@V?$queue@PAVTask@v8@@V?$deque@PAVTask@v8@@V?$allocator@PAVTask@v8@@@std@@@std@@@std@@@std@@@std@@@std@@@2@@Z 1002d9f0 f i v8_libplatform:default-platform.obj
 0001:0002d200       ?erase@?$basic_string@DU?$char_traits@D@std@@V?$allocator@D@2@@std@@QAEAAV12@I@Z 1002e200 f i v8_libplatform:default-platform.obj
 0001:0002d230       ?erase@?$basic_string@DU?$char_traits@D@std@@V?$allocator@D@2@@std@@QAEAAV12@II@Z 1002e230 f i v8_libplatform:default-platform.obj
 0001:0002d2c0       ?front@?$deque@PAVTask@v8@@V?$allocator@PAVTask@v8@@@std@@@std@@QAEAAPAVTask@v8@@XZ 1002e2c0 f i v8_libplatform:default-platform.obj
 0001:0002d330       ?front@?$queue@PAVTask@v8@@V?$deque@PAVTask@v8@@V?$allocator@PAVTask@v8@@@std@@@std@@@std@@QAEAAPAVTask@v8@@XZ 1002e330 f i v8_libplatform:default-platform.obj
 0001:0002d350       ?generic_category@std@@YAABVerror_category@1@XZ 1002e350 f i v8_libplatform:default-platform.obj
 0001:0002d360       ?length@?$char_traits@D@std@@SAIPBD@Z 1002e360 f i v8_libplatform:default-platform.obj
 0001:0002d390       ?lower_bound@?$_Tree@V?$_Tmap_traits@PAVIsolate@v8@@V?$queue@PAVTask@v8@@V?$deque@PAVTask@v8@@V?$allocator@PAVTask@v8@@@std@@@std@@@std@@U?$less@PAVIsolate@v8@@@4@V?$allocator@U?$pair@QAVIsolate@v8@@V?$queue@PAVTask@v8@@V?$deque@PAVTask@v8@@V?$allocator@PAVTask@v8@@@std@@@std@@@std@@@std@@@4@$0A@@std@@@std@@QAE?AV?$_Tree_iterator@V?$_Tree_val@U?$_Tree_simple_types@U?$pair@QAVIsolate@v8@@V?$queue@PAVTask@v8@@V?$deque@PAVTask@v8@@V?$allocator@PAVTask@v8@@@std@@@std@@@std@@@std@@@std@@@std@@@2@ABQAVIsolate@v8@@@Z 1002e390 f i v8_libplatform:default-platform.obj
 0001:0002d3d0       ?max_size@?$_Tree@V?$_Tmap_traits@PAVIsolate@v8@@V?$queue@PAVTask@v8@@V?$deque@PAVTask@v8@@V?$allocator@PAVTask@v8@@@std@@@std@@@std@@U?$less@PAVIsolate@v8@@@4@V?$allocator@U?$pair@QAVIsolate@v8@@V?$queue@PAVTask@v8@@V?$deque@PAVTask@v8@@V?$allocator@PAVTask@v8@@@std@@@std@@@std@@@std@@@4@$0A@@std@@@std@@QBEIXZ 1002e3d0 f i v8_libplatform:default-platform.obj
 0001:0002d3f0       ?max_size@?$_Wrap_alloc@V?$allocator@D@std@@@std@@QBEIXZ 1002e3f0 f i v8_libplatform:default-platform.obj
 0001:0002d410       ?max_size@?$_Wrap_alloc@V?$allocator@PAVTask@v8@@@std@@@std@@QBEIXZ 1002e410 f i v8_libplatform:default-platform.obj
 0001:0002d430       ?max_size@?$_Wrap_alloc@V?$allocator@PAVWorkerThread@platform@v8@@@std@@@std@@QBEIXZ 1002e430 f i v8_libplatform:default-platform.obj
 0001:0002d450       ?max_size@?$_Wrap_alloc@V?$allocator@U?$_Tree_node@U?$pair@QAVIsolate@v8@@V?$queue@PAVTask@v8@@V?$deque@PAVTask@v8@@V?$allocator@PAVTask@v8@@@std@@@std@@@std@@@std@@PAX@std@@@std@@@std@@QBEIXZ 1002e450 f i v8_libplatform:default-platform.obj
 0001:0002d470       ?max_size@?$allocator@D@std@@QBEIXZ 1002e470 f i v8_libplatform:default-platform.obj
 0001:0002d480       ?max_size@?$allocator@PAVTask@v8@@@std@@QBEIXZ 1002e480 f i v8_libplatform:default-platform.obj
 0001:0002d490       ?max_size@?$allocator@PAVWorkerThread@platform@v8@@@std@@QBEIXZ 1002e490 f i v8_libplatform:default-platform.obj
 0001:0002d4a0       ?max_size@?$allocator@U?$_Tree_node@U?$pair@QAVIsolate@v8@@V?$queue@PAVTask@v8@@V?$deque@PAVTask@v8@@V?$allocator@PAVTask@v8@@@std@@@std@@@std@@@std@@PAX@std@@@std@@QBEIXZ 1002e4a0 f i v8_libplatform:default-platform.obj
 0001:0002d4b0       ?max_size@?$allocator_traits@V?$allocator@D@std@@@std@@SAIABV?$allocator@D@2@@Z 1002e4b0 f i v8_libplatform:default-platform.obj
 0001:0002d4c0       ?max_size@?$allocator_traits@V?$allocator@PAVTask@v8@@@std@@@std@@SAIABV?$allocator@PAVTask@v8@@@2@@Z 1002e4c0 f i v8_libplatform:default-platform.obj
 0001:0002d4d0       ?max_size@?$allocator_traits@V?$allocator@PAVWorkerThread@platform@v8@@@std@@@std@@SAIABV?$allocator@PAVWorkerThread@platform@v8@@@2@@Z 1002e4d0 f i v8_libplatform:default-platform.obj
 0001:0002d4e0       ?max_size@?$allocator_traits@V?$allocator@U?$_Tree_node@U?$pair@QAVIsolate@v8@@V?$queue@PAVTask@v8@@V?$deque@PAVTask@v8@@V?$allocator@PAVTask@v8@@@std@@@std@@@std@@@std@@PAX@std@@@std@@@std@@SAIABV?$allocator@U?$_Tree_node@U?$pair@QAVIsolate@v8@@V?$queue@PAVTask@v8@@V?$deque@PAVTask@v8@@V?$allocator@PAVTask@v8@@@std@@@std@@@std@@@std@@PAX@std@@@2@@Z 1002e4e0 f i v8_libplatform:default-platform.obj
 0001:0002d4f0       ?max_size@?$basic_string@DU?$char_traits@D@std@@V?$allocator@D@2@@std@@QBEIXZ 1002e4f0 f i v8_libplatform:default-platform.obj
 0001:0002d530       ?max_size@?$deque@PAVTask@v8@@V?$allocator@PAVTask@v8@@@std@@@std@@QBEIXZ 1002e530 f i v8_libplatform:default-platform.obj
 0001:0002d550       ?max_size@?$vector@PAVWorkerThread@platform@v8@@V?$allocator@PAVWorkerThread@platform@v8@@@std@@@std@@QBEIXZ 1002e550 f i v8_libplatform:default-platform.obj
 0001:0002d570       ?message@_Generic_error_category@std@@UBE?AV?$basic_string@DU?$char_traits@D@std@@V?$allocator@D@2@@2@H@Z 1002e570 f i v8_libplatform:default-platform.obj
 0001:0002d5d0       ?message@_Iostream_error_category@std@@UBE?AV?$basic_string@DU?$char_traits@D@std@@V?$allocator@D@2@@2@H@Z 1002e5d0 f i v8_libplatform:default-platform.obj
 0001:0002d630       ?message@_System_error_category@std@@UBE?AV?$basic_string@DU?$char_traits@D@std@@V?$allocator@D@2@@2@H@Z 1002e630 f i v8_libplatform:default-platform.obj
 0001:0002d690       ?move@?$char_traits@D@std@@SAPADPADPBDI@Z 1002e690 f i v8_libplatform:default-platform.obj
 0001:0002d6d0       ?name@_Generic_error_category@std@@UBEPBDXZ 1002e6d0 f i v8_libplatform:default-platform.obj
 0001:0002d6e0       ?name@_Iostream_error_category@std@@UBEPBDXZ 1002e6e0 f i v8_libplatform:default-platform.obj
 0001:0002d6f0       ?name@_System_error_category@std@@UBEPBDXZ 1002e6f0 f i v8_libplatform:default-platform.obj
 0001:0002d700       ?pointer_to@?$pointer_traits@PAU?$pair@QAVIsolate@v8@@V?$queue@PAVTask@v8@@V?$deque@PAVTask@v8@@V?$allocator@PAVTask@v8@@@std@@@std@@@std@@@std@@@std@@SAPAU?$pair@QAVIsolate@v8@@V?$queue@PAVTask@v8@@V?$deque@PAVTask@v8@@V?$allocator@PAVTask@v8@@@std@@@std@@@std@@@2@AAU32@@Z 1002e700 f i v8_libplatform:default-platform.obj
 0001:0002d720       ?pop@?$queue@PAVTask@v8@@V?$deque@PAVTask@v8@@V?$allocator@PAVTask@v8@@@std@@@std@@@std@@QAEXXZ 1002e720 f i v8_libplatform:default-platform.obj
 0001:0002d740       ?pop_back@?$deque@PAVTask@v8@@V?$allocator@PAVTask@v8@@@std@@@std@@QAEXXZ 1002e740 f i v8_libplatform:default-platform.obj
 0001:0002d800       ?pop_front@?$deque@PAVTask@v8@@V?$allocator@PAVTask@v8@@@std@@@std@@QAEXXZ 1002e800 f i v8_libplatform:default-platform.obj
 0001:0002d8d0       ?push@?$queue@PAVTask@v8@@V?$deque@PAVTask@v8@@V?$allocator@PAVTask@v8@@@std@@@std@@@std@@QAEXABQAVTask@v8@@@Z 1002e8d0 f i v8_libplatform:default-platform.obj
 0001:0002d8f0       ?push_back@?$deque@PAVTask@v8@@V?$allocator@PAVTask@v8@@@std@@@std@@QAEXABQAVTask@v8@@@Z 1002e8f0 f i v8_libplatform:default-platform.obj
 0001:0002d9f0       ?push_back@?$vector@PAVWorkerThread@platform@v8@@V?$allocator@PAVWorkerThread@platform@v8@@@std@@@std@@QAEX$$QAPAVWorkerThread@platform@v8@@@Z 1002e9f0 f i v8_libplatform:default-platform.obj
 0001:0002db10       ?size@?$_Tree@V?$_Tmap_traits@PAVIsolate@v8@@V?$queue@PAVTask@v8@@V?$deque@PAVTask@v8@@V?$allocator@PAVTask@v8@@@std@@@std@@@std@@U?$less@PAVIsolate@v8@@@4@V?$allocator@U?$pair@QAVIsolate@v8@@V?$queue@PAVTask@v8@@V?$deque@PAVTask@v8@@V?$allocator@PAVTask@v8@@@std@@@std@@@std@@@std@@@4@$0A@@std@@@std@@QBEIXZ 1002eb10 f i v8_libplatform:default-platform.obj
 0001:0002db30       ?size@?$basic_string@DU?$char_traits@D@std@@V?$allocator@D@2@@std@@QBEIXZ 1002eb30 f i v8_libplatform:default-platform.obj
 0001:0002db50       ?size@?$vector@PAVWorkerThread@platform@v8@@V?$allocator@PAVWorkerThread@platform@v8@@@std@@@std@@QBEIXZ 1002eb50 f i v8_libplatform:default-platform.obj
 0001:0002db70       ?system_category@std@@YAABVerror_category@1@XZ 1002eb70 f i v8_libplatform:default-platform.obj
 0001:0002db80       ?value@error_code@std@@QBEHXZ 1002eb80 f i v8_libplatform:default-platform.obj
 0001:0002db90       ?value@error_condition@std@@QBEHXZ 1002eb90 f i v8_libplatform:default-platform.obj
 0001:0002dba0       ??0TaskQueue@platform@v8@@QAE@XZ 1002eba0 f   v8_libplatform:task-queue.obj
 0001:0002dc20       ??1TaskQueue@platform@v8@@QAE@XZ 1002ec20 f   v8_libplatform:task-queue.obj
 0001:0002dd00       ?Append@TaskQueue@platform@v8@@QAEXPAVTask@3@@Z 1002ed00 f   v8_libplatform:task-queue.obj
 0001:0002dda0       ?GetNext@TaskQueue@platform@v8@@QAEPAVTask@3@XZ 1002eda0 f   v8_libplatform:task-queue.obj
 0001:0002de90       ?Terminate@TaskQueue@platform@v8@@QAEXXZ 1002ee90 f   v8_libplatform:task-queue.obj
 0001:0002df30       ??0Options@Thread@base@v8@@QAE@PBDH@Z 1002ef30 f i v8_libplatform:worker-thread.obj
 0001:0002df60       ??0WorkerThread@platform@v8@@QAE@PAVTaskQueue@12@@Z 1002ef60 f   v8_libplatform:worker-thread.obj
 0001:0002dfe0       ??1WorkerThread@platform@v8@@UAE@XZ 1002efe0 f   v8_libplatform:worker-thread.obj
 0001:0002e040       ??_GWorkerThread@platform@v8@@UAEPAXI@Z 1002f040 f i v8_libplatform:worker-thread.obj
 0001:0002e040       ??_EWorkerThread@platform@v8@@UAEPAXI@Z 1002f040 f i v8_libplatform:worker-thread.obj
 0001:0002e070       ?Run@WorkerThread@platform@v8@@UAEXXZ 1002f070 f   v8_libplatform:worker-thread.obj
 0001:0002e0d0       ??_U@YAPAXI@Z              1002f0d0 f   msvcprtd:newaop_s.obj
 0001:0002e0e2       ??2@YAPAXI@Z               1002f0e2 f   MSVCRTD:MSVCR120D.dll
 0001:0002e0e8       ??3@YAXPAX@Z               1002f0e8 f   MSVCRTD:MSVCR120D.dll
 0001:0002e0ee       _memset                    1002f0ee f   MSVCRTD:MSVCR120D.dll
 0001:0002e0f4       ??_V@YAXPAX@Z              1002f0f4 f   MSVCRTD:MSVCR120D.dll
 0001:0002e0fa       ??0exception@std@@QAE@ABV01@@Z 1002f0fa f   MSVCRTD:MSVCR120D.dll
 0001:0002e100       ??1exception@std@@UAE@XZ   1002f100 f   MSVCRTD:MSVCR120D.dll
 0001:0002e110       @_RTC_CheckStackVars@8     1002f110 f   MSVCRTD:stack.obj
 0001:0002e170       __RTC_CheckEsp             1002f170 f   MSVCRTD:stack.obj
 0001:0002e1a0       @__security_check_cookie@4 1002f1a0 f   MSVCRTD:secchk.obj
 0001:0002e1b0       __CxxThrowException@8      1002f1b0 f   MSVCRTD:MSVCR120D.dll
 0001:0002e1b6       ___CxxFrameHandler3        1002f1b6 f   MSVCRTD:MSVCR120D.dll
 0001:0002e1c0       ??_Etype_info@@UAEPAXI@Z   1002f1c0 f i MSVCRTD:ti_inst.obj
 0001:0002e230       ___atonexitinit            1002f230 f   MSVCRTD:atonexit.obj
 0001:0002e2e0       __onexit                   1002f2e0 f   MSVCRTD:atonexit.obj
 0001:0002e3e0       _atexit                    1002f3e0 f   MSVCRTD:atonexit.obj
 0001:0002e490       _NtCurrentTeb              1002f490 f i MSVCRTD:crtdll.obj
 0001:0002e4a0       __CRT_INIT@12              1002f4a0 f   MSVCRTD:crtdll.obj
 0001:0002e780       __DllMainCRTStartup@12     1002f780 f   MSVCRTD:crtdll.obj
 0001:0002e970       __purecall                 1002f970 f   MSVCRTD:MSVCR120D.dll
 0001:0002e976       _memcpy                    1002f976 f   MSVCRTD:MSVCR120D.dll
 0001:0002e97c       _strlen                    1002f97c f   MSVCRTD:MSVCR120D.dll
 0001:0002eae0       ?_RTC_Failure@@YAXPAXH@Z   1002fae0 f   MSVCRTD:error.obj
 0001:0002eb30       ?_RTC_StackFailure@@YAXPAXPBD@Z 1002fb30 f   MSVCRTD:error.obj
 0001:0002ee40       ___raise_securityfailure   1002fe40 f   MSVCRTD:gs_report.obj
 0001:0002ee90       ___report_gsfailure        1002fe90 f   MSVCRTD:gs_report.obj
 0001:0002efa0       ?_RTC_GetErrorFunc@@YAP6AHHPBDH00ZZPBX@Z 1002ffa0 f   MSVCRTD:userapi.obj
 0001:0002efb0       ?_RTC_GetErrorFuncW@@YAP6AHHPB_WH00ZZPBX@Z 1002ffb0 f   MSVCRTD:userapi.obj
 0001:0002efc0       ??_M@YGXPAXIHP6EX0@Z@Z     1002ffc0 f   MSVCRTD:ehvecdtr.obj
 0001:0002f0a0       ?__ArrayUnwind@@YGXPAXIHP6EX0@Z@Z 100300a0 f   MSVCRTD:ehvecdtr.obj
 0001:0002f12a       ??1type_info@@UAE@XZ       1003012a f   MSVCRTD:MSVCR120D.dll
 0001:0002f130       __lock                     10030130 f   MSVCRTD:MSVCR120D.dll
 0001:0002f136       __unlock                   10030136 f   MSVCRTD:MSVCR120D.dll
 0001:0002f13c       ___dllonexit               1003013c f   MSVCRTD:MSVCR120D.dll
 0001:0002f150       __except_handler4          10030150 f   MSVCRTD:chandler4gs.obj
 0001:0002f178       ___CppXcptFilter           10030178 f   MSVCRTD:MSVCR120D.dll
 0001:0002f17e       __amsg_exit                1003017e f   MSVCRTD:MSVCR120D.dll
 0001:0002f190       __FindPESection            10030190 f   MSVCRTD:pesect.obj
 0001:0002f210       __IsNonwritableInCurrentImage 10030210 f   MSVCRTD:pesect.obj
 0001:0002f340       __ValidateImageBase        10030340 f   MSVCRTD:pesect.obj
 0001:0002f3a0       ___security_init_cookie    100303a0 f   MSVCRTD:gs_support.obj
 0001:0002f480       _DllMain@12                10030480 f   MSVCRTD:dllmain.obj
 0001:0002f4b0       __RTC_Initialize           100304b0 f   MSVCRTD:initsect.obj
 0001:0002f4e0       __RTC_Terminate            100304e0 f   MSVCRTD:initsect.obj
 0001:0002f506       __initterm                 10030506 f   MSVCRTD:MSVCR120D.dll
 0001:0002f50c       __initterm_e               1003050c f   MSVCRTD:MSVCR120D.dll
 0001:0002f520       ___clean_type_info_names   10030520 f   MSVCRTD:tncleanup.obj
 0001:0002f980       ?_RTC_GetSrcLine@@YAHPAEPA_WKPAH1K@Z 10030980 f   MSVCRTD:pdblkup.obj
 0001:0002fc2e       __crt_debugger_hook        10030c2e f   MSVCRTD:MSVCR120D.dll
 0001:0002fc34       ___crtUnhandledException   10030c34 f   MSVCRTD:MSVCR120D.dll
 0001:0002fc3a       ___crtTerminateProcess     10030c3a f   MSVCRTD:MSVCR120D.dll
 0001:0002fc40       ?terminate@@YAXXZ          10030c40 f   MSVCRTD:MSVCR120D.dll
 0001:0002fc46       __except_handler4_common   10030c46 f   MSVCRTD:MSVCR120D.dll
 0001:0002fc4c       ___clean_type_info_names_internal 10030c4c f   MSVCRTD:MSVCR120D.dll
 0001:0002fc52       _wcscpy_s                  10030c52 f   MSVCRTD:MSVCR120D.dll
 0001:0002fc58       __wmakepath_s              10030c58 f   MSVCRTD:MSVCR120D.dll
 0001:0002fc5e       __wsplitpath_s             10030c5e f   MSVCRTD:MSVCR120D.dll
 0001:0002fc70       ?DumpBacktrace@base@v8@@YAXXZ 10030c70 f   v8_libbase:logging.obj
 0001:0002fc80       _V8_Fatal                  10030c80 f   v8_libbase:logging.obj
 0001:0002fd20       ??0Mutex@base@v8@@QAE@XZ   10030d20 f   v8_libbase:mutex.obj
 0001:0002fd50       ??1Mutex@base@v8@@QAE@XZ   10030d50 f   v8_libbase:mutex.obj
 0001:0002fd90       ?AssertHeldAndUnmark@Mutex@base@v8@@AAEXXZ 10030d90 f i v8_libbase:mutex.obj
 0001:0002fdd0       ?AssertUnheldAndMark@Mutex@base@v8@@AAEXXZ 10030dd0 f i v8_libbase:mutex.obj
 0001:0002fe10       ?CheckEqualsHelper@@YAXPBDH0H0H@Z 10030e10 f i v8_libbase:mutex.obj
 0001:0002fe70       ?Lock@Mutex@base@v8@@QAEXXZ 10030e70 f   v8_libbase:mutex.obj
 0001:0002fea0       ?Unlock@Mutex@base@v8@@QAEXXZ 10030ea0 f   v8_libbase:mutex.obj
 0001:0002fed0       ?NumberOfProcessors@SysInfo@base@v8@@SAHXZ 10030ed0 f   v8_libbase:sys-info.obj
 0001:0002ff10       ??$USE@H@@YAXH@Z           10030f10 f i v8_libbase:semaphore.obj
 0001:0002ff20       ??$USE@K@@YAXK@Z           10030f20 f i v8_libbase:semaphore.obj
 0001:0002ff30       ??0Semaphore@base@v8@@QAE@H@Z 10030f30 f   v8_libbase:semaphore.obj
 0001:0002ffb0       ??1Semaphore@base@v8@@QAE@XZ 10030fb0 f   v8_libbase:semaphore.obj
 0001:00030000       ?Signal@Semaphore@base@v8@@QAEXXZ 10031000 f   v8_libbase:semaphore.obj
 0001:00030060       ?Wait@Semaphore@base@v8@@QAEXXZ 10031060 f   v8_libbase:semaphore.obj
 0001:000300b0       ??0PlatformData@Thread@base@v8@@QAE@PAX@Z 100310b0 f i v8_libbase:platform-win32.obj
 0001:000300d0       ??0Thread@base@v8@@QAE@ABVOptions@012@@Z 100310d0 f   v8_libbase:platform-win32.obj
 0001:00030190       ??1Thread@base@v8@@UAE@XZ  10031190 f   v8_libbase:platform-win32.obj
 0001:000301e0       ??_EThread@base@v8@@UAEPAXI@Z 100311e0 f i v8_libbase:platform-win32.obj
 0001:000301e0       ??_GThread@base@v8@@UAEPAXI@Z 100311e0 f i v8_libbase:platform-win32.obj
 0001:00030210       ?Abort@OS@base@v8@@SAXXZ   10031210 f   v8_libbase:platform-win32.obj
 0001:000302a0       ?Join@Thread@base@v8@@QAEXXZ 100312a0 f   v8_libbase:platform-win32.obj
 0001:000302d0       ?NotifyStartedAndRun@Thread@base@v8@@QAEXXZ 100312d0 f i v8_libbase:platform-win32.obj
 0001:00030300       ?PrintError@OS@base@v8@@SAXPBDZZ 10031300 f   v8_libbase:platform-win32.obj
 0001:00030330       ?Start@Thread@base@v8@@QAEXXZ 10031330 f   v8_libbase:platform-win32.obj
 0001:00030370       ?StrNCpy@OS@base@v8@@SAXPADHPBDI@Z 10031370 f   v8_libbase:platform-win32.obj
 0001:00030410       ?VPrintError@OS@base@v8@@SAXPBDPAD@Z 10031410 f   v8_libbase:platform-win32.obj
 0001:000304e0       ?VSNPrintF@OS@base@v8@@SAHPADHPBD0@Z 100314e0 f   v8_libbase:platform-win32.obj
 0001:00030530       ?name@Options@Thread@base@v8@@QBEPBDXZ 10031530 f i v8_libbase:platform-win32.obj
 0001:00030540       ?set_name@Thread@base@v8@@AAEXPBD@Z 10031540 f   v8_libbase:platform-win32.obj
 0001:00030580       ?stack_size@Options@Thread@base@v8@@QBEHXZ 10031580 f i v8_libbase:platform-win32.obj
 0001:00030592       _IsProcessorFeaturePresent@4 10031592 f   kernel32:KERNEL32.dll
 0001:000305a0       __alldiv                   100315a0 f   MSVCRTD:lldiv.obj
 0001:00030650       __allmul                   10031650 f   MSVCRTD:llmul.obj
 0001:00030690       __aulldiv                  10031690 f   MSVCRTD:ulldiv.obj
 0001:00030700       __aullrem                  10031700 f   MSVCRTD:ullrem.obj
 0001:00030780       __chkstk                   10031780 f   MSVCRTD:chkstk.obj
 0001:00030780       __alloca_probe             10031780 f   MSVCRTD:chkstk.obj
 0001:000307b0       __ftoui3                   100317b0 f   MSVCRTD:ftol3.obj
 0001:000307bf       __ftoul3                   100317bf f   MSVCRTD:ftol3.obj
 0001:000307ce       __ftol3                    100317ce f   MSVCRTD:ftol3.obj
 0001:000307db       __ftol3_NaN                100317db f   MSVCRTD:ftol3.obj
 0001:000307f3       __ftol3_work               100317f3 f   MSVCRTD:ftol3.obj
 0001:00030879       __ftol3_common             10031879 f   MSVCRTD:ftol3.obj
 0001:0003093b       __ftol3_arg_error          1003193b f   MSVCRTD:ftol3.obj
 0001:0003094d       __ftol3_except             1003194d f   MSVCRTD:ftol3.obj
 0001:00030991       __dtoui3                   10031991 f   MSVCRTD:ftol3.obj
 0001:000309a0       __dtoul3                   100319a0 f   MSVCRTD:ftol3.obj
 0001:000309af       __dtol3                    100319af f   MSVCRTD:ftol3.obj
 0001:000309bc       __dtol3_NaN                100319bc f   MSVCRTD:ftol3.obj
 0001:000309d9       __dtol3_work               100319d9 f   MSVCRTD:ftol3.obj
 0001:00030abe       __ultod3                   10031abe f   MSVCRTD:ftol3.obj
 0001:00030b4f       __ltod3                    10031b4f f   MSVCRTD:ftol3.obj
 0001:00030b80       __allrem                   10031b80 f   MSVCRTD:llrem.obj
 0001:00030c40       __allshl                   10031c40 f   MSVCRTD:llshl.obj
 0001:00030c60       __aullshr                  10031c60 f   MSVCRTD:ullshr.obj
 0001:00030c80       __allshr                   10031c80 f   MSVCRTD:llshr.obj
 0001:00030ca2       __except1                  10031ca2 f   MSVCRTD:MSVCR120D.dll
 0002:00000000       __imp__LoadLibraryExW@12   10037000     kernel32:KERNEL32.dll
 0002:00000004       __imp__GlobalReAlloc@12    10037004     kernel32:KERNEL32.dll
 0002:00000008       __imp__GlobalFree@4        10037008     kernel32:KERNEL32.dll
 0002:0000000c       __imp__EncodePointer@4     1003700c     kernel32:KERNEL32.dll
 0002:00000010       __imp__DecodePointer@4     10037010     kernel32:KERNEL32.dll
 0002:00000014       __imp__IsDebuggerPresent@0 10037014     kernel32:KERNEL32.dll
 0002:00000018       __imp__RaiseException@16   10037018     kernel32:KERNEL32.dll
 0002:0000001c       __imp__GetLastError@0      1003701c     kernel32:KERNEL32.dll
 0002:00000020       __imp__GetProcAddress@8    10037020     kernel32:KERNEL32.dll
 0002:00000024       __imp__MultiByteToWideChar@24 10037024     kernel32:KERNEL32.dll
 0002:00000028       __imp__WideCharToMultiByte@32 10037028     kernel32:KERNEL32.dll
 0002:0000002c       __imp__IsProcessorFeaturePresent@4 1003702c     kernel32:KERNEL32.dll
 0002:00000030       __imp__QueryPerformanceCounter@4 10037030     kernel32:KERNEL32.dll
 0002:00000034       __imp__GetCurrentProcessId@0 10037034     kernel32:KERNEL32.dll
 0002:00000038       __imp__GetCurrentThreadId@0 10037038     kernel32:KERNEL32.dll
 0002:0000003c       __imp__OutputDebugStringA@4 1003703c     kernel32:KERNEL32.dll
 0002:00000040       __imp__GetFileType@4       10037040     kernel32:KERNEL32.dll
 0002:00000044       __imp__GetStdHandle@4      10037044     kernel32:KERNEL32.dll
 0002:00000048       __imp__CreateSemaphoreA@16 10037048     kernel32:KERNEL32.dll
 0002:0000004c       __imp__WaitForSingleObject@8 1003704c     kernel32:KERNEL32.dll
 0002:00000050       __imp__ReleaseSemaphore@12 10037050     kernel32:KERNEL32.dll
 0002:00000054       __imp__CloseHandle@4       10037054     kernel32:KERNEL32.dll
 0002:00000058       __imp__GetNativeSystemInfo@4 10037058     kernel32:KERNEL32.dll
 0002:0000005c       __imp__DeleteCriticalSection@4 1003705c     kernel32:KERNEL32.dll
 0002:00000060       __imp__LeaveCriticalSection@4 10037060     kernel32:KERNEL32.dll
 0002:00000064       __imp__EnterCriticalSection@4 10037064     kernel32:KERNEL32.dll
 0002:00000068       __imp__InitializeCriticalSection@4 10037068     kernel32:KERNEL32.dll
 0002:0000006c       __imp__GetModuleHandleW@4  1003706c     kernel32:KERNEL32.dll
 0002:00000070       __imp__GetModuleFileNameW@12 10037070     kernel32:KERNEL32.dll
 0002:00000074       __imp__FreeLibrary@4       10037074     kernel32:KERNEL32.dll
 0002:00000078       __imp__VirtualQuery@12     10037078     kernel32:KERNEL32.dll
 0002:0000007c       __imp__GetProcessHeap@0    1003707c     kernel32:KERNEL32.dll
 0002:00000080       __imp__HeapFree@12         10037080     kernel32:KERNEL32.dll
 0002:00000084       __imp__HeapAlloc@12        10037084     kernel32:KERNEL32.dll
 0002:00000088       __imp__DisableThreadLibraryCalls@4 10037088     kernel32:KERNEL32.dll
 0002:0000008c       __imp__GetSystemTimeAsFileTime@4 1003708c     kernel32:KERNEL32.dll
 0002:00000090       __imp__GlobalAlloc@8       10037090     kernel32:KERNEL32.dll
 0002:00000094       \177KERNEL32_NULL_THUNK_DATA 10037094     kernel32:KERNEL32.dll
 0002:00000098       __imp_??0_Lockit@std@@QAE@H@Z 10037098     msvcprtd:MSVCP120D.dll
 0002:0000009c       __imp_??1_Lockit@std@@QAE@XZ 1003709c     msvcprtd:MSVCP120D.dll
 0002:000000a0       __imp_?_Debug_message@std@@YAXPB_W0I@Z 100370a0     msvcprtd:MSVCP120D.dll
 0002:000000a4       __imp_??0_Container_base12@std@@QAE@XZ 100370a4     msvcprtd:MSVCP120D.dll
 0002:000000a8       __imp_??1_Container_base12@std@@QAE@XZ 100370a8     msvcprtd:MSVCP120D.dll
 0002:000000ac       __imp_?_Orphan_all@_Container_base12@std@@QAEXXZ 100370ac     msvcprtd:MSVCP120D.dll
 0002:000000b0       __imp_?_Getpfirst@_Container_base12@std@@QBEPAPAU_Iterator_base12@2@XZ 100370b0     msvcprtd:MSVCP120D.dll
 0002:000000b4       __imp_?_Xbad_alloc@std@@YAXXZ 100370b4     msvcprtd:MSVCP120D.dll
 0002:000000b8       __imp_?_Xlength_error@std@@YAXPBD@Z 100370b8     msvcprtd:MSVCP120D.dll
 0002:000000bc       __imp_?_Xout_of_range@std@@YAXPBD@Z 100370bc     msvcprtd:MSVCP120D.dll
 0002:000000c0       __imp___Mtx_init           100370c0     msvcprtd:MSVCP120D.dll
 0002:000000c4       __imp___Mtx_destroy        100370c4     msvcprtd:MSVCP120D.dll
 0002:000000c8       __imp_?_Throw_C_error@std@@YAXH@Z 100370c8     msvcprtd:MSVCP120D.dll
 0002:000000cc       __imp___Mtx_unlock         100370cc     msvcprtd:MSVCP120D.dll
 0002:000000d0       __imp___Mtx_lock           100370d0     msvcprtd:MSVCP120D.dll
 0002:000000d4       __imp_??0id@locale@std@@QAE@I@Z 100370d4     msvcprtd:MSVCP120D.dll
 0002:000000d8       __imp_?_Syserror_map@std@@YAPBDH@Z 100370d8     msvcprtd:MSVCP120D.dll
 0002:000000dc       __imp_?_Winerror_map@std@@YAPBDH@Z 100370dc     msvcprtd:MSVCP120D.dll
 0002:000000e0       \177MSVCP120D_NULL_THUNK_DATA 100370e0     msvcprtd:MSVCP120D.dll
 0002:000000e4       __imp___crt_debugger_hook  100370e4     MSVCRTD:MSVCR120D.dll
 0002:000000e8       __imp___initterm_e         100370e8     MSVCRTD:MSVCR120D.dll
 0002:000000ec       __imp___initterm           100370ec     MSVCRTD:MSVCR120D.dll
 0002:000000f0       __imp___CrtSetCheckCount   100370f0     MSVCRTD:MSVCR120D.dll
 0002:000000f4       __imp___free_dbg           100370f4     MSVCRTD:MSVCR120D.dll
 0002:000000f8       __imp___malloc_dbg         100370f8     MSVCRTD:MSVCR120D.dll
 0002:000000fc       __imp___amsg_exit          100370fc     MSVCRTD:MSVCR120D.dll
 0002:00000100       __imp____CppXcptFilter     10037100     MSVCRTD:MSVCR120D.dll
 0002:00000104       __imp___onexit             10037104     MSVCRTD:MSVCR120D.dll
 0002:00000108       __imp____dllonexit         10037108     MSVCRTD:MSVCR120D.dll
 0002:0000010c       __imp___calloc_dbg         1003710c     MSVCRTD:MSVCR120D.dll
 0002:00000110       __imp___unlock             10037110     MSVCRTD:MSVCR120D.dll
 0002:00000114       __imp___lock               10037114     MSVCRTD:MSVCR120D.dll
 0002:00000118       __imp_??1type_info@@UAE@XZ 10037118     MSVCRTD:MSVCR120D.dll
 0002:0000011c       __imp__strlen              1003711c     MSVCRTD:MSVCR120D.dll
 0002:00000120       __imp__memcpy              10037120     MSVCRTD:MSVCR120D.dll
 0002:00000124       __imp___purecall           10037124     MSVCRTD:MSVCR120D.dll
 0002:00000128       __imp___CrtDbgReportW      10037128     MSVCRTD:MSVCR120D.dll
 0002:0000012c       __imp_?what@exception@std@@UBEPBDXZ 1003712c     MSVCRTD:MSVCR120D.dll
 0002:00000130       __imp__memmove             10037130     MSVCRTD:MSVCR120D.dll
 0002:00000134       __imp___invalid_parameter  10037134     MSVCRTD:MSVCR120D.dll
 0002:00000138       __imp____CxxFrameHandler3  10037138     MSVCRTD:MSVCR120D.dll
 0002:0000013c       __imp___CxxThrowException@8 1003713c     MSVCRTD:MSVCR120D.dll
 0002:00000140       __imp_??1exception@std@@UAE@XZ 10037140     MSVCRTD:MSVCR120D.dll
 0002:00000144       __imp_??0exception@std@@QAE@ABV01@@Z 10037144     MSVCRTD:MSVCR120D.dll
 0002:00000148       __imp_??_V@YAXPAX@Z        10037148     MSVCRTD:MSVCR120D.dll
 0002:0000014c       __imp_??0exception@std@@QAE@ABQBD@Z 1003714c     MSVCRTD:MSVCR120D.dll
 0002:00000150       __imp__memset              10037150     MSVCRTD:MSVCR120D.dll
 0002:00000154       __imp____crtTerminateProcess 10037154     MSVCRTD:MSVCR120D.dll
 0002:00000158       __imp_?terminate@@YAXXZ    10037158     MSVCRTD:MSVCR120D.dll
 0002:0000015c       __imp___except_handler4_common 1003715c     MSVCRTD:MSVCR120D.dll
 0002:00000160       __imp____clean_type_info_names_internal 10037160     MSVCRTD:MSVCR120D.dll
 0002:00000164       __imp__wcscpy_s            10037164     MSVCRTD:MSVCR120D.dll
 0002:00000168       __imp___wmakepath_s        10037168     MSVCRTD:MSVCR120D.dll
 0002:0000016c       __imp___wsplitpath_s       1003716c     MSVCRTD:MSVCR120D.dll
 0002:00000170       __imp____iob_func          10037170     MSVCRTD:MSVCR120D.dll
 0002:00000174       __imp__fflush              10037174     MSVCRTD:MSVCR120D.dll
 0002:00000178       __imp__strncpy_s           10037178     MSVCRTD:MSVCR120D.dll
 0002:0000017c       __imp__raise               1003717c     MSVCRTD:MSVCR120D.dll
 0002:00000180       __imp___except1            10037180     MSVCRTD:MSVCR120D.dll
 0002:00000184       __imp__vfprintf            10037184     MSVCRTD:MSVCR120D.dll
 0002:00000188       __imp___vsnprintf_s        10037188     MSVCRTD:MSVCR120D.dll
 0002:0000018c       __imp___beginthreadex      1003718c     MSVCRTD:MSVCR120D.dll
 0002:00000190       __imp____crtUnhandledException 10037190     MSVCRTD:MSVCR120D.dll
 0002:00000194       __imp_??2@YAPAXI@Z         10037194     MSVCRTD:MSVCR120D.dll
 0002:00000198       __imp_??3@YAXPAX@Z         10037198     MSVCRTD:MSVCR120D.dll
 0002:0000019c       \177MSVCR120D_NULL_THUNK_DATA 1003719c     MSVCRTD:MSVCR120D.dll
 0002:000001a0       __imp_?Global@Context@v8@@QAE?AV?$Local@VObject@v8@@@2@XZ 100371a0     v8-ia32:v8-ia32.dll
 0002:000001a4       __imp_?Message@TryCatch@v8@@QBE?AV?$Local@VMessage@v8@@@2@XZ 100371a4     v8-ia32:v8-ia32.dll
 0002:000001a8       __imp_?StackTrace@TryCatch@v8@@QBE?AV?$Local@VValue@v8@@@2@XZ 100371a8     v8-ia32:v8-ia32.dll
 0002:000001ac       __imp_?Exception@TryCatch@v8@@QBE?AV?$Local@VValue@v8@@@2@XZ 100371ac     v8-ia32:v8-ia32.dll
 0002:000001b0       __imp_?HasCaught@TryCatch@v8@@QBE_NXZ 100371b0     v8-ia32:v8-ia32.dll
 0002:000001b4       __imp_??1TryCatch@v8@@QAE@XZ 100371b4     v8-ia32:v8-ia32.dll
 0002:000001b8       __imp_??0TryCatch@v8@@QAE@XZ 100371b8     v8-ia32:v8-ia32.dll
 0002:000001bc       __imp_?InitializePlatform@V8@v8@@SAXPAVPlatform@2@@Z 100371bc     v8-ia32:v8-ia32.dll
 0002:000001c0       __imp_?InitializeICU@V8@v8@@SA_NPBD@Z 100371c0     v8-ia32:v8-ia32.dll
 0002:000001c4       __imp_?Initialize@V8@v8@@SA_NXZ 100371c4     v8-ia32:v8-ia32.dll
 0002:000001c8       __imp_?SetData@Isolate@v8@@QAEXIPAX@Z 100371c8     v8-ia32:v8-ia32.dll
 0002:000001cc       __imp_?Dispose@Isolate@v8@@QAEXXZ 100371cc     v8-ia32:v8-ia32.dll
 0002:000001d0       __imp_?New@Isolate@v8@@SAPAV12@XZ 100371d0     v8-ia32:v8-ia32.dll
 0002:000001d4       __imp_?New@Date@v8@@SA?AV?$Local@VValue@v8@@@2@PAVIsolate@2@N@Z 100371d4     v8-ia32:v8-ia32.dll
 0002:000001d8       __imp_?Cast@Function@v8@@SAPAV12@PAVValue@2@@Z 100371d8     v8-ia32:v8-ia32.dll
 0002:000001dc       __imp_?Call@Function@v8@@QAE?AV?$Local@VValue@v8@@@2@V?$Handle@VValue@v8@@@2@HQAV42@@Z 100371dc     v8-ia32:v8-ia32.dll
 0002:000001e0       __imp_?New@Object@v8@@SA?AV?$Local@VObject@v8@@@2@PAVIsolate@2@@Z 100371e0     v8-ia32:v8-ia32.dll
 0002:000001e4       __imp_?New@Number@v8@@SA?AV?$Local@VNumber@v8@@@2@PAVIsolate@2@N@Z 100371e4     v8-ia32:v8-ia32.dll
 0002:000001e8       __imp_?Concat@String@v8@@SA?AV?$Local@VString@v8@@@2@V?$Handle@VString@v8@@@2@0@Z 100371e8     v8-ia32:v8-ia32.dll
 0002:000001ec       __imp_?Write@String@v8@@QBEHPAGHHH@Z 100371ec     v8-ia32:v8-ia32.dll
 0002:000001f0       __imp_?Length@String@v8@@QBEHXZ 100371f0     v8-ia32:v8-ia32.dll
 0002:000001f4       __imp_?Equals@Value@v8@@QBE_NV?$Handle@VValue@v8@@@2@@Z 100371f4     v8-ia32:v8-ia32.dll
 0002:000001f8       __imp_?ToObject@Value@v8@@QBE?AV?$Local@VObject@v8@@@2@XZ 100371f8     v8-ia32:v8-ia32.dll
 0002:000001fc       __imp_?GetStartColumn@Message@v8@@QBEHXZ 100371fc     v8-ia32:v8-ia32.dll
 0002:00000200       __imp_?GetLineNumber@Message@v8@@QBEHXZ 10037200     v8-ia32:v8-ia32.dll
 0002:00000204       __imp_?Run@Script@v8@@QAE?AV?$Local@VValue@v8@@@2@XZ 10037204     v8-ia32:v8-ia32.dll
 0002:00000208       __imp_?Compile@Script@v8@@SA?AV?$Local@VScript@v8@@@2@V?$Handle@VString@v8@@@2@0@Z 10037208     v8-ia32:v8-ia32.dll
 0002:0000020c       __imp_?SetInternalFieldCount@ObjectTemplate@v8@@QAEXH@Z 1003720c     v8-ia32:v8-ia32.dll
 0002:00000210       __imp_?SetCallAsFunctionHandler@ObjectTemplate@v8@@QAEXP6AXABV?$FunctionCallbackInfo@VValue@v8@@@2@@ZV?$Handle@VValue@v8@@@2@@Z 10037210     v8-ia32:v8-ia32.dll
 0002:00000214       __imp_?SetIndexedPropertyHandler@ObjectTemplate@v8@@QAEXP6AXIABV?$PropertyCallbackInfo@VValue@v8@@@2@@ZP6AXIV?$Local@VValue@v8@@@2@0@ZP6AXIABV?$PropertyCallbackInfo@VInteger@v8@@@2@@ZP6AXIABV?$PropertyCallbackInfo@VBoolean@v8@@@2@@ZP6AXABV?$PropertyCallbackInfo@VArray@v8@@@2@@ZV?$Handle@VValue@v8@@@2@@Z 10037214     v8-ia32:v8-ia32.dll
 0002:00000218       __imp_?SetNamedPropertyHandler@ObjectTemplate@v8@@QAEXP6AXV?$Local@VString@v8@@@2@ABV?$PropertyCallbackInfo@VValue@v8@@@2@@ZP6AX0V?$Local@VValue@v8@@@2@1@ZP6AX0ABV?$PropertyCallbackInfo@VInteger@v8@@@2@@ZP6AX0ABV?$PropertyCallbackInfo@VBoolean@v8@@@2@@ZP6AXABV?$PropertyCallbackInfo@VArray@v8@@@2@@ZV?$Handle@VValue@v8@@@2@@Z 10037218     v8-ia32:v8-ia32.dll
 0002:0000021c       __imp_?SetAccessor@ObjectTemplate@v8@@QAEXV?$Handle@VString@v8@@@2@P6AXV?$Local@VString@v8@@@2@ABV?$PropertyCallbackInfo@VValue@v8@@@2@@ZP6AX1V?$Local@VValue@v8@@@2@ABV?$PropertyCallbackInfo@X@2@@ZV?$Handle@VValue@v8@@@2@W4AccessControl@2@W4PropertyAttribute@2@V?$Handle@VAccessorSignature@v8@@@2@@Z 1003721c     v8-ia32:v8-ia32.dll
 0002:00000220       __imp_?NewInstance@ObjectTemplate@v8@@QAE?AV?$Local@VObject@v8@@@2@XZ 10037220     v8-ia32:v8-ia32.dll
 0002:00000224       __imp_?New@ObjectTemplate@v8@@SA?AV?$Local@VObjectTemplate@v8@@@2@PAVIsolate@2@@Z 10037224     v8-ia32:v8-ia32.dll
 0002:00000228       __imp_?GetAlignedPointerFromInternalField@Object@v8@@QAEPAXH@Z 10037228     v8-ia32:v8-ia32.dll
 0002:0000022c       __imp_?Cast@Integer@v8@@SAPAV12@PAVValue@2@@Z 1003722c     v8-ia32:v8-ia32.dll
 0002:00000230       __imp_?New@Boolean@v8@@SA?AV?$Handle@VBoolean@v8@@@2@PAVIsolate@2@_N@Z 10037230     v8-ia32:v8-ia32.dll
 0002:00000234       __imp_?ClearWeak@V8@v8@@CAPAXPAPAVObject@internal@2@@Z 10037234     v8-ia32:v8-ia32.dll
 0002:00000238       __imp_?MakeWeak@V8@v8@@CAXPAPAVObject@internal@2@PAXP6AXABV?$WeakCallbackData@VValue@v8@@X@2@@Z@Z 10037238     v8-ia32:v8-ia32.dll
 0002:0000023c       __imp_?GetData@Isolate@v8@@QAEPAXI@Z 1003723c     v8-ia32:v8-ia32.dll
 0002:00000240       __imp_?GetHiddenValue@Object@v8@@QAE?AV?$Local@VValue@v8@@@2@V?$Handle@VString@v8@@@2@@Z 10037240     v8-ia32:v8-ia32.dll
 0002:00000244       __imp_?GetInternalField@Object@v8@@QAE?AV?$Local@VValue@v8@@@2@H@Z 10037244     v8-ia32:v8-ia32.dll
 0002:00000248       __imp_?Has@Object@v8@@QAE_NV?$Handle@VValue@v8@@@2@@Z 10037248     v8-ia32:v8-ia32.dll
 0002:0000024c       __imp_?Cast@String@v8@@SAPAV12@PAVValue@2@@Z 1003724c     v8-ia32:v8-ia32.dll
 0002:00000250       __imp_?Int32Value@Value@v8@@QBEHXZ 10037250     v8-ia32:v8-ia32.dll
 0002:00000254       __imp_?NumberValue@Value@v8@@QBENXZ 10037254     v8-ia32:v8-ia32.dll
 0002:00000258       __imp_?BooleanValue@Value@v8@@QBE_NXZ 10037258     v8-ia32:v8-ia32.dll
 0002:0000025c       __imp_?IsRegExp@Value@v8@@QBE_NXZ 1003725c     v8-ia32:v8-ia32.dll
 0002:00000260       __imp_?New@Context@v8@@SA?AV?$Local@VContext@v8@@@2@PAVIsolate@2@PAVExtensionConfiguration@2@V?$Handle@VObjectTemplate@v8@@@2@V?$Handle@VValue@v8@@@2@@Z 10037260     v8-ia32:v8-ia32.dll
 0002:00000264       __imp_?IsStringObject@Value@v8@@QBE_NXZ 10037264     v8-ia32:v8-ia32.dll
 0002:00000268       __imp_?IsNumberObject@Value@v8@@QBE_NXZ 10037268     v8-ia32:v8-ia32.dll
 0002:0000026c       __imp_?IsBooleanObject@Value@v8@@QBE_NXZ 1003726c     v8-ia32:v8-ia32.dll
 0002:00000270       __imp_?IsDate@Value@v8@@QBE_NXZ 10037270     v8-ia32:v8-ia32.dll
 0002:00000274       __imp_?IsInt32@Value@v8@@QBE_NXZ 10037274     v8-ia32:v8-ia32.dll
 0002:00000278       __imp_?IsExternal@Value@v8@@QBE_NXZ 10037278     v8-ia32:v8-ia32.dll
 0002:0000027c       __imp_?IsNumber@Value@v8@@QBE_NXZ 1003727c     v8-ia32:v8-ia32.dll
 0002:00000280       __imp_?IsBoolean@Value@v8@@QBE_NXZ 10037280     v8-ia32:v8-ia32.dll
 0002:00000284       __imp_?IsFunction@Value@v8@@QBE_NXZ 10037284     v8-ia32:v8-ia32.dll
 0002:00000288       __imp_?IsString@Value@v8@@QBE_NXZ 10037288     v8-ia32:v8-ia32.dll
 0002:0000028c       __imp_?IsFalse@Value@v8@@QBE_NXZ 1003728c     v8-ia32:v8-ia32.dll
 0002:00000290       __imp_?IsTrue@Value@v8@@QBE_NXZ 10037290     v8-ia32:v8-ia32.dll
 0002:00000294       __imp_?IsNull@Value@v8@@QBE_NXZ 10037294     v8-ia32:v8-ia32.dll
 0002:00000298       __imp_?IsUndefined@Value@v8@@QBE_NXZ 10037298     v8-ia32:v8-ia32.dll
 0002:0000029c       __imp_?DisposeGlobal@V8@v8@@CAXPAPAVObject@internal@2@@Z 1003729c     v8-ia32:v8-ia32.dll
 0002:000002a0       __imp_?CopyPersistent@V8@v8@@CAPAPAVObject@internal@2@PAPAV342@@Z 100372a0     v8-ia32:v8-ia32.dll
 0002:000002a4       __imp_?GlobalizeReference@V8@v8@@CAPAPAVObject@internal@2@PAVIsolate@42@PAPAV342@@Z 100372a4     v8-ia32:v8-ia32.dll
 0002:000002a8       __imp_?ThrowException@Isolate@v8@@QAE?AV?$Local@VValue@v8@@@2@V32@@Z 100372a8     v8-ia32:v8-ia32.dll
 0002:000002ac       __imp_?Error@Exception@v8@@SA?AV?$Local@VValue@v8@@@2@V?$Handle@VString@v8@@@2@@Z 100372ac     v8-ia32:v8-ia32.dll
 0002:000002b0       __imp_?SetClassName@FunctionTemplate@v8@@QAEXV?$Handle@VString@v8@@@2@@Z 100372b0     v8-ia32:v8-ia32.dll
 0002:000002b4       __imp_?PrototypeTemplate@FunctionTemplate@v8@@QAE?AV?$Local@VObjectTemplate@v8@@@2@XZ 100372b4     v8-ia32:v8-ia32.dll
 0002:000002b8       __imp_?InstanceTemplate@FunctionTemplate@v8@@QAE?AV?$Local@VObjectTemplate@v8@@@2@XZ 100372b8     v8-ia32:v8-ia32.dll
 0002:000002bc       __imp_?GetFunction@FunctionTemplate@v8@@QAE?AV?$Local@VFunction@v8@@@2@XZ 100372bc     v8-ia32:v8-ia32.dll
 0002:000002c0       __imp_?New@FunctionTemplate@v8@@SA?AV?$Local@VFunctionTemplate@v8@@@2@PAVIsolate@2@P6AXABV?$FunctionCallbackInfo@VValue@v8@@@2@@ZV?$Handle@VValue@v8@@@2@V?$Handle@VSignature@v8@@@2@H@Z 100372c0     v8-ia32:v8-ia32.dll
 0002:000002c4       __imp_?Set@Template@v8@@QAEXV?$Handle@VName@v8@@@2@V?$Handle@VData@v8@@@2@W4PropertyAttribute@2@@Z 100372c4     v8-ia32:v8-ia32.dll
 0002:000002c8       __imp_?Value@External@v8@@QBEPAXXZ 100372c8     v8-ia32:v8-ia32.dll
 0002:000002cc       __imp_?Cast@External@v8@@SAPAV12@PAVValue@2@@Z 100372cc     v8-ia32:v8-ia32.dll
 0002:000002d0       __imp_?NewInstance@Function@v8@@QBE?AV?$Local@VObject@v8@@@2@HQAV?$Handle@VValue@v8@@@2@@Z 100372d0     v8-ia32:v8-ia32.dll
 0002:000002d4       __imp_?ToString@Value@v8@@QBE?AV?$Local@VString@v8@@@2@XZ 100372d4     v8-ia32:v8-ia32.dll
 0002:000002d8       __imp_?CreateHandle@HandleScope@v8@@KAPAPAVObject@internal@2@PAVIsolate@42@PAV342@@Z 100372d8     v8-ia32:v8-ia32.dll
 0002:000002dc       __imp_??1Locker@v8@@QAE@XZ 100372dc     v8-ia32:v8-ia32.dll
 0002:000002e0       __imp_??0Locker@v8@@QAE@PAVIsolate@1@@Z 100372e0     v8-ia32:v8-ia32.dll
 0002:000002e4       __imp_?Exit@Context@v8@@QAEXXZ 100372e4     v8-ia32:v8-ia32.dll
 0002:000002e8       __imp_?Enter@Context@v8@@QAEXXZ 100372e8     v8-ia32:v8-ia32.dll
 0002:000002ec       __imp_?GetCurrent@Isolate@v8@@SAPAV12@XZ 100372ec     v8-ia32:v8-ia32.dll
 0002:000002f0       __imp_??1Scope@Isolate@v8@@QAE@XZ 100372f0     v8-ia32:v8-ia32.dll
 0002:000002f4       __imp_??0Scope@Isolate@v8@@QAE@PAV12@@Z 100372f4     v8-ia32:v8-ia32.dll
 0002:000002f8       __imp_?New@External@v8@@SA?AV?$Local@VExternal@v8@@@2@PAVIsolate@2@PAX@Z 100372f8     v8-ia32:v8-ia32.dll
 0002:000002fc       __imp_?Cast@Array@v8@@SAPAV12@PAVValue@2@@Z 100372fc     v8-ia32:v8-ia32.dll
 0002:00000300       __imp_?New@Array@v8@@SA?AV?$Local@VArray@v8@@@2@PAVIsolate@2@H@Z 10037300     v8-ia32:v8-ia32.dll
 0002:00000304       __imp_?Length@Array@v8@@QBEIXZ 10037304     v8-ia32:v8-ia32.dll
 0002:00000308       __imp_?Cast@Object@v8@@SAPAV12@PAVValue@2@@Z 10037308     v8-ia32:v8-ia32.dll
 0002:0000030c       __imp_?SetHiddenValue@Object@v8@@QAE_NV?$Handle@VString@v8@@@2@V?$Handle@VValue@v8@@@2@@Z 1003730c     v8-ia32:v8-ia32.dll
 0002:00000310       __imp_?SetAlignedPointerInInternalField@Object@v8@@QAEXHPAX@Z 10037310     v8-ia32:v8-ia32.dll
 0002:00000314       __imp_?SetInternalField@Object@v8@@QAEXHV?$Handle@VValue@v8@@@2@@Z 10037314     v8-ia32:v8-ia32.dll
 0002:00000318       __imp_?InternalFieldCount@Object@v8@@QAEHXZ 10037318     v8-ia32:v8-ia32.dll
 0002:0000031c       __imp_?GetPrototype@Object@v8@@QAE?AV?$Local@VValue@v8@@@2@XZ 1003731c     v8-ia32:v8-ia32.dll
 0002:00000320       __imp_?GetOwnPropertyNames@Object@v8@@QAE?AV?$Local@VArray@v8@@@2@XZ 10037320     v8-ia32:v8-ia32.dll
 0002:00000324       __imp_?GetPropertyNames@Object@v8@@QAE?AV?$Local@VArray@v8@@@2@XZ 10037324     v8-ia32:v8-ia32.dll
 0002:00000328       __imp_?IsNativeError@Value@v8@@QBE_NXZ 10037328     v8-ia32:v8-ia32.dll
 0002:0000032c       __imp_?SetAccessor@Object@v8@@QAE_NV?$Handle@VString@v8@@@2@P6AXV?$Local@VString@v8@@@2@ABV?$PropertyCallbackInfo@VValue@v8@@@2@@ZP6AX1V?$Local@VValue@v8@@@2@ABV?$PropertyCallbackInfo@X@2@@ZV?$Handle@VValue@v8@@@2@W4AccessControl@2@W4PropertyAttribute@2@@Z 1003732c     v8-ia32:v8-ia32.dll
 0002:00000330       __imp_?Delete@Object@v8@@QAE_NI@Z 10037330     v8-ia32:v8-ia32.dll
 0002:00000334       __imp_?Delete@Object@v8@@QAE_NV?$Handle@VValue@v8@@@2@@Z 10037334     v8-ia32:v8-ia32.dll
 0002:00000338       __imp_?GetPropertyAttributes@Object@v8@@QAE?AW4PropertyAttribute@2@V?$Handle@VValue@v8@@@2@@Z 10037338     v8-ia32:v8-ia32.dll
 0002:0000033c       __imp_?Get@Object@v8@@QAE?AV?$Local@VValue@v8@@@2@I@Z 1003733c     v8-ia32:v8-ia32.dll
 0002:00000340       __imp_?Get@Object@v8@@QAE?AV?$Local@VValue@v8@@@2@V?$Handle@VValue@v8@@@2@@Z 10037340     v8-ia32:v8-ia32.dll
 0002:00000344       __imp_?ForceSet@Object@v8@@QAE_NV?$Handle@VValue@v8@@@2@0W4PropertyAttribute@2@@Z 10037344     v8-ia32:v8-ia32.dll
 0002:00000348       __imp_?Set@Object@v8@@QAE_NIV?$Handle@VValue@v8@@@2@@Z 10037348     v8-ia32:v8-ia32.dll
 0002:0000034c       __imp_?New@Integer@v8@@SA?AV?$Local@VInteger@v8@@@2@PAVIsolate@2@H@Z 1003734c     v8-ia32:v8-ia32.dll
 0002:00000350       __imp_?NewFromTwoByte@String@v8@@SA?AV?$Local@VString@v8@@@2@PAVIsolate@2@PBGW4NewStringType@12@H@Z 10037350     v8-ia32:v8-ia32.dll
 0002:00000354       __imp_?NewFromUtf8@String@v8@@SA?AV?$Local@VString@v8@@@2@PAVIsolate@2@PBDW4NewStringType@12@H@Z 10037354     v8-ia32:v8-ia32.dll
 0002:00000358       __imp_?IsObject@Value@v8@@QBE_NXZ 10037358     v8-ia32:v8-ia32.dll
 0002:0000035c       __imp_?IsArray@Value@v8@@QBE_NXZ 1003735c     v8-ia32:v8-ia32.dll
 0002:00000360       __imp_??1HandleScope@v8@@QAE@XZ 10037360     v8-ia32:v8-ia32.dll
 0002:00000364       __imp_??0HandleScope@v8@@QAE@PAVIsolate@1@@Z 10037364     v8-ia32:v8-ia32.dll
 0002:00000368       \177v8-ia32_NULL_THUNK_DATA 10037368     v8-ia32:v8-ia32.dll
 0002:0000036c       ___xc_a                    1003736c     MSVCRTD:cinitexe.obj
 0002:00000438       ___xc_z                    10037438     MSVCRTD:cinitexe.obj
 0002:0000043c       ___xi_a                    1003743c     MSVCRTD:cinitexe.obj
 0002:00000448       ___xi_z                    10037448     MSVCRTD:cinitexe.obj
 0002:00000488       ??_C@_0BL@OFLPLJAM@Not?5a?5valid?5script?5handle?4?$AA@ 10037488     Exports.obj
 0002:000004a4       ??_C@_0BA@MLFILMMN@ManagedObjectID?$AA@ 100374a4     Exports.obj
 0002:000004b4       ??_C@_0CJ@MCOIAANP@The?5handle?5does?5not?5represent?5an@ 100374b4     Exports.obj
 0002:000004e0       ??_C@_0CP@MICEEFHB@The?5handle?5does?5not?5represent?5an@ 100374e0     Exports.obj
 0002:00000510       ??_C@_0EE@OBNIJAJP@?8Data?8?5points?5to?5an?5invalid?5obje@ 10037510     Exports.obj
 0002:00000554       ??_C@_0CB@PFDHPICG@?8args?4Data?$CI?$CJ?8?5is?5not?5recognized?4@ 10037554     FunctionTemplateProxy.obj
 0002:00000578       ??_C@_09JOONBBPD@$__TypeID?$AA@ 10037578     HandleProxy.obj
 0002:00000584       ??_C@_08NKLFIIDP@$__Value?$AA@ 10037584     HandleProxy.obj
 0002:00000590       __real@0000000000000000    10037590     HandleProxy.obj
 0002:00000598       ??_C@_1JA@EKKHPHED@?$AAc?$AA?3?$AA?2?$AAp?$AAr?$AAo?$AAg?$AAr?$AAa?$AAm?$AA?5?$AAf?$AAi?$AAl?$AAe?$AAs?$AA?5?$AA?$CI?$AAx?$AA8?$AA6?$AA?$CJ?$AA?2?$AAm?$AAi?$AAc?$AAr?$AAo?$AAs?$AAo?$AAf?$AAt@ 10037598     V8EngineProxy.obj
 0002:00000628       ??_C@_1DC@POOIKBAO@?$AAI?$AAT?$AAE?$AAR?$AAA?$AAT?$AAO?$AAR?$AA?5?$AAL?$AAI?$AAS?$AAT?$AA?5?$AAC?$AAO?$AAR?$AAR?$AAU?$AAP?$AAT?$AAE?$AAD?$AA?$CB?$AA?$AA@ 10037628     V8EngineProxy.obj
 0002:0000065c       ??_C@_02PCIJFNDE@?$AN?6?$AA@ 1003765c     V8EngineProxy.obj
 0002:00000660       ??_C@_08FIKDMAMC@?5?5Line?3?5?$AA@ 10037660     V8EngineProxy.obj
 0002:0000066c       ??_C@_0L@KCLHICAK@?5?5Column?3?5?$AA@ 1003766c     V8EngineProxy.obj
 0002:00000678       ??_C@_09FPDCPDGD@?5?5Stack?3?5?$AA@ 10037678     V8EngineProxy.obj
 0002:00000684       ??_C@_11LOCGONAA@?$AA?$AA@ 10037684     V8EngineProxy.obj
 0002:00000688       ??_C@_0EI@NBCEMGHA@Call?3?5The?5target?5instance?5handle@ 10037688     V8EngineProxy.obj
 0002:000006d0       ??_C@_0DH@GEIHKHBI@Call?3?5The?5subject?5handle?5does?5no@ 100376d0     V8EngineProxy.obj
 0002:00000708       ??_C@_0DM@EFLNDFCL@Call?3?5The?5specified?5property?5doe@ 10037708     V8EngineProxy.obj
 0002:00000744       ??_C@_0DI@IBPEFPGB@Call?3?5The?5subject?5handle?5does?5no@ 10037744     V8EngineProxy.obj
 0002:0000077c       ??_C@_0BE@HBKMHPCH@Invalid?5error?5type?4?$AA@ 1003777c     V8EngineProxy.obj
 0002:00000790       ??_C@_1IM@COBDDANL@?$AAc?$AA?3?$AA?2?$AAp?$AAr?$AAo?$AAg?$AAr?$AAa?$AAm?$AA?5?$AAf?$AAi?$AAl?$AAe?$AAs?$AA?5?$AA?$CI?$AAx?$AA8?$AA6?$AA?$CJ?$AA?2?$AAm?$AAi?$AAc?$AAr?$AAo?$AAs?$AAo?$AAf?$AAt@ 10037790     V8EngineProxy.obj
 0002:0000081c       ??_C@_1DM@LHGCHCBA@?$AAv?$AAe?$AAc?$AAt?$AAo?$AAr?$AA?5?$AAs?$AAu?$AAb?$AAs?$AAc?$AAr?$AAi?$AAp?$AAt?$AA?5?$AAo?$AAu?$AAt?$AA?5?$AAo?$AAf?$AA?5?$AAr?$AAa?$AAn?$AAg?$AAe?$AA?$AA@ 1003781c     V8EngineProxy.obj
 0002:00000858       ??_C@_0CE@OFMIGAMM@Standard?5C?$CL?$CL?5Libraries?5Out?5of?5Ra@ 10037858     V8EngineProxy.obj
 0002:00000880       ??_C@_1FG@IBPIFFN@?$AA?$CC?$AAS?$AAt?$AAa?$AAn?$AAd?$AAa?$AAr?$AAd?$AA?5?$AAC?$AA?$CL?$AA?$CL?$AA?5?$AAL?$AAi?$AAb?$AAr?$AAa?$AAr?$AAi?$AAe?$AAs?$AA?5?$AAO?$AAu?$AAt?$AA?5?$AAo?$AAf?$AA?5?$AAR@ 10037880     V8EngineProxy.obj
 0002:000008d8       ??_C@_15GANGMFKL@?$AA?$CF?$AAs?$AA?$AA@ 100378d8     V8EngineProxy.obj
 0002:000008e0       ??_C@_1KO@MDHCFJIP@?$AAs?$AAt?$AAd?$AA?3?$AA?3?$AAv?$AAe?$AAc?$AAt?$AAo?$AAr?$AA?$DM?$AAs?$AAt?$AAr?$AAu?$AAc?$AAt?$AA?5?$AA_?$AAS?$AAt?$AAr?$AAi?$AAn?$AAg?$AAI?$AAt?$AAe?$AAm?$AA?0?$AAc@ 100378e0     V8EngineProxy.obj
 0002:00000990       ??_C@_1BO@MEPPHOO@?$AA?$CC?$AAo?$AAu?$AAt?$AA?5?$AAo?$AAf?$AA?5?$AAr?$AAa?$AAn?$AAg?$AAe?$AA?$CC?$AA?$AA@ 10037990     V8EngineProxy.obj
 0002:000009b0       ??_C@_1DA@JIKEAPDO@?$AAv?$AAe?$AAc?$AAt?$AAo?$AAr?$AA?5?$AAe?$AAm?$AAp?$AAt?$AAy?$AA?5?$AAb?$AAe?$AAf?$AAo?$AAr?$AAe?$AA?5?$AAp?$AAo?$AAp?$AA?$AA@ 100379b0     V8EngineProxy.obj
 0002:000009e0       ??_C@_1LG@NDGMNKIC@?$AAs?$AAt?$AAd?$AA?3?$AA?3?$AAv?$AAe?$AAc?$AAt?$AAo?$AAr?$AA?$DM?$AAs?$AAt?$AAr?$AAu?$AAc?$AAt?$AA?5?$AAH?$AAa?$AAn?$AAd?$AAl?$AAe?$AAP?$AAr?$AAo?$AAx?$AAy?$AA?5?$AA?$CK@ 100379e0     V8EngineProxy.obj
 0002:00000a98       ??_C@_1HC@HBCEAHKD@?$AAs?$AAt?$AAd?$AA?3?$AA?3?$AAv?$AAe?$AAc?$AAt?$AAo?$AAr?$AA?$DM?$AAi?$AAn?$AAt?$AA?0?$AAc?$AAl?$AAa?$AAs?$AAs?$AA?5?$AAs?$AAt?$AAd?$AA?3?$AA?3?$AAa?$AAl?$AAl?$AAo?$AAc@ 10037a98     V8EngineProxy.obj
 0002:00000b10       ??_C@_1FE@PFCOPOEP@?$AAv?$AAe?$AAc?$AAt?$AAo?$AAr?$AA?$DM?$AAb?$AAo?$AAo?$AAl?$AA?$DO?$AA?5?$AAe?$AAr?$AAa?$AAs?$AAe?$AA?5?$AAi?$AAt?$AAe?$AAr?$AAa?$AAt?$AAo?$AAr?$AA?5?$AAo?$AAu?$AAt?$AAs@ 10037b10     V8EngineProxy.obj
 0002:00000b64       ??_C@_0BM@NMJKDPPO@invalid?5vector?$DMT?$DO?5subscript?$AA@ 10037b64     V8EngineProxy.obj
 0002:00000b80       ??_C@_1FC@CPKBDNAP@?$AAv?$AAe?$AAc?$AAt?$AAo?$AAr?$AA?$DM?$AAb?$AAo?$AAo?$AAl?$AA?$DO?$AA?5?$AAi?$AAt?$AAe?$AAr?$AAa?$AAt?$AAo?$AAr?$AA?5?$AAn?$AAo?$AAt?$AA?5?$AAd?$AAe?$AAr?$AAe?$AAf?$AAe@ 10037b80     V8EngineProxy.obj
 0002:00000bd8       ??_C@_1LG@CHICOEJ@?$AAs?$AAt?$AAd?$AA?3?$AA?3?$AA_?$AAV?$AAb?$AA_?$AAr?$AAe?$AAf?$AAe?$AAr?$AAe?$AAn?$AAc?$AAe?$AA?$DM?$AAs?$AAt?$AAr?$AAu?$AAc?$AAt?$AA?5?$AAs?$AAt?$AAd?$AA?3?$AA?3?$AA_@ 10037bd8     V8EngineProxy.obj
 0002:00000c90       ??_C@_1FG@MBDMEOE@?$AAv?$AAe?$AAc?$AAt?$AAo?$AAr?$AA?$DM?$AAb?$AAo?$AAo?$AAl?$AA?$DO?$AA?5?$AAi?$AAn?$AAs?$AAe?$AAr?$AAt?$AA?5?$AAi?$AAt?$AAe?$AAr?$AAa?$AAt?$AAo?$AAr?$AA?5?$AAo?$AAu?$AAt@ 10037c90     V8EngineProxy.obj
 0002:00000ce8       ??_C@_0BG@EOMJEIFA@vector?$DMbool?$DO?5too?5long?$AA@ 10037ce8     V8EngineProxy.obj
 0002:00000d00       ??_C@_1IG@JNLCECKK@?$AAs?$AAt?$AAd?$AA?3?$AA?3?$AAv?$AAe?$AAc?$AAt?$AAo?$AAr?$AA?$DM?$AAu?$AAn?$AAs?$AAi?$AAg?$AAn?$AAe?$AAd?$AA?5?$AAi?$AAn?$AAt?$AA?0?$AAc?$AAl?$AAa?$AAs?$AAs?$AA?5?$AAs@ 10037d00     V8EngineProxy.obj
 0002:00000d88       ??_C@_1EI@HGIDLLCM@?$AAv?$AAe?$AAc?$AAt?$AAo?$AAr?$AA?5?$AAe?$AAr?$AAa?$AAs?$AAe?$AA?5?$AAi?$AAt?$AAe?$AAr?$AAa?$AAt?$AAo?$AAr?$AA?5?$AAo?$AAu?$AAt?$AAs?$AAi?$AAd?$AAe?$AA?5?$AAr?$AAa@ 10037d88     V8EngineProxy.obj
 0002:00000dd0       ??_C@_0BD@OLBABOEK@vector?$DMT?$DO?5too?5long?$AA@ 10037dd0     V8EngineProxy.obj
 0002:00000de8       ??_C@_1EG@FOHJJHAC@?$AAv?$AAe?$AAc?$AAt?$AAo?$AAr?$AA?5?$AAi?$AAt?$AAe?$AAr?$AAa?$AAt?$AAo?$AAr?$AA?5?$AAn?$AAo?$AAt?$AA?5?$AAd?$AAe?$AAr?$AAe?$AAf?$AAe?$AAr?$AAe?$AAn?$AAc?$AAa?$AAb@ 10037de8     V8EngineProxy.obj
 0002:00000e30       ??_C@_1ME@LLCFNFIO@?$AAs?$AAt?$AAd?$AA?3?$AA?3?$AA_?$AAV?$AAe?$AAc?$AAt?$AAo?$AAr?$AA_?$AAc?$AAo?$AAn?$AAs?$AAt?$AA_?$AAi?$AAt?$AAe?$AAr?$AAa?$AAt?$AAo?$AAr?$AA?$DM?$AAc?$AAl?$AAa?$AAs@ 10037e30     V8EngineProxy.obj
 0002:00000ef8       ??_C@_1EI@CADIPFJC@?$AAv?$AAe?$AAc?$AAt?$AAo?$AAr?$AA?$DM?$AAb?$AAo?$AAo?$AAl?$AA?$DO?$AA?5?$AAi?$AAt?$AAe?$AAr?$AAa?$AAt?$AAo?$AAr?$AAs?$AA?5?$AAi?$AAn?$AAc?$AAo?$AAm?$AAp?$AAa?$AAt?$AAi@ 10037ef8     V8EngineProxy.obj
 0002:00000f40       ??_C@_1EM@FKAOCOMF@?$AAv?$AAe?$AAc?$AAt?$AAo?$AAr?$AA?5?$AAi?$AAt?$AAe?$AAr?$AAa?$AAt?$AAo?$AAr?$AA?5?$AA?$CL?$AA?5?$AAo?$AAf?$AAf?$AAs?$AAe?$AAt?$AA?5?$AAo?$AAu?$AAt?$AA?5?$AAo?$AAf?$AA?5@ 10037f40     V8EngineProxy.obj
 0002:00000f90       ??_C@_1MG@JKKENLGC@?$AAs?$AAt?$AAd?$AA?3?$AA?3?$AA_?$AAV?$AAe?$AAc?$AAt?$AAo?$AAr?$AA_?$AAc?$AAo?$AAn?$AAs?$AAt?$AA_?$AAi?$AAt?$AAe?$AAr?$AAa?$AAt?$AAo?$AAr?$AA?$DM?$AAc?$AAl?$AAa?$AAs@ 10037f90     V8EngineProxy.obj
 0002:00001058       ??_C@_1NI@FGKEJBDM@?$AAs?$AAt?$AAd?$AA?3?$AA?3?$AA_?$AAV?$AAe?$AAc?$AAt?$AAo?$AAr?$AA_?$AAc?$AAo?$AAn?$AAs?$AAt?$AA_?$AAi?$AAt?$AAe?$AAr?$AAa?$AAt?$AAo?$AAr?$AA?$DM?$AAc?$AAl?$AAa?$AAs@ 10038058     V8EngineProxy.obj
 0002:00001130       ??_C@_1DM@HINDPMBP@?$AAv?$AAe?$AAc?$AAt?$AAo?$AAr?$AA?5?$AAi?$AAt?$AAe?$AAr?$AAa?$AAt?$AAo?$AAr?$AAs?$AA?5?$AAi?$AAn?$AAc?$AAo?$AAm?$AAp?$AAa?$AAt?$AAi?$AAb?$AAl?$AAe?$AA?$AA@ 10038130     V8EngineProxy.obj
 0002:0000116c       ??_C@_0CI@FNPHFCCM@Standard?5C?$CL?$CL?5Libraries?5Invalid?5A@ 1003816c     V8EngineProxy.obj
 0002:00001198       ??_C@_1FO@GJIHNDLM@?$AA?$CC?$AAS?$AAt?$AAa?$AAn?$AAd?$AAa?$AAr?$AAd?$AA?5?$AAC?$AA?$CL?$AA?$CL?$AA?5?$AAL?$AAi?$AAb?$AAr?$AAa?$AAr?$AAi?$AAe?$AAs?$AA?5?$AAI?$AAn?$AAv?$AAa?$AAl?$AAi?$AAd?$AA?5@ 10038198     V8EngineProxy.obj
 0002:000011f8       ??_C@_1NA@KDANOKNP@?$AAs?$AAt?$AAd?$AA?3?$AA?3?$AA_?$AAV?$AAe?$AAc?$AAt?$AAo?$AAr?$AA_?$AAc?$AAo?$AAn?$AAs?$AAt?$AA_?$AAi?$AAt?$AAe?$AAr?$AAa?$AAt?$AAo?$AAr?$AA?$DM?$AAc?$AAl?$AAa?$AAs@ 100381f8     V8EngineProxy.obj
 0002:000012c8       ??_C@_1CG@JNLFBNGN@?$AA?$CC?$AAi?$AAn?$AAv?$AAa?$AAl?$AAi?$AAd?$AA?5?$AAa?$AAr?$AAg?$AAu?$AAm?$AAe?$AAn?$AAt?$AA?$CC?$AA?$AA@ 100382c8     V8EngineProxy.obj
 0002:000012f0       ??_C@_1FA@GAHMJBDC@?$AAv?$AAe?$AAc?$AAt?$AAo?$AAr?$AA?$DM?$AAb?$AAo?$AAo?$AAl?$AA?$DO?$AA?5?$AAi?$AAt?$AAe?$AAr?$AAa?$AAt?$AAo?$AAr?$AA?5?$AAn?$AAo?$AAt?$AA?5?$AAi?$AAn?$AAc?$AAr?$AAe?$AAm@ 100382f0     V8EngineProxy.obj
 0002:00001340       ??_C@_1LK@PDANEEFN@?$AAs?$AAt?$AAd?$AA?3?$AA?3?$AA_?$AAV?$AAb?$AA_?$AAc?$AAo?$AAn?$AAs?$AAt?$AA_?$AAi?$AAt?$AAe?$AAr?$AAa?$AAt?$AAo?$AAr?$AA?$DM?$AAs?$AAt?$AAr?$AAu?$AAc?$AAt?$AA?5?$AAs@ 10038340     V8EngineProxy.obj
 0002:000013fc       ??_C@_1CO@DGLIKNHI@?$AAi?$AAn?$AAv?$AAa?$AAl?$AAi?$AAd?$AA?5?$AAi?$AAt?$AAe?$AAr?$AAa?$AAt?$AAo?$AAr?$AA?5?$AAr?$AAa?$AAn?$AAg?$AAe?$AA?$AA@ 100383fc     V8EngineProxy.obj
 0002:00001430       ??_C@_1IO@HFHPAKCC@?$AAc?$AA?3?$AA?2?$AAp?$AAr?$AAo?$AAg?$AAr?$AAa?$AAm?$AA?5?$AAf?$AAi?$AAl?$AAe?$AAs?$AA?5?$AA?$CI?$AAx?$AA8?$AA6?$AA?$CJ?$AA?2?$AAm?$AAi?$AAc?$AAr?$AAo?$AAs?$AAo?$AAf?$AAt@ 10038430     V8EngineProxy.obj
 0002:000014c0       ??_C@_1FA@MNMPLAPH@?$AAv?$AAe?$AAc?$AAt?$AAo?$AAr?$AA?$DM?$AAb?$AAo?$AAo?$AAl?$AA?$DO?$AA?5?$AAi?$AAt?$AAe?$AAr?$AAa?$AAt?$AAo?$AAr?$AA?5?$AAn?$AAo?$AAt?$AA?5?$AAd?$AAe?$AAc?$AAr?$AAe?$AAm@ 100384c0     V8EngineProxy.obj
 0002:00001510       ??_C@_1LK@CMPKBEP@?$AAs?$AAt?$AAd?$AA?3?$AA?3?$AA_?$AAV?$AAb?$AA_?$AAc?$AAo?$AAn?$AAs?$AAt?$AA_?$AAi?$AAt?$AAe?$AAr?$AAa?$AAt?$AAo?$AAr?$AA?$DM?$AAs?$AAt?$AAr?$AAu?$AAc?$AAt?$AA?5?$AAs@ 10038510     V8EngineProxy.obj
 0002:000015cc       ??_C@_1CK@EOPGIILJ@?$AAi?$AAn?$AAv?$AAa?$AAl?$AAi?$AAd?$AA?5?$AAn?$AAu?$AAl?$AAl?$AA?5?$AAp?$AAo?$AAi?$AAn?$AAt?$AAe?$AAr?$AA?$AA@ 100385cc     V8EngineProxy.obj
 0002:000015f8       ?kMaxThreadPoolSize@DefaultPlatform@platform@v8@@0HB 100385f8     v8_libplatform:default-platform.obj
 0002:00001654       ??_7Platform@v8@@6B@       10038654     v8_libplatform:default-platform.obj
 0002:00001660       ??_7DefaultPlatform@platform@v8@@6B@ 10038660     v8_libplatform:default-platform.obj
 0002:0000166c       ??_7error_category@std@@6B@ 1003866c     v8_libplatform:default-platform.obj
 0002:00001684       ??_7_Generic_error_category@std@@6B@ 10038684     v8_libplatform:default-platform.obj
 0002:0000169c       ??_C@_07DCLBNMLN@generic?$AA@ 1003869c     v8_libplatform:default-platform.obj
 0002:000016a4       ??_C@_0O@BFJCFAAK@unknown?5error?$AA@ 100386a4     v8_libplatform:default-platform.obj
 0002:000016b4       ??_7_Iostream_error_category@std@@6B@ 100386b4     v8_libplatform:default-platform.obj
 0002:000016cc       ??_C@_08LLGCOLLL@iostream?$AA@ 100386cc     v8_libplatform:default-platform.obj
 0002:000016d8       ??_C@_0BG@PADBLCHM@iostream?5stream?5error?$AA@ 100386d8     v8_libplatform:default-platform.obj
 0002:000016f0       ??_7_System_error_category@std@@6B@ 100386f0     v8_libplatform:default-platform.obj
 0002:00001708       ??_C@_06FHFOAHML@system?$AA@ 10038708     v8_libplatform:default-platform.obj
 0002:00001710       ??_C@_1IO@FEAPGJBD@?$AAC?$AA?3?$AA?2?$AAP?$AAr?$AAo?$AAg?$AAr?$AAa?$AAm?$AA?5?$AAF?$AAi?$AAl?$AAe?$AAs?$AA?5?$AA?$CI?$AAx?$AA8?$AA6?$AA?$CJ?$AA?2?$AAM?$AAi?$AAc?$AAr?$AAo?$AAs?$AAo?$AAf?$AAt@ 10038710     v8_libplatform:default-platform.obj
 0002:000017a0       ??_C@_1IK@GEHGEPIJ@?$AAC?$AA?3?$AA?2?$AAP?$AAr?$AAo?$AAg?$AAr?$AAa?$AAm?$AA?5?$AAF?$AAi?$AAl?$AAe?$AAs?$AA?5?$AA?$CI?$AAx?$AA8?$AA6?$AA?$CJ?$AA?2?$AAM?$AAi?$AAc?$AAr?$AAo?$AAs?$AAo?$AAf?$AAt@ 100387a0     v8_libplatform:default-platform.obj
 0002:0000182c       ??_C@_1DO@CFEEPGGJ@?$AAm?$AAa?$AAp?$AA?1?$AAs?$AAe?$AAt?$AA?5?$AAi?$AAt?$AAe?$AAr?$AAa?$AAt?$AAo?$AAr?$AAs?$AA?5?$AAi?$AAn?$AAc?$AAo?$AAm?$AAp?$AAa?$AAt?$AAi?$AAb?$AAl?$AAe?$AA?$AA@ 1003882c     v8_libplatform:default-platform.obj
 0002:00001870       ??_C@_1BPK@DOOCDLBG@?$AAs?$AAt?$AAd?$AA?3?$AA?3?$AA_?$AAT?$AAr?$AAe?$AAe?$AA_?$AAc?$AAo?$AAn?$AAs?$AAt?$AA_?$AAi?$AAt?$AAe?$AAr?$AAa?$AAt?$AAo?$AAr?$AA?$DM?$AAc?$AAl?$AAa?$AAs?$AAs?$AA?5@ 10038870     v8_libplatform:default-platform.obj
 0002:00001a70       ??_C@_1IK@CIFBAAFK@?$AAC?$AA?3?$AA?2?$AAP?$AAr?$AAo?$AAg?$AAr?$AAa?$AAm?$AA?5?$AAF?$AAi?$AAl?$AAe?$AAs?$AA?5?$AA?$CI?$AAx?$AA8?$AA6?$AA?$CJ?$AA?2?$AAM?$AAi?$AAc?$AAr?$AAo?$AAs?$AAo?$AAf?$AAt@ 10038a70     v8_libplatform:default-platform.obj
 0002:00001afc       ??_C@_1CO@FNIDKHMC@?$AAd?$AAe?$AAq?$AAu?$AAe?$AA?5?$AAe?$AAm?$AAp?$AAt?$AAy?$AA?5?$AAb?$AAe?$AAf?$AAo?$AAr?$AAe?$AA?5?$AAp?$AAo?$AAp?$AA?$AA@ 10038afc     v8_libplatform:default-platform.obj
 0002:00001b30       ??_C@_1IM@EINEHPHE@?$AAC?$AA?3?$AA?2?$AAP?$AAr?$AAo?$AAg?$AAr?$AAa?$AAm?$AA?5?$AAF?$AAi?$AAl?$AAe?$AAs?$AA?5?$AA?$CI?$AAx?$AA8?$AA6?$AA?$CJ?$AA?2?$AAM?$AAi?$AAc?$AAr?$AAo?$AAs?$AAo?$AAf?$AAt@ 10038b30     v8_libplatform:default-platform.obj
 0002:00001bc0       ??_C@_1BAC@IDELKJIB@?$AAs?$AAt?$AAd?$AA?3?$AA?3?$AA_?$AAV?$AAe?$AAc?$AAt?$AAo?$AAr?$AA_?$AAc?$AAo?$AAn?$AAs?$AAt?$AA_?$AAi?$AAt?$AAe?$AAr?$AAa?$AAt?$AAo?$AAr?$AA?$DM?$AAc?$AAl?$AAa?$AAs@ 10038bc0     v8_libplatform:default-platform.obj
 0002:00001cc8       ??_C@_1EE@EJDKCLKB@?$AAv?$AAe?$AAc?$AAt?$AAo?$AAr?$AA?5?$AAi?$AAt?$AAe?$AAr?$AAa?$AAt?$AAo?$AAr?$AA?5?$AAn?$AAo?$AAt?$AA?5?$AAi?$AAn?$AAc?$AAr?$AAe?$AAm?$AAe?$AAn?$AAt?$AAa?$AAb?$AAl@ 10038cc8     v8_libplatform:default-platform.obj
 0002:00001d10       ??_C@_1BAE@DBPNMKJH@?$AAs?$AAt?$AAd?$AA?3?$AA?3?$AA_?$AAV?$AAe?$AAc?$AAt?$AAo?$AAr?$AA_?$AAc?$AAo?$AAn?$AAs?$AAt?$AA_?$AAi?$AAt?$AAe?$AAr?$AAa?$AAt?$AAo?$AAr?$AA?$DM?$AAc?$AAl?$AAa?$AAs@ 10038d10     v8_libplatform:default-platform.obj
 0002:00001e18       ??_C@_1EG@EHJFMBHJ@?$AAm?$AAa?$AAp?$AA?1?$AAs?$AAe?$AAt?$AA?5?$AAi?$AAt?$AAe?$AAr?$AAa?$AAt?$AAo?$AAr?$AA?5?$AAn?$AAo?$AAt?$AA?5?$AAi?$AAn?$AAc?$AAr?$AAe?$AAm?$AAe?$AAn?$AAt?$AAa?$AAb@ 10038e18     v8_libplatform:default-platform.obj
 0002:00001e60       ??_C@_1BPK@JOBPNCND@?$AAs?$AAt?$AAd?$AA?3?$AA?3?$AA_?$AAT?$AAr?$AAe?$AAe?$AA_?$AAc?$AAo?$AAn?$AAs?$AAt?$AA_?$AAi?$AAt?$AAe?$AAr?$AAa?$AAt?$AAo?$AAr?$AA?$DM?$AAc?$AAl?$AAa?$AAs?$AAs?$AA?5@ 10038e60     v8_libplatform:default-platform.obj
 0002:0000205c       ??_C@_0BA@JFNIOLAK@string?5too?5long?$AA@ 1003905c     v8_libplatform:default-platform.obj
 0002:0000206c       ??_C@_0BI@CFPLBAOH@invalid?5string?5position?$AA@ 1003906c     v8_libplatform:default-platform.obj
 0002:00002088       ??_C@_1PM@NBGJMDGM@?$AAs?$AAt?$AAd?$AA?3?$AA?3?$AA_?$AAV?$AAe?$AAc?$AAt?$AAo?$AAr?$AA_?$AAc?$AAo?$AAn?$AAs?$AAt?$AA_?$AAi?$AAt?$AAe?$AAr?$AAa?$AAt?$AAo?$AAr?$AA?$DM?$AAc?$AAl?$AAa?$AAs@ 10039088     v8_libplatform:default-platform.obj
 0002:00002188       ??_C@_1EI@FHEHNNNM@?$AAm?$AAa?$AAp?$AA?1?$AAs?$AAe?$AAt?$AA?5?$AAi?$AAt?$AAe?$AAr?$AAa?$AAt?$AAo?$AAr?$AA?5?$AAn?$AAo?$AAt?$AA?5?$AAd?$AAe?$AAr?$AAe?$AAf?$AAe?$AAr?$AAe?$AAn?$AAc?$AAa@ 10039188     v8_libplatform:default-platform.obj
 0002:000021d0       ??_C@_1BPI@DIJHDDMG@?$AAs?$AAt?$AAd?$AA?3?$AA?3?$AA_?$AAT?$AAr?$AAe?$AAe?$AA_?$AAc?$AAo?$AAn?$AAs?$AAt?$AA_?$AAi?$AAt?$AAe?$AAr?$AAa?$AAt?$AAo?$AAr?$AA?$DM?$AAc?$AAl?$AAa?$AAs?$AAs?$AA?5@ 100391d0     v8_libplatform:default-platform.obj
 0002:000023c8       ??_C@_0BC@KBDMBKEH@deque?$DMT?$DO?5too?5long?$AA@ 100393c8     v8_libplatform:default-platform.obj
 0002:000023e0       ??_C@_1EK@PPDBPCAN@?$AAm?$AAa?$AAp?$AA?1?$AAs?$AAe?$AAt?$AA?5?$AAe?$AAr?$AAa?$AAs?$AAe?$AA?5?$AAi?$AAt?$AAe?$AAr?$AAa?$AAt?$AAo?$AAr?$AA?5?$AAo?$AAu?$AAt?$AAs?$AAi?$AAd?$AAe?$AA?5?$AAr@ 100393e0     v8_libplatform:default-platform.obj
 0002:00002430       ??_C@_1EE@INPCGGNP@?$AAd?$AAe?$AAq?$AAu?$AAe?$AA?5?$AAi?$AAt?$AAe?$AAr?$AAa?$AAt?$AAo?$AAr?$AA?5?$AAn?$AAo?$AAt?$AA?5?$AAd?$AAe?$AAr?$AAe?$AAf?$AAe?$AAr?$AAe?$AAn?$AAc?$AAa?$AAb?$AAl@ 10039430     v8_libplatform:default-platform.obj
 0002:00002478       ??_C@_1OG@MKOCFBBG@?$AAs?$AAt?$AAd?$AA?3?$AA?3?$AA_?$AAD?$AAe?$AAq?$AAu?$AAe?$AA_?$AAc?$AAo?$AAn?$AAs?$AAt?$AA_?$AAi?$AAt?$AAe?$AAr?$AAa?$AAt?$AAo?$AAr?$AA?$DM?$AAc?$AAl?$AAa?$AAs?$AAs@ 10039478     v8_libplatform:default-platform.obj
 0002:00002560       ??_C@_1JC@HALMDPKM@?$AAC?$AA?3?$AA?2?$AAP?$AAr?$AAo?$AAg?$AAr?$AAa?$AAm?$AA?5?$AAF?$AAi?$AAl?$AAe?$AAs?$AA?5?$AA?$CI?$AAx?$AA8?$AA6?$AA?$CJ?$AA?2?$AAM?$AAi?$AAc?$AAr?$AAo?$AAs?$AAo?$AAf?$AAt@ 10039560     v8_libplatform:default-platform.obj
 0002:000025f4       ??_C@_1CE@IGJMOCCK@?$AAi?$AAn?$AAv?$AAa?$AAl?$AAi?$AAd?$AA?5?$AAo?$AAp?$AAe?$AAr?$AAa?$AAt?$AAo?$AAr?$AA?$DM?$AA?$AA@ 100395f4     v8_libplatform:default-platform.obj
 0002:00002618       ??_C@_1EM@MHOKKPFH@?$AAm?$AAa?$AAp?$AA?1?$AAs?$AAe?$AAt?$AA?5?$AAi?$AAn?$AAs?$AAe?$AAr?$AAt?$AA?5?$AAi?$AAt?$AAe?$AAr?$AAa?$AAt?$AAo?$AAr?$AA?5?$AAo?$AAu?$AAt?$AAs?$AAi?$AAd?$AAe?$AA?5@ 10039618     v8_libplatform:default-platform.obj
 0002:00002668       ??_C@_1EG@OKCGOALM@?$AAm?$AAa?$AAp?$AA?1?$AAs?$AAe?$AAt?$AA?5?$AAi?$AAt?$AAe?$AAr?$AAa?$AAt?$AAo?$AAr?$AA?5?$AAn?$AAo?$AAt?$AA?5?$AAd?$AAe?$AAc?$AAr?$AAe?$AAm?$AAe?$AAn?$AAt?$AAa?$AAb@ 10039668     v8_libplatform:default-platform.obj
 0002:000026b0       ??_C@_1BPK@GNCNGOBC@?$AAs?$AAt?$AAd?$AA?3?$AA?3?$AA_?$AAT?$AAr?$AAe?$AAe?$AA_?$AAc?$AAo?$AAn?$AAs?$AAt?$AA_?$AAi?$AAt?$AAe?$AAr?$AAa?$AAt?$AAo?$AAr?$AA?$DM?$AAc?$AAl?$AAa?$AAs?$AAs?$AA?5@ 100396b0     v8_libplatform:default-platform.obj
 0002:000028ac       ??_C@_0BE@JONHPENG@map?1set?$DMT?$DO?5too?5long?$AA@ 100398ac     v8_libplatform:default-platform.obj
 0002:000028c0       ??_C@_1IO@LKIDJAMC@?$AAC?$AA?3?$AA?2?$AAP?$AAr?$AAo?$AAg?$AAr?$AAa?$AAm?$AA?5?$AAF?$AAi?$AAl?$AAe?$AAs?$AA?5?$AA?$CI?$AAx?$AA8?$AA6?$AA?$CJ?$AA?2?$AAM?$AAi?$AAc?$AAr?$AAo?$AAs?$AAo?$AAf?$AAt@ 100398c0     v8_libplatform:default-platform.obj
 0002:00002a80       ??_7WorkerThread@platform@v8@@6B@ 10039a80     v8_libplatform:worker-thread.obj
 0002:00002a8c       ??_7type_info@@6B@         10039a8c     MSVCRTD:ti_inst.obj
 0002:00002a90       ??_C@_1MC@KPMPFEII@?$AA?$CI?$AA_?$AA_?$AAo?$AAn?$AAe?$AAx?$AAi?$AAt?$AAb?$AAe?$AAg?$AAi?$AAn?$AA?5?$AA?$CB?$AA?$DN?$AA?5?$AAN?$AAU?$AAL?$AAL?$AA?5?$AA?$CG?$AA?$CG?$AA?5?$AA_?$AA_?$AAo?$AAn?$AAe?$AAx@ 10039a90     MSVCRTD:atonexit.obj
 0002:00002b58       ??_C@_1FK@IGIDCAPD@?$AAf?$AA?3?$AA?2?$AAd?$AAd?$AA?2?$AAv?$AAc?$AAt?$AAo?$AAo?$AAl?$AAs?$AA?2?$AAc?$AAr?$AAt?$AA?2?$AAc?$AAr?$AAt?$AAw?$AA3?$AA2?$AA?2?$AAd?$AAl?$AAl?$AAs?$AAt?$AAu?$AAf@ 10039b58     MSVCRTD:atonexit.obj
 0002:00002bb4       ??_C@_0CN@LMJJPMEG@f?3?2dd?2vctools?2crt?2crtw32?2dllstuf@ 10039bb4     MSVCRTD:atonexit.obj
 0002:00002be4       __pDefaultRawDllMain       10039be4     MSVCRTD:crtdll.obj
 0002:00002be4       __pRawDllMain              10039be4     MSVCRTD:crtdll.obj
 0002:00002be8       ??_C@_0CL@CCAGLLEM@f?3?2dd?2vctools?2crt?2crtw32?2dllstuf@ 10039be8     MSVCRTD:crtdll.obj
 0002:00002cb0       ??_C@_0NN@NGPKDKPD@The?5value?5of?5ESP?5was?5not?5properl@ 10039cb0     MSVCRTD:error.obj
 0002:00002d90       ??_C@_0BBN@GPMLNJCF@A?5cast?5to?5a?5smaller?5data?5type?5ha@ 10039d90     MSVCRTD:error.obj
 0002:00002eb0       ??_C@_0BN@FFOINMNJ@Stack?5memory?5was?5corrupted?6?$AN?$AA@ 10039eb0     MSVCRTD:error.obj
 0002:00002ed0       ??_C@_0DG@HKJMLLLP@A?5local?5variable?5was?5used?5before@ 10039ed0     MSVCRTD:error.obj
 0002:00002f08       ??_C@_0CM@NGINOKPC@Stack?5memory?5around?5_alloca?5was?5@ 10039f08     MSVCRTD:error.obj
 0002:00002f34       ??_C@_0BO@GNIAFIKK@Unknown?5Runtime?5Check?5Error?6?$AN?$AA@ 10039f34     MSVCRTD:error.obj
 0002:00002f58       ??_C@_1GM@OLMCBDMB@?$AAR?$AAu?$AAn?$AAt?$AAi?$AAm?$AAe?$AA?5?$AAC?$AAh?$AAe?$AAc?$AAk?$AA?5?$AAE?$AAr?$AAr?$AAo?$AAr?$AA?4?$AA?6?$AA?$AN?$AA?5?$AAU?$AAn?$AAa?$AAb?$AAl?$AAe?$AA?5?$AAt?$AAo@ 10039f58     MSVCRTD:error.obj
 0002:00002fc8       ??_C@_1EA@NFKNIFJP@?$AAR?$AAu?$AAn?$AA?9?$AAT?$AAi?$AAm?$AAe?$AA?5?$AAC?$AAh?$AAe?$AAc?$AAk?$AA?5?$AAF?$AAa?$AAi?$AAl?$AAu?$AAr?$AAe?$AA?5?$AA?$CD?$AA?$CF?$AAd?$AA?5?$AA?9?$AA?5?$AA?$CF?$AAs?$AA?$AA@ 10039fc8     MSVCRTD:error.obj
 0002:00003008       ??_C@_0BB@PFFGGCJP@Unknown?5Filename?$AA@ 1003a008     MSVCRTD:error.obj
 0002:0000301c       ??_C@_0BE@GNBOBNCK@Unknown?5Module?5Name?$AA@ 1003a01c     MSVCRTD:error.obj
 0002:00003030       ??_C@_0CA@IODNCDPG@Run?9Time?5Check?5Failure?5?$CD?$CFd?5?9?5?$CFs?$AA@ 1003a030     MSVCRTD:error.obj
 0002:00003050       ??_C@_0CG@IAFNJNEE@Stack?5corrupted?5near?5unknown?5var@ 1003a050     MSVCRTD:error.obj
 0002:00003094       ??_C@_0BJ@HEGAHDFO@Stack?5pointer?5corruption?$AA@ 1003a094     MSVCRTD:userapi.obj
 0002:000030b0       ??_C@_0CK@FEGOIOPB@Cast?5to?5smaller?5type?5causing?5los@ 1003a0b0     MSVCRTD:userapi.obj
 0002:000030dc       ??_C@_0BI@CIGMDCBH@Stack?5memory?5corruption?$AA@ 1003a0dc     MSVCRTD:userapi.obj
 0002:000030f4       ??_C@_0CK@CNLNOEPB@Local?5variable?5used?5before?5initi@ 1003a0f4     MSVCRTD:userapi.obj
 0002:00003120       ??_C@_0BP@OGBCLIBO@Stack?5around?5_alloca?5corrupted?$AA@ 1003a120     MSVCRTD:userapi.obj
 0002:00003180       ??_C@_1BK@GAEMIDIL@?$AAA?$AAD?$AAV?$AAA?$AAP?$AAI?$AA3?$AA2?$AA?4?$AAD?$AAL?$AAL?$AA?$AA@ 1003a180     MSVCRTD:pdblkup.obj
 0002:0000319c       ??_C@_0O@COHOBMLB@RegOpenKeyExW?$AA@ 1003a19c     MSVCRTD:pdblkup.obj
 0002:000031ac       ??_C@_0BB@GLNAEDBD@RegQueryValueExW?$AA@ 1003a1ac     MSVCRTD:pdblkup.obj
 0002:000031c0       ??_C@_0M@HLOHPNFA@RegCloseKey?$AA@ 1003a1c0     MSVCRTD:pdblkup.obj
 0002:000031d0       ??_C@_1FM@EGIBBNPP@?$AAS?$AAO?$AAF?$AAT?$AAW?$AAA?$AAR?$AAE?$AA?2?$AAM?$AAi?$AAc?$AAr?$AAo?$AAs?$AAo?$AAf?$AAt?$AA?2?$AAV?$AAi?$AAs?$AAu?$AAa?$AAl?$AAS?$AAt?$AAu?$AAd?$AAi?$AAo?$AA?2@ 1003a1d0     MSVCRTD:pdblkup.obj
 0002:0000322c       ??_C@_1BG@EABPBLLF@?$AAP?$AAr?$AAo?$AAd?$AAu?$AAc?$AAt?$AAD?$AAi?$AAr?$AA?$AA@ 1003a22c     MSVCRTD:pdblkup.obj
 0002:00003260       ??_C@_1BC@EOIMGOME@?$AAM?$AAS?$AAP?$AAD?$AAB?$AA1?$AA2?$AA0?$AA?$AA@ 1003a260     MSVCRTD:pdblkup.obj
 0002:00003274       ??_C@_0BB@KCIACLNC@PDBOpenValidate5?$AA@ 1003a274     MSVCRTD:pdblkup.obj
 0002:00003288       ??_C@_01KDCPPGHE@r?$AA@    1003a288     MSVCRTD:pdblkup.obj
 0002:000033ec       ??_C@_0DH@KCFGDIMO@CHECK_EQ?$CI?$CFs?0?5?$CFs?$CJ?5failed?6?$CD?5?5?5Expe@ 1003a3ec     v8_libbase:mutex.obj
 0002:00003424       ??_C@_06HADIPJHI@level_?$AA@ 1003a424     v8_libbase:mutex.obj
 0002:0000342c       ??_C@_01HIHLOKLC@1?$AA@    1003a42c     v8_libbase:mutex.obj
 0002:00003430       ??_C@_0GF@OOCGCIJP@C?3?2Data?2Visual?5Studio?2Projects?2V@ 1003a430     v8_libbase:mutex.obj
 0002:00003498       ??_C@_01GBGANLPD@0?$AA@    1003a498     v8_libbase:mutex.obj
 0002:00003b84       ?LogFileOpenMode@OS@base@v8@@2QBDB 1003ab84     v8_libbase:platform-win32.obj
 0002:00003bfc       ??_7Thread@base@v8@@6B@    1003abfc     v8_libbase:platform-win32.obj
 0002:00003f18       __load_config_used         1003af18     MSVCRTD:loadcfg.obj
 0002:00003fdc       ??_R4type_info@@6B@        1003afdc     MSVCRTD:ti_inst.obj
 0002:00003ff0       ??_R3type_info@@8          1003aff0     MSVCRTD:ti_inst.obj
 0002:00004000       ??_R2type_info@@8          1003b000     MSVCRTD:ti_inst.obj
 0002:00004008       ??_R1A@?0A@EA@type_info@@8 1003b008     MSVCRTD:ti_inst.obj
 0002:00004030       ___safe_se_handler_table   1003b030     <linker-defined>
 0002:00004444       ___rtc_iaa                 1003b444     MSVCRTD:initsect.obj
 0002:00004448       ___rtc_izz                 1003b448     MSVCRTD:initsect.obj
 0002:0000444c       ___rtc_taa                 1003b44c     MSVCRTD:initsect.obj
 0002:00004450       ___rtc_tzz                 1003b450     MSVCRTD:initsect.obj
 0002:000051fc       __TI1?AVexception@std@@    1003c1fc     Exports.obj
 0002:0000520c       __CTA1?AVexception@std@@   1003c20c     Exports.obj
 0002:00005214       __CT??_R0?AVexception@std@@@8??0exception@std@@QAE@ABV01@@Z12 1003c214     Exports.obj
 0002:00008a78       __IMPORT_DESCRIPTOR_v8-ia32 1003fa78     v8-ia32:v8-ia32.dll
 0002:00008a8c       __IMPORT_DESCRIPTOR_KERNEL32 1003fa8c     kernel32:KERNEL32.dll
 0002:00008aa0       __IMPORT_DESCRIPTOR_MSVCP120D 1003faa0     msvcprtd:MSVCP120D.dll
 0002:00008ab4       __IMPORT_DESCRIPTOR_MSVCR120D 1003fab4     MSVCRTD:MSVCR120D.dll
 0002:00008ac8       __NULL_IMPORT_DESCRIPTOR   1003fac8     v8-ia32:v8-ia32.dll
 0003:00000000       ___security_cookie         10043000     MSVCRTD:gs_cookie.obj
 0003:00000004       ___security_cookie_complement 10043004     MSVCRTD:gs_cookie.obj
 0003:00000010       ?_RTC_ErrorLevels@@3PAHA   10043010     MSVCRTD:error.obj
 0003:00000024       ___native_dllmain_reason   10043024     MSVCRTD:natstart.obj
 0003:00000030       ??_R0?AVexception@std@@@8  10043030     Exports.obj
 0003:0000004c       ??_R0?AVtype_info@@@8      1004304c     MSVCRTD:ti_inst.obj
 0003:00000084       ?_NextEngineID@V8EngineProxy@@1HA 10043084     V8EngineProxy.obj
 0003:00000090       ?_DisposedEngines@V8EngineProxy@@1V?$vector@_NV?$allocator@_N@std@@@std@@A 10043090     V8EngineProxy.obj
 0003:000000b0       ?_Generic_object@?$_Error_objects@H@std@@2V_Generic_error_category@2@A 100430b0     v8_libplatform:default-platform.obj
 0003:000000b4       ?_Iostream_object@?$_Error_objects@H@std@@2V_Iostream_error_category@2@A 100430b4     v8_libplatform:default-platform.obj
 0003:000000b8       ?_System_object@?$_Error_objects@H@std@@2V_System_error_category@2@A 100430b8     v8_libplatform:default-platform.obj
 0003:000000bc       ?id@?$num_put@DV?$back_insert_iterator@V?$basic_string@DU?$char_traits@D@std@@V?$allocator@D@2@@std@@@std@@@std@@2V0locale@2@A 100430bc     v8_libplatform:default-platform.obj
 0003:000000c0       ?id@?$num_put@_WV?$back_insert_iterator@V?$basic_string@_WU?$char_traits@_W@std@@V?$allocator@_W@2@@std@@@std@@@std@@2V0locale@2@A 100430c0     v8_libplatform:default-platform.obj
 0003:000000cc       ?wsprintffp@@3P6AHPADPBDZZA 100430cc     MSVCRTD:error.obj
 0003:000003f8       ?__type_info_root_node@@3U__type_info_node@@A 100433f8     MSVCRTD:tncleanup.obj
 0003:00000430       ?_SymInitialize@base@v8@@3P6GHPAXPADH@ZA 10043430     v8_libbase:platform-win32.obj
 0003:00000434       ?_SymGetOptions@base@v8@@3P6GKXZA 10043434     v8_libbase:platform-win32.obj
 0003:00000438       ?_SymSetOptions@base@v8@@3P6GKK@ZA 10043438     v8_libbase:platform-win32.obj
 0003:0000043c       ?_SymGetSearchPath@base@v8@@3P6GHPAXPADK@ZA 1004343c     v8_libbase:platform-win32.obj
 0003:00000440       ?_SymLoadModule64@base@v8@@3P6G_KPAX0PAD1_KK@ZA 10043440     v8_libbase:platform-win32.obj
 0003:00000444       ?_StackWalk64@base@v8@@3P6GHKPAX0PAU_tagSTACKFRAME64@@0P6GH0_K0KPAK@ZP6GPAX02@ZP6G_K02@ZP6G_K00PAU_tagADDRESS64@@@Z@ZA 10043444     v8_libbase:platform-win32.obj
 0003:00000448       ?_SymGetSymFromAddr64@base@v8@@3P6GHPAX_KPA_KPAU_IMAGEHLP_SYMBOL64@@@ZA 10043448     v8_libbase:platform-win32.obj
 0003:0000044c       ?_SymGetLineFromAddr64@base@v8@@3P6GHPAX_KPAKPAU_IMAGEHLP_LINE64@@@ZA 1004344c     v8_libbase:platform-win32.obj
 0003:00000450       ?_SymFunctionTableAccess64@base@v8@@3P6GPAXPAX_K@ZA 10043450     v8_libbase:platform-win32.obj
 0003:00000454       ?_SymGetModuleBase64@base@v8@@3P6G_KPAX_K@ZA 10043454     v8_libbase:platform-win32.obj
 0003:00000458       ?_CreateToolhelp32Snapshot@base@v8@@3P6GPAXKK@ZA 10043458     v8_libbase:platform-win32.obj
 0003:0000045c       ?_Module32FirstW@base@v8@@3P6GHPAXPAUtagMODULEENTRY32W@@@ZA 1004345c     v8_libbase:platform-win32.obj
 0003:00000460       ?_Module32NextW@base@v8@@3P6GHPAXPAUtagMODULEENTRY32W@@@ZA 10043460     v8_libbase:platform-win32.obj
 0003:00000464       ?g_hard_abort@?A0xd8c4af26@base@v8@@3_NA 10043464     v8_libbase:platform-win32.obj
 0003:00000548       ___native_startup_lock     10043548     <common>
 0003:0000054c       ___native_startup_state    1004354c     <common>
 0003:00000550       ___dyn_tls_init_callback   10043550     <common>
 0003:00000554       ___onexitend               10043554     <common>
 0003:00000558       ___onexitbegin             10043558     <common>

 entry point at        0001:0002e780

 Static symbols

 0000:fffb8000       .debug$S                   10000000     MSVCRTD:MSVCR120D.dll
 0000:fffb8000       .debug$S                   10000000     MSVCRTD:MSVCR120D.dll
 0000:fffb8000       .debug$S                   10000000     MSVCRTD:MSVCR120D.dll
 0000:fffb8000       .debug$S                   10000000     MSVCRTD:MSVCR120D.dll
 0000:fffb8000       .debug$S                   10000000     MSVCRTD:MSVCR120D.dll
 0000:fffb8000       .debug$S                   10000000     MSVCRTD:MSVCR120D.dll
 0000:fffb8000       .debug$S                   10000000     MSVCRTD:MSVCR120D.dll
 0000:fffb8000       .debug$S                   10000000     MSVCRTD:MSVCR120D.dll
 0000:fffb8000       .debug$S                   10000000     MSVCRTD:MSVCR120D.dll
 0000:fffb8000       .debug$S                   10000000     MSVCRTD:MSVCR120D.dll
 0000:fffb8000       .debug$S                   10000000     MSVCRTD:MSVCR120D.dll
 0000:fffb8000       .debug$S                   10000000     MSVCRTD:MSVCR120D.dll
 0000:fffb8000       .debug$S                   10000000     MSVCRTD:MSVCR120D.dll
 0000:fffb8000       .debug$S                   10000000     MSVCRTD:MSVCR120D.dll
 0000:fffb8000       .debug$S                   10000000     MSVCRTD:MSVCR120D.dll
 0000:fffb8000       .debug$S                   10000000     MSVCRTD:MSVCR120D.dll
 0000:fffb8000       .debug$S                   10000000     MSVCRTD:MSVCR120D.dll
 0000:fffb8000       .debug$S                   10000000     MSVCRTD:MSVCR120D.dll
 0000:fffb8000       .debug$S                   10000000     MSVCRTD:MSVCR120D.dll
 0000:fffb8000       .debug$S                   10000000     MSVCRTD:MSVCR120D.dll
 0000:fffb8000       .debug$S                   10000000     MSVCRTD:MSVCR120D.dll
 0000:fffb8000       .debug$S                   10000000     MSVCRTD:MSVCR120D.dll
 0000:fffb8000       .debug$S                   10000000     MSVCRTD:MSVCR120D.dll
 0000:fffb8000       .debug$S                   10000000     MSVCRTD:MSVCR120D.dll
 0000:fffb8000       .debug$S                   10000000     MSVCRTD:MSVCR120D.dll
 0000:fffb8000       .debug$S                   10000000     MSVCRTD:MSVCR120D.dll
 0000:fffb8000       .debug$S                   10000000     MSVCRTD:MSVCR120D.dll
 0000:fffb8000       .debug$S                   10000000     MSVCRTD:MSVCR120D.dll
 0000:fffb8000       .debug$S                   10000000     MSVCRTD:MSVCR120D.dll
 0000:fffb8000       .debug$S                   10000000     MSVCRTD:MSVCR120D.dll
 0000:fffb8000       .debug$S                   10000000     MSVCRTD:MSVCR120D.dll
 0000:fffb8000       .debug$S                   10000000     MSVCRTD:MSVCR120D.dll
 0000:fffb8000       .debug$S                   10000000     MSVCRTD:MSVCR120D.dll
 0000:fffb8000       .debug$S                   10000000     MSVCRTD:MSVCR120D.dll
 0000:fffb8000       .debug$S                   10000000     MSVCRTD:MSVCR120D.dll
 0000:fffb8000       .debug$S                   10000000     MSVCRTD:MSVCR120D.dll
 0000:fffb8000       .debug$S                   10000000     MSVCRTD:MSVCR120D.dll
 0000:fffb8000       .debug$S                   10000000     MSVCRTD:MSVCR120D.dll
 0000:fffb8000       .debug$S                   10000000     MSVCRTD:MSVCR120D.dll
 0000:fffb8000       .debug$S                   10000000     MSVCRTD:MSVCR120D.dll
 0000:fffb8000       .debug$S                   10000000     MSVCRTD:MSVCR120D.dll
 0000:fffb8000       .debug$S                   10000000     MSVCRTD:MSVCR120D.dll
 0000:fffb8000       .debug$S                   10000000     MSVCRTD:MSVCR120D.dll
 0000:fffb8000       .debug$S                   10000000     MSVCRTD:MSVCR120D.dll
 0000:fffb8000       .debug$S                   10000000     MSVCRTD:MSVCR120D.dll
 0000:fffb8000       .debug$S                   10000000     MSVCRTD:MSVCR120D.dll
 0000:fffb8000       .debug$S                   10000000     MSVCRTD:MSVCR120D.dll
 0000:fffb8000       .debug$S                   10000000     MSVCRTD:MSVCR120D.dll
 0000:fffb8000       .debug$S                   10000000     MSVCRTD:MSVCR120D.dll
 0000:fffb8000       .debug$S                   10000000     MSVCRTD:MSVCR120D.dll
 0000:fffb8000       .debug$S                   10000000     MSVCRTD:MSVCR120D.dll
 0000:fffb8000       .debug$S                   10000000     MSVCRTD:MSVCR120D.dll
 0000:fffb8000       .debug$S                   10000000     MSVCRTD:MSVCR120D.dll
 0000:fffb8000       .debug$S                   10000000     MSVCRTD:MSVCR120D.dll
 0000:fffb8000       .debug$S                   10000000     MSVCRTD:MSVCR120D.dll
 0002:fffc9000       .idata$6                   10000000     winmm:WINMM.dll
 0000:fffb8000       .debug$S                   10000000     winmm:WINMM.dll
 0000:fffb8000       .debug$S                   10000000     msvcprtd:MSVCP120D.dll
 0000:fffb8000       .debug$S                   10000000     msvcprtd:MSVCP120D.dll
 0000:fffb8000       .debug$S                   10000000     msvcprtd:MSVCP120D.dll
 0000:fffb8000       .debug$S                   10000000     msvcprtd:MSVCP120D.dll
 0000:fffb8000       .debug$S                   10000000     msvcprtd:MSVCP120D.dll
 0000:fffb8000       .debug$S                   10000000     msvcprtd:MSVCP120D.dll
 0000:fffb8000       .debug$S                   10000000     msvcprtd:MSVCP120D.dll
 0000:fffb8000       .debug$S                   10000000     msvcprtd:MSVCP120D.dll
 0000:fffb8000       .debug$S                   10000000     msvcprtd:MSVCP120D.dll
 0000:fffb8000       .debug$S                   10000000     msvcprtd:MSVCP120D.dll
 0000:fffb8000       .debug$S                   10000000     v8-ia32:v8-ia32.dll
 0000:fffb8000       .debug$S                   10000000     v8-ia32:v8-ia32.dll
 0000:fffb8000       .debug$S                   10000000     v8-ia32:v8-ia32.dll
 0000:fffb8000       .debug$S                   10000000     v8-ia32:v8-ia32.dll
 0000:fffb8000       .debug$S                   10000000     msvcprtd:MSVCP120D.dll
 0000:fffb8000       .debug$S                   10000000     msvcprtd:MSVCP120D.dll
 0000:fffb8000       .debug$S                   10000000     msvcprtd:MSVCP120D.dll
 0000:fffb8000       .debug$S                   10000000     msvcprtd:MSVCP120D.dll
 0000:fffb8000       .debug$S                   10000000     msvcprtd:MSVCP120D.dll
 0000:fffb8000       .debug$S                   10000000     msvcprtd:MSVCP120D.dll
 0000:fffb8000       .debug$S                   10000000     msvcprtd:MSVCP120D.dll
 0000:fffb8000       .debug$S                   10000000     msvcprtd:MSVCP120D.dll
 0000:fffb8000       .debug$S                   10000000     msvcprtd:MSVCP120D.dll
 0000:fffb8000       .debug$S                   10000000     v8-ia32:v8-ia32.dll
 0000:fffb8000       .debug$S                   10000000     v8-ia32:v8-ia32.dll
 0000:fffb8000       .debug$S                   10000000     v8-ia32:v8-ia32.dll
 0000:fffb8000       .debug$S                   10000000     v8-ia32:v8-ia32.dll
 0000:fffb8000       .debug$S                   10000000     v8-ia32:v8-ia32.dll
 0000:fffb8000       .debug$S                   10000000     kernel32:KERNEL32.dll
 0000:fffb8000       .debug$S                   10000000     kernel32:KERNEL32.dll
 0000:fffb8000       .debug$S                   10000000     kernel32:KERNEL32.dll
 0000:fffb8000       .debug$S                   10000000     kernel32:KERNEL32.dll
 0000:fffb8000       .debug$S                   10000000     kernel32:KERNEL32.dll
 0000:fffb8000       .debug$S                   10000000     kernel32:KERNEL32.dll
 0000:fffb8000       .debug$S                   10000000     kernel32:KERNEL32.dll
 0000:fffb8000       .debug$S                   10000000     kernel32:KERNEL32.dll
 0000:fffb8000       .debug$S                   10000000     kernel32:KERNEL32.dll
 0000:fffb8000       .debug$S                   10000000     kernel32:KERNEL32.dll
 0000:fffb8000       .debug$S                   10000000     kernel32:KERNEL32.dll
 0000:fffb8000       .debug$S                   10000000     kernel32:KERNEL32.dll
 0000:fffb8000       .debug$S                   10000000     kernel32:KERNEL32.dll
 0000:fffb8000       .debug$S                   10000000     kernel32:KERNEL32.dll
 0000:fffb8000       .debug$S                   10000000     kernel32:KERNEL32.dll
 0000:fffb8000       .debug$S                   10000000     kernel32:KERNEL32.dll
 0000:fffb8000       .debug$S                   10000000     kernel32:KERNEL32.dll
 0000:fffb8000       .debug$S                   10000000     kernel32:KERNEL32.dll
 0000:fffb8000       .debug$S                   10000000     kernel32:KERNEL32.dll
 0000:fffb8000       .debug$S                   10000000     kernel32:KERNEL32.dll
 0000:fffb8000       .debug$S                   10000000     kernel32:KERNEL32.dll
 0000:fffb8000       .debug$S                   10000000     kernel32:KERNEL32.dll
 0000:fffb8000       .debug$S                   10000000     kernel32:KERNEL32.dll
 0000:fffb8000       .debug$S                   10000000     kernel32:KERNEL32.dll
 0000:fffb8000       .debug$S                   10000000     kernel32:KERNEL32.dll
 0000:fffb8000       .debug$S                   10000000     kernel32:KERNEL32.dll
 0000:fffb8000       .debug$S                   10000000     kernel32:KERNEL32.dll
 0000:fffb8000       .debug$S                   10000000     kernel32:KERNEL32.dll
 0000:fffb8000       .debug$S                   10000000     kernel32:KERNEL32.dll
 0000:fffb8000       .debug$S                   10000000     kernel32:KERNEL32.dll
 0000:fffb8000       .debug$S                   10000000     kernel32:KERNEL32.dll
 0000:fffb8000       .debug$S                   10000000     kernel32:KERNEL32.dll
 0000:fffb8000       .debug$S                   10000000     kernel32:KERNEL32.dll
 0000:fffb8000       .debug$S                   10000000     kernel32:KERNEL32.dll
 0000:fffb8000       .debug$S                   10000000     kernel32:KERNEL32.dll
 0000:fffb8000       .debug$S                   10000000     kernel32:KERNEL32.dll
 0000:fffb8000       .debug$S                   10000000     kernel32:KERNEL32.dll
 0000:fffb8000       .debug$S                   10000000     kernel32:KERNEL32.dll
 0000:fffb8000       .debug$S                   10000000     kernel32:KERNEL32.dll
 0000:fffb8000       .debug$S                   10000000     kernel32:KERNEL32.dll
 0000:fffb8000       .debug$S                   10000000     kernel32:KERNEL32.dll
 0000:fffb8000       .debug$S                   10000000     kernel32:KERNEL32.dll
 0000:fffb8000       .debug$S                   10000000     kernel32:KERNEL32.dll
 0000:fffb8000       .debug$S                   10000000     kernel32:KERNEL32.dll
 0000:fffb8000       .debug$S                   10000000     kernel32:KERNEL32.dll
 0000:fffb8000       .debug$S                   10000000     kernel32:KERNEL32.dll
 0000:fffb8000       .debug$S                   10000000     kernel32:KERNEL32.dll
 0000:fffb8000       .debug$S                   10000000     kernel32:KERNEL32.dll
 0000:fffb8000       .debug$S                   10000000     kernel32:KERNEL32.dll
 0000:fffb8000       .debug$S                   10000000     kernel32:KERNEL32.dll
 0000:fffb8000       .debug$S                   10000000     kernel32:KERNEL32.dll
 0000:fffb8000       .debug$S                   10000000     kernel32:KERNEL32.dll
 0000:fffb8000       .debug$S                   10000000     kernel32:KERNEL32.dll
 0000:fffb8000       .debug$S                   10000000     kernel32:KERNEL32.dll
 0000:fffb8000       .debug$S                   10000000     kernel32:KERNEL32.dll
 0000:fffb8000       .debug$S                   10000000     kernel32:KERNEL32.dll
 0000:fffb8000       .debug$S                   10000000     kernel32:KERNEL32.dll
 0000:fffb8000       .debug$S                   10000000     kernel32:KERNEL32.dll
 0000:fffb8000       .debug$S                   10000000     kernel32:KERNEL32.dll
 0000:fffb8000       .debug$S                   10000000     kernel32:KERNEL32.dll
 0000:fffb8000       .debug$S                   10000000     kernel32:KERNEL32.dll
 0000:fffb8000       .debug$S                   10000000     kernel32:KERNEL32.dll
 0000:fffb8000       .debug$S                   10000000     kernel32:KERNEL32.dll
 0000:fffb8000       .debug$S                   10000000     v8-ia32:v8-ia32.dll
 0000:fffb8000       .debug$S                   10000000     v8-ia32:v8-ia32.dll
 0000:fffb8000       .debug$S                   10000000     v8-ia32:v8-ia32.dll
 0000:fffb8000       .debug$S                   10000000     v8-ia32:v8-ia32.dll
 0000:fffb8000       .debug$S                   10000000     v8-ia32:v8-ia32.dll
 0000:fffb8000       .debug$S                   10000000     v8-ia32:v8-ia32.dll
 0000:fffb8000       .debug$S                   10000000     v8-ia32:v8-ia32.dll
 0000:fffb8000       .debug$S                   10000000     v8-ia32:v8-ia32.dll
 0000:fffb8000       .debug$S                   10000000     v8-ia32:v8-ia32.dll
 0000:fffb8000       .debug$S                   10000000     v8-ia32:v8-ia32.dll
 0000:fffb8000       .debug$S                   10000000     v8-ia32:v8-ia32.dll
 0000:fffb8000       .debug$S                   10000000     v8-ia32:v8-ia32.dll
 0000:fffb8000       .debug$S                   10000000     v8-ia32:v8-ia32.dll
 0000:fffb8000       .debug$S                   10000000     v8-ia32:v8-ia32.dll
 0000:fffb8000       .debug$S                   10000000     v8-ia32:v8-ia32.dll
 0000:fffb8000       .debug$S                   10000000     v8-ia32:v8-ia32.dll
 0000:fffb8000       .debug$S                   10000000     v8-ia32:v8-ia32.dll
 0000:fffb8000       .debug$S                   10000000     v8-ia32:v8-ia32.dll
 0000:fffb8000       .debug$S                   10000000     v8-ia32:v8-ia32.dll
 0000:fffb8000       .debug$S                   10000000     v8-ia32:v8-ia32.dll
 0000:fffb8000       .debug$S                   10000000     v8-ia32:v8-ia32.dll
 0000:fffb8000       .debug$S                   10000000     v8-ia32:v8-ia32.dll
 0000:fffb8000       .debug$S                   10000000     v8-ia32:v8-ia32.dll
 0000:fffb8000       .debug$S                   10000000     v8-ia32:v8-ia32.dll
 0000:fffb8000       .debug$S                   10000000     v8-ia32:v8-ia32.dll
 0000:fffb8000       .debug$S                   10000000     v8-ia32:v8-ia32.dll
 0000:fffb8000       .debug$S                   10000000     v8-ia32:v8-ia32.dll
 0000:fffb8000       .debug$S                   10000000     v8-ia32:v8-ia32.dll
 0000:fffb8000       .debug$S                   10000000     v8-ia32:v8-ia32.dll
 0000:fffb8000       .debug$S                   10000000     v8-ia32:v8-ia32.dll
 0000:fffb8000       .debug$S                   10000000     v8-ia32:v8-ia32.dll
 0000:fffb8000       .debug$S                   10000000     v8-ia32:v8-ia32.dll
 0000:fffb8000       .debug$S                   10000000     v8-ia32:v8-ia32.dll
 0000:fffb8000       .debug$S                   10000000     v8-ia32:v8-ia32.dll
 0000:fffb8000       .debug$S                   10000000     v8-ia32:v8-ia32.dll
 0000:fffb8000       .debug$S                   10000000     v8-ia32:v8-ia32.dll
 0000:fffb8000       .debug$S                   10000000     v8-ia32:v8-ia32.dll
 0000:fffb8000       .debug$S                   10000000     v8-ia32:v8-ia32.dll
 0000:fffb8000       .debug$S                   10000000     v8-ia32:v8-ia32.dll
 0000:fffb8000       .debug$S                   10000000     v8-ia32:v8-ia32.dll
 0000:fffb8000       .debug$S                   10000000     v8-ia32:v8-ia32.dll
 0000:fffb8000       .debug$S                   10000000     v8-ia32:v8-ia32.dll
 0000:fffb8000       .debug$S                   10000000     v8-ia32:v8-ia32.dll
 0000:fffb8000       .debug$S                   10000000     v8-ia32:v8-ia32.dll
 0000:fffb8000       .debug$S                   10000000     v8-ia32:v8-ia32.dll
 0000:fffb8000       .debug$S                   10000000     v8-ia32:v8-ia32.dll
 0000:fffb8000       .debug$S                   10000000     v8-ia32:v8-ia32.dll
 0000:fffb8000       .debug$S                   10000000     v8-ia32:v8-ia32.dll
 0000:fffb8000       .debug$S                   10000000     v8-ia32:v8-ia32.dll
 0000:fffb8000       .debug$S                   10000000     v8-ia32:v8-ia32.dll
 0000:fffb8000       .debug$S                   10000000     v8-ia32:v8-ia32.dll
 0000:fffb8000       .debug$S                   10000000     v8-ia32:v8-ia32.dll
 0000:fffb8000       .debug$S                   10000000     v8-ia32:v8-ia32.dll
 0000:fffb8000       .debug$S                   10000000     v8-ia32:v8-ia32.dll
 0000:fffb8000       .debug$S                   10000000     v8-ia32:v8-ia32.dll
 0000:fffb8000       .debug$S                   10000000     v8-ia32:v8-ia32.dll
 0000:fffb8000       .debug$S                   10000000     v8-ia32:v8-ia32.dll
 0000:fffb8000       .debug$S                   10000000     v8-ia32:v8-ia32.dll
 0000:fffb8000       .debug$S                   10000000     v8-ia32:v8-ia32.dll
 0000:fffb8000       .debug$S                   10000000     v8-ia32:v8-ia32.dll
 0000:fffb8000       .debug$S                   10000000     v8-ia32:v8-ia32.dll
 0000:fffb8000       .debug$S                   10000000     v8-ia32:v8-ia32.dll
 0000:fffb8000       .debug$S                   10000000     v8-ia32:v8-ia32.dll
 0000:fffb8000       .debug$S                   10000000     v8-ia32:v8-ia32.dll
 0000:fffb8000       .debug$S                   10000000     v8-ia32:v8-ia32.dll
 0000:fffb8000       .debug$S                   10000000     v8-ia32:v8-ia32.dll
 0000:fffb8000       .debug$S                   10000000     v8-ia32:v8-ia32.dll
 0000:fffb8000       .debug$S                   10000000     v8-ia32:v8-ia32.dll
 0000:fffb8000       .debug$S                   10000000     v8-ia32:v8-ia32.dll
 0000:fffb8000       .debug$S                   10000000     v8-ia32:v8-ia32.dll
 0000:fffb8000       .debug$S                   10000000     v8-ia32:v8-ia32.dll
 0000:fffb8000       .debug$S                   10000000     v8-ia32:v8-ia32.dll
 0000:fffb8000       .debug$S                   10000000     v8-ia32:v8-ia32.dll
 0000:fffb8000       .debug$S                   10000000     v8-ia32:v8-ia32.dll
 0000:fffb8000       .debug$S                   10000000     v8-ia32:v8-ia32.dll
 0000:fffb8000       .debug$S                   10000000     v8-ia32:v8-ia32.dll
 0000:fffb8000       .debug$S                   10000000     v8-ia32:v8-ia32.dll
 0000:fffb8000       .debug$S                   10000000     v8-ia32:v8-ia32.dll
 0000:fffb8000       .debug$S                   10000000     v8-ia32:v8-ia32.dll
 0000:fffb8000       .debug$S                   10000000     v8-ia32:v8-ia32.dll
 0000:fffb8000       .debug$S                   10000000     v8-ia32:v8-ia32.dll
 0000:fffb8000       .debug$S                   10000000     v8-ia32:v8-ia32.dll
 0000:fffb8000       .debug$S                   10000000     v8-ia32:v8-ia32.dll
 0000:fffb8000       .debug$S                   10000000     v8-ia32:v8-ia32.dll
 0000:fffb8000       .debug$S                   10000000     v8-ia32:v8-ia32.dll
 0000:fffb8000       .debug$S                   10000000     v8-ia32:v8-ia32.dll
 0000:fffb8000       .debug$S                   10000000     v8-ia32:v8-ia32.dll
 0000:fffb8000       .debug$S                   10000000     v8-ia32:v8-ia32.dll
 0000:fffb8000       .debug$S                   10000000     v8-ia32:v8-ia32.dll
 0000:fffb8000       .debug$S                   10000000     v8-ia32:v8-ia32.dll
 0000:fffb8000       .debug$S                   10000000     v8-ia32:v8-ia32.dll
 0000:fffb8000       .debug$S                   10000000     v8-ia32:v8-ia32.dll
 0000:fffb8000       .debug$S                   10000000     v8-ia32:v8-ia32.dll
 0000:fffb8000       .debug$S                   10000000     v8-ia32:v8-ia32.dll
 0000:fffb8000       .debug$S                   10000000     v8-ia32:v8-ia32.dll
 0000:fffb8000       .debug$S                   10000000     v8-ia32:v8-ia32.dll
 0000:fffb8000       .debug$S                   10000000     v8-ia32:v8-ia32.dll
 0000:fffb8000       .debug$S                   10000000     v8-ia32:v8-ia32.dll
 0000:fffb8000       .debug$S                   10000000     v8-ia32:v8-ia32.dll
 0000:fffb8000       .debug$S                   10000000     v8-ia32:v8-ia32.dll
 0000:fffb8000       .debug$S                   10000000     v8-ia32:v8-ia32.dll
 0000:fffb8000       .debug$S                   10000000     v8-ia32:v8-ia32.dll
 0000:fffb8000       .debug$S                   10000000     v8-ia32:v8-ia32.dll
 0000:fffb8000       .debug$S                   10000000     v8-ia32:v8-ia32.dll
 0000:fffb8000       .debug$S                   10000000     v8-ia32:v8-ia32.dll
 0001:00000000       ??__E_Tuple_alloc@std@@YAXXZ 10001000 f   Exports.obj
 0001:00000030       ??__Eallocator_arg@std@@YAXXZ 10001030 f   Exports.obj
 0001:00000060       ??__Eignore@std@@YAXXZ     10001060 f   Exports.obj
 0001:000000a0       ??__Epiecewise_construct@std@@YAXXZ 100010a0 f   Exports.obj
 0001:000000d0       ??__E_Tuple_alloc@std@@YAXXZ 100010d0 f   FunctionTemplateProxy.obj
 0001:00000100       ??__Eallocator_arg@std@@YAXXZ 10001100 f   FunctionTemplateProxy.obj
 0001:00000130       ??__Eignore@std@@YAXXZ     10001130 f   FunctionTemplateProxy.obj
 0001:00000170       ??__Epiecewise_construct@std@@YAXXZ 10001170 f   FunctionTemplateProxy.obj
 0001:000001a0       ??__E_Tuple_alloc@std@@YAXXZ 100011a0 f   HandleProxy.obj
 0001:000001d0       ??__Eallocator_arg@std@@YAXXZ 100011d0 f   HandleProxy.obj
 0001:00000200       ??__Eignore@std@@YAXXZ     10001200 f   HandleProxy.obj
 0001:00000240       ??__Epiecewise_construct@std@@YAXXZ 10001240 f   HandleProxy.obj
 0001:00000270       ??__E_Tuple_alloc@std@@YAXXZ 10001270 f   ObjectTemplateProxy.obj
 0001:000002a0       ??__Eallocator_arg@std@@YAXXZ 100012a0 f   ObjectTemplateProxy.obj
 0001:000002d0       ??__Eignore@std@@YAXXZ     100012d0 f   ObjectTemplateProxy.obj
 0001:00000310       ??__Epiecewise_construct@std@@YAXXZ 10001310 f   ObjectTemplateProxy.obj
 0001:00000340       ??__E_Tuple_alloc@std@@YAXXZ 10001340 f   Utilities.obj
 0001:00000370       ??__Eallocator_arg@std@@YAXXZ 10001370 f   Utilities.obj
 0001:000003a0       ??__Eignore@std@@YAXXZ     100013a0 f   Utilities.obj
 0001:000003e0       ??__Epiecewise_construct@std@@YAXXZ 100013e0 f   Utilities.obj
 0001:00000410       ??__E?_DisposedEngines@V8EngineProxy@@1V?$vector@_NV?$allocator@_N@std@@@std@@A@@YAXXZ 10001410 f   V8EngineProxy.obj
 0001:00000470       ??__E_Tuple_alloc@std@@YAXXZ 10001470 f   V8EngineProxy.obj
 0001:000004a0       ??__Eallocator_arg@std@@YAXXZ 100014a0 f   V8EngineProxy.obj
 0001:000004d0       ??__Eignore@std@@YAXXZ     100014d0 f   V8EngineProxy.obj
 0001:00000510       ??__Epiecewise_construct@std@@YAXXZ 10001510 f   V8EngineProxy.obj
 0001:00000540       ??__E_Tuple_alloc@std@@YAXXZ 10001540 f   ValueProxy.obj
 0001:00000570       ??__Eallocator_arg@std@@YAXXZ 10001570 f   ValueProxy.obj
 0001:000005a0       ??__Eignore@std@@YAXXZ     100015a0 f   ValueProxy.obj
 0001:000005e0       ??__Epiecewise_construct@std@@YAXXZ 100015e0 f   ValueProxy.obj
 0001:00000610       ??__E?_Generic_object@?$_Error_objects@H@std@@2V_Generic_error_category@2@A@@YAXXZ 10001610 f   v8_libplatform:default-platform.obj
 0001:00000630       ??__E?_Iostream_object@?$_Error_objects@H@std@@2V_Iostream_error_category@2@A@@YAXXZ 10001630 f   v8_libplatform:default-platform.obj
 0001:00000650       ??__E?_System_object@?$_Error_objects@H@std@@2V_System_error_category@2@A@@YAXXZ 10001650 f   v8_libplatform:default-platform.obj
 0001:00000670       ??__E?id@?$num_put@DV?$back_insert_iterator@V?$basic_string@DU?$char_traits@D@std@@V?$allocator@D@2@@std@@@std@@@std@@2V0locale@2@A@@YAXXZ 10001670 f   v8_libplatform:default-platform.obj
 0001:00000690       ??__E?id@?$num_put@_WV?$back_insert_iterator@V?$basic_string@_WU?$char_traits@_W@std@@V?$allocator@_W@2@@std@@@std@@@std@@2V0locale@2@A@@YAXXZ 10001690 f   v8_libplatform:default-platform.obj
 0001:000006b0       ??__E_Tuple_alloc@std@@YAXXZ 100016b0 f   v8_libplatform:default-platform.obj
 0001:000006c0       ??__Eallocator_arg@std@@YAXXZ 100016c0 f   v8_libplatform:default-platform.obj
 0001:000006d0       ??__Eignore@std@@YAXXZ     100016d0 f   v8_libplatform:default-platform.obj
 0001:000006e0       ??__Epiecewise_construct@std@@YAXXZ 100016e0 f   v8_libplatform:default-platform.obj
 0001:000006f0       ??__Eallocator_arg@std@@YAXXZ 100016f0 f   v8_libplatform:task-queue.obj
 0001:00000700       ??__Epiecewise_construct@std@@YAXXZ 10001700 f   v8_libplatform:task-queue.obj
 0001:00000710       ??__Eallocator_arg@std@@YAXXZ 10001710 f   v8_libplatform:worker-thread.obj
 0001:00000720       ??__Epiecewise_construct@std@@YAXXZ 10001720 f   v8_libplatform:worker-thread.obj
 0001:00000730       ??__Eallocator_arg@std@@YAXXZ 10001730 f   v8_libbase:logging.obj
 0001:00000740       ??__Epiecewise_construct@std@@YAXXZ 10001740 f   v8_libbase:logging.obj
 0001:00000750       ??__Eallocator_arg@std@@YAXXZ 10001750 f   v8_libbase:platform-win32.obj
 0001:00000760       ??__Epiecewise_construct@std@@YAXXZ 10001760 f   v8_libbase:platform-win32.obj
 0001:00000770       ??__Eallocator_arg@std@@YAXXZ 10001770 f   v8_libbase:time.obj
 0001:00000780       ??__Epiecewise_construct@std@@YAXXZ 10001780 f   v8_libbase:time.obj
 0001:00000790       ??__Eallocator_arg@std@@YAXXZ 10001790 f   v8_libbase:cpu.obj
 0001:000007a0       ??__Epiecewise_construct@std@@YAXXZ 100017a0 f   v8_libbase:cpu.obj
 0001:00001410       $LN13                      10002410     Exports.obj
 0001:00001418       $LN12                      10002418     Exports.obj
 0001:00001448       $LN10                      10002448     Exports.obj
 0001:00001457       $LN9                       10002457     Exports.obj
 0001:00001465       $LN8                       10002465     Exports.obj
 0001:00001474       $LN7                       10002474     Exports.obj
 0001:00001790       $LN19                      10002790     Exports.obj
 0001:00001798       $LN18                      10002798     Exports.obj
 0001:000017e0       $LN16                      100027e0     Exports.obj
 0001:000017e4       $LN15                      100027e4     Exports.obj
 0001:000017eb       $LN14                      100027eb     Exports.obj
 0001:000017fa       $LN13                      100027fa     Exports.obj
 0001:00001808       $LN12                      10002808     Exports.obj
 0001:00001817       $LN11                      10002817     Exports.obj
 0001:000019dc       $LN13                      100029dc     Exports.obj
 0001:000019e4       $LN12                      100029e4     Exports.obj
 0001:00001a14       $LN10                      10002a14     Exports.obj
 0001:00001a23       $LN9                       10002a23     Exports.obj
 0001:00001a31       $LN8                       10002a31     Exports.obj
 0001:00001a40       $LN7                       10002a40     Exports.obj
 0001:00001bf8       $LN13                      10002bf8     Exports.obj
 0001:00001c00       $LN12                      10002c00     Exports.obj
 0001:00001c30       $LN10                      10002c30     Exports.obj
 0001:00001c3f       $LN9                       10002c3f     Exports.obj
 0001:00001c4d       $LN8                       10002c4d     Exports.obj
 0001:00001c5c       $LN7                       10002c5c     Exports.obj
 0001:00001e20       $LN13                      10002e20     Exports.obj
 0001:00001e28       $LN12                      10002e28     Exports.obj
 0001:00001e58       $LN10                      10002e58     Exports.obj
 0001:00001e67       $LN9                       10002e67     Exports.obj
 0001:00001e75       $LN8                       10002e75     Exports.obj
 0001:00001e84       $LN7                       10002e84     Exports.obj
 0001:00002038       $LN13                      10003038     Exports.obj
 0001:00002040       $LN12                      10003040     Exports.obj
 0001:00002070       $LN10                      10003070     Exports.obj
 0001:0000207f       $LN9                       1000307f     Exports.obj
 0001:0000208d       $LN8                       1000308d     Exports.obj
 0001:0000209c       $LN7                       1000309c     Exports.obj
 0001:00002268       $LN13                      10003268     Exports.obj
 0001:00002270       $LN12                      10003270     Exports.obj
 0001:000022a0       $LN10                      100032a0     Exports.obj
 0001:000022af       $LN9                       100032af     Exports.obj
 0001:000022bd       $LN8                       100032bd     Exports.obj
 0001:000022cc       $LN7                       100032cc     Exports.obj
 0001:00002418       $LN11                      10003418     Exports.obj
 0001:00002420       $LN10                      10003420     Exports.obj
 0001:00002444       $LN8                       10003444     Exports.obj
 0001:00002452       $LN7                       10003452     Exports.obj
 0001:00002461       $LN6                       10003461     Exports.obj
 0001:00002734       $LN13                      10003734     Exports.obj
 0001:0000273c       $LN12                      1000373c     Exports.obj
 0001:0000276c       $LN10                      1000376c     Exports.obj
 0001:0000277b       $LN9                       1000377b     Exports.obj
 0001:00002789       $LN8                       10003789     Exports.obj
 0001:00002798       $LN7                       10003798     Exports.obj
 0001:00002950       $LN13                      10003950     Exports.obj
 0001:00002958       $LN12                      10003958     Exports.obj
 0001:00002988       $LN10                      10003988     Exports.obj
 0001:00002997       $LN9                       10003997     Exports.obj
 0001:000029a5       $LN8                       100039a5     Exports.obj
 0001:000029b4       $LN7                       100039b4     Exports.obj
 0001:00002b70       $LN13                      10003b70     Exports.obj
 0001:00002b78       $LN12                      10003b78     Exports.obj
 0001:00002ba8       $LN10                      10003ba8     Exports.obj
 0001:00002bb7       $LN9                       10003bb7     Exports.obj
 0001:00002bc5       $LN8                       10003bc5     Exports.obj
 0001:00002bd4       $LN7                       10003bd4     Exports.obj
 0001:00002d84       $LN13                      10003d84     Exports.obj
 0001:00002d8c       $LN12                      10003d8c     Exports.obj
 0001:00002dbc       $LN10                      10003dbc     Exports.obj
 0001:00002dcb       $LN9                       10003dcb     Exports.obj
 0001:00002dd9       $LN8                       10003dd9     Exports.obj
 0001:00002de8       $LN7                       10003de8     Exports.obj
 0001:00002fb0       $LN13                      10003fb0     Exports.obj
 0001:00002fb8       $LN12                      10003fb8     Exports.obj
 0001:00002fe8       $LN10                      10003fe8     Exports.obj
 0001:00002ff7       $LN9                       10003ff7     Exports.obj
 0001:00003005       $LN8                       10004005     Exports.obj
 0001:00003014       $LN7                       10004014     Exports.obj
 0001:00003150       $LN11                      10004150     Exports.obj
 0001:00003158       $LN10                      10004158     Exports.obj
 0001:0000317c       $LN8                       1000417c     Exports.obj
 0001:0000318a       $LN7                       1000418a     Exports.obj
 0001:00003199       $LN6                       10004199     Exports.obj
 0001:000033e4       $LN13                      100043e4     Exports.obj
 0001:000033ec       $LN12                      100043ec     Exports.obj
 0001:0000341c       $LN10                      1000441c     Exports.obj
 0001:0000342b       $LN9                       1000442b     Exports.obj
 0001:00003439       $LN8                       10004439     Exports.obj
 0001:00003448       $LN7                       10004448     Exports.obj
 0001:0000360c       $LN13                      1000460c     Exports.obj
 0001:00003614       $LN12                      10004614     Exports.obj
 0001:00003644       $LN10                      10004644     Exports.obj
 0001:00003653       $LN9                       10004653     Exports.obj
 0001:00003661       $LN8                       10004661     Exports.obj
 0001:00003670       $LN7                       10004670     Exports.obj
 0001:00003944       $LN13                      10004944     Exports.obj
 0001:0000394c       $LN12                      1000494c     Exports.obj
 0001:00003970       $LN10                      10004970     Exports.obj
 0001:0000397e       $LN9                       1000497e     Exports.obj
 0001:0000398d       $LN8                       1000498d     Exports.obj
 0001:00003be0       $LN17                      10004be0     Exports.obj
 0001:00003be8       $LN16                      10004be8     Exports.obj
 0001:00003c30       $LN14                      10004c30     Exports.obj
 0001:00003c34       $LN13                      10004c34     Exports.obj
 0001:00003c3b       $LN12                      10004c3b     Exports.obj
 0001:00003c4a       $LN11                      10004c4a     Exports.obj
 0001:00003c58       $LN10                      10004c58     Exports.obj
 0001:00003c67       $LN9                       10004c67     Exports.obj
 0001:00003f00       $LN17                      10004f00     Exports.obj
 0001:00003f08       $LN16                      10004f08     Exports.obj
 0001:00003f50       $LN14                      10004f50     Exports.obj
 0001:00003f54       $LN13                      10004f54     Exports.obj
 0001:00003f5b       $LN12                      10004f5b     Exports.obj
 0001:00003f6a       $LN11                      10004f6a     Exports.obj
 0001:00003f78       $LN10                      10004f78     Exports.obj
 0001:00003f87       $LN9                       10004f87     Exports.obj
 0001:00004104       $LN13                      10005104     Exports.obj
 0001:0000410c       $LN12                      1000510c     Exports.obj
 0001:00004130       $LN10                      10005130     Exports.obj
 0001:0000413e       $LN9                       1000513e     Exports.obj
 0001:0000414d       $LN8                       1000514d     Exports.obj
 0001:000044a4       $LN14                      100054a4     Exports.obj
 0001:000044ac       $LN13                      100054ac     Exports.obj
 0001:000044dc       $LN11                      100054dc     Exports.obj
 0001:000044eb       $LN10                      100054eb     Exports.obj
 0001:000044f9       $LN9                       100054f9     Exports.obj
 0001:00004508       $LN8                       10005508     Exports.obj
 0001:00004690       $LN13                      10005690     Exports.obj
 0001:00004698       $LN12                      10005698     Exports.obj
 0001:000046c8       $LN10                      100056c8     Exports.obj
 0001:000046d7       $LN9                       100056d7     Exports.obj
 0001:000046e5       $LN8                       100056e5     Exports.obj
 0001:000046f4       $LN7                       100056f4     Exports.obj
 0001:0000493c       $LN16                      1000593c     Exports.obj
 0001:00004944       $LN15                      10005944     Exports.obj
 0001:00004980       $LN13                      10005980     Exports.obj
 0001:00004987       $LN12                      10005987     Exports.obj
 0001:00004996       $LN11                      10005996     Exports.obj
 0001:000049a4       $LN10                      100059a4     Exports.obj
 0001:000049b3       $LN9                       100059b3     Exports.obj
 0001:00004b6c       $LN13                      10005b6c     Exports.obj
 0001:00004b74       $LN12                      10005b74     Exports.obj
 0001:00004ba4       $LN10                      10005ba4     Exports.obj
 0001:00004bb3       $LN9                       10005bb3     Exports.obj
 0001:00004bc1       $LN8                       10005bc1     Exports.obj
 0001:00004bd0       $LN7                       10005bd0     Exports.obj
 0001:00004d8c       $LN13                      10005d8c     Exports.obj
 0001:00004d94       $LN12                      10005d94     Exports.obj
 0001:00004dc4       $LN10                      10005dc4     Exports.obj
 0001:00004dd3       $LN9                       10005dd3     Exports.obj
 0001:00004de1       $LN8                       10005de1     Exports.obj
 0001:00004df0       $LN7                       10005df0     Exports.obj
 0001:00004fac       $LN13                      10005fac     Exports.obj
 0001:00004fb4       $LN12                      10005fb4     Exports.obj
 0001:00004fe4       $LN10                      10005fe4     Exports.obj
 0001:00004ff3       $LN9                       10005ff3     Exports.obj
 0001:00005001       $LN8                       10006001     Exports.obj
 0001:00005010       $LN7                       10006010     Exports.obj
 0001:000051dc       $LN15                      100061dc     Exports.obj
 0001:000051e4       $LN14                      100061e4     Exports.obj
 0001:00005214       $LN12                      10006214     Exports.obj
 0001:00005223       $LN11                      10006223     Exports.obj
 0001:00005231       $LN10                      10006231     Exports.obj
 0001:00005240       $LN9                       10006240     Exports.obj
 0001:000054b4       $LN17                      100064b4     Exports.obj
 0001:000054bc       $LN16                      100064bc     Exports.obj
 0001:00005504       $LN14                      10006504     Exports.obj
 0001:00005508       $LN13                      10006508     Exports.obj
 0001:0000550f       $LN12                      1000650f     Exports.obj
 0001:0000551e       $LN11                      1000651e     Exports.obj
 0001:0000552c       $LN10                      1000652c     Exports.obj
 0001:0000553b       $LN9                       1000653b     Exports.obj
 0001:000057f4       $LN17                      100067f4     Exports.obj
 0001:000057fc       $LN16                      100067fc     Exports.obj
 0001:00005844       $LN14                      10006844     Exports.obj
 0001:00005848       $LN13                      10006848     Exports.obj
 0001:0000584f       $LN12                      1000684f     Exports.obj
 0001:0000585e       $LN11                      1000685e     Exports.obj
 0001:0000586c       $LN10                      1000686c     Exports.obj
 0001:0000587b       $LN9                       1000687b     Exports.obj
 0001:00005af4       $LN16                      10006af4     Exports.obj
 0001:00005afc       $LN15                      10006afc     Exports.obj
 0001:00005b38       $LN13                      10006b38     Exports.obj
 0001:00005b3f       $LN12                      10006b3f     Exports.obj
 0001:00005b4e       $LN11                      10006b4e     Exports.obj
 0001:00005b5c       $LN10                      10006b5c     Exports.obj
 0001:00005b6b       $LN9                       10006b6b     Exports.obj
 0001:00005dec       $LN18                      10006dec     Exports.obj
 0001:00005df4       $LN17                      10006df4     Exports.obj
 0001:00005e48       $LN15                      10006e48     Exports.obj
 0001:00005e4e       $LN14                      10006e4e     Exports.obj
 0001:00005e52       $LN13                      10006e52     Exports.obj
 0001:00005e59       $LN12                      10006e59     Exports.obj
 0001:00005e68       $LN11                      10006e68     Exports.obj
 0001:00005e76       $LN10                      10006e76     Exports.obj
 0001:00005e85       $LN9                       10006e85     Exports.obj
 0001:00006120       $LN17                      10007120     Exports.obj
 0001:00006128       $LN16                      10007128     Exports.obj
 0001:00006170       $LN14                      10007170     Exports.obj
 0001:00006174       $LN13                      10007174     Exports.obj
 0001:0000617b       $LN12                      1000717b     Exports.obj
 0001:0000618a       $LN11                      1000718a     Exports.obj
 0001:00006198       $LN10                      10007198     Exports.obj
 0001:000061a7       $LN9                       100071a7     Exports.obj
 0001:0000642c       $LN18                      1000742c     Exports.obj
 0001:00006434       $LN17                      10007434     Exports.obj
 0001:00006488       $LN15                      10007488     Exports.obj
 0001:0000648e       $LN14                      1000748e     Exports.obj
 0001:00006492       $LN13                      10007492     Exports.obj
 0001:00006499       $LN12                      10007499     Exports.obj
 0001:000064a8       $LN11                      100074a8     Exports.obj
 0001:000064b6       $LN10                      100074b6     Exports.obj
 0001:000064c5       $LN9                       100074c5     Exports.obj
 0001:00006644       $LN14                      10007644     Exports.obj
 0001:0000664c       $LN13                      1000764c     Exports.obj
 0001:0000667c       $LN11                      1000767c     Exports.obj
 0001:0000668b       $LN10                      1000768b     Exports.obj
 0001:00006699       $LN9                       10007699     Exports.obj
 0001:000066a8       $LN8                       100076a8     Exports.obj
 0001:00006824       $LN14                      10007824     Exports.obj
 0001:0000682c       $LN13                      1000782c     Exports.obj
 0001:0000685c       $LN11                      1000785c     Exports.obj
 0001:0000686b       $LN10                      1000786b     Exports.obj
 0001:00006879       $LN9                       10007879     Exports.obj
 0001:00006888       $LN8                       10007888     Exports.obj
 0001:000069f4       $LN13                      100079f4     Exports.obj
 0001:000069fc       $LN12                      100079fc     Exports.obj
 0001:00006a2c       $LN10                      10007a2c     Exports.obj
 0001:00006a3b       $LN9                       10007a3b     Exports.obj
 0001:00006a49       $LN8                       10007a49     Exports.obj
 0001:00006a58       $LN7                       10007a58     Exports.obj
 0001:00006bb4       $LN11                      10007bb4     Exports.obj
 0001:00006bbc       $LN10                      10007bbc     Exports.obj
 0001:00006be0       $LN8                       10007be0     Exports.obj
 0001:00006bee       $LN7                       10007bee     Exports.obj
 0001:00006bfd       $LN6                       10007bfd     Exports.obj
 0001:00006d44       $LN11                      10007d44     Exports.obj
 0001:00006d4c       $LN10                      10007d4c     Exports.obj
 0001:00006d70       $LN8                       10007d70     Exports.obj
 0001:00006d7e       $LN7                       10007d7e     Exports.obj
 0001:00006d8d       $LN6                       10007d8d     Exports.obj
 0001:00006ee4       $LN11                      10007ee4     Exports.obj
 0001:00006eec       $LN10                      10007eec     Exports.obj
 0001:00006f10       $LN8                       10007f10     Exports.obj
 0001:00006f1e       $LN7                       10007f1e     Exports.obj
 0001:00006f2d       $LN6                       10007f2d     Exports.obj
 0001:000070a4       $LN13                      100080a4     Exports.obj
 0001:000070ac       $LN12                      100080ac     Exports.obj
 0001:000070dc       $LN10                      100080dc     Exports.obj
 0001:000070eb       $LN9                       100080eb     Exports.obj
 0001:000070f9       $LN8                       100080f9     Exports.obj
 0001:00007108       $LN7                       10008108     Exports.obj
 0001:00007254       $LN11                      10008254     Exports.obj
 0001:0000725c       $LN10                      1000825c     Exports.obj
 0001:00007280       $LN8                       10008280     Exports.obj
 0001:0000728e       $LN7                       1000828e     Exports.obj
 0001:0000729d       $LN6                       1000829d     Exports.obj
 0001:000076d8       $LN18                      100086d8     Exports.obj
 0001:000076e0       $LN17                      100086e0     Exports.obj
 0001:00007734       $LN15                      10008734     Exports.obj
 0001:0000773e       $LN14                      1000873e     Exports.obj
 0001:00007742       $LN13                      10008742     Exports.obj
 0001:00007749       $LN12                      10008749     Exports.obj
 0001:00007758       $LN11                      10008758     Exports.obj
 0001:00007766       $LN10                      10008766     Exports.obj
 0001:00007775       $LN9                       10008775     Exports.obj
 0001:00007a3c       $LN20                      10008a3c     Exports.obj
 0001:00007a44       $LN19                      10008a44     Exports.obj
 0001:00007a98       $LN17                      10008a98     Exports.obj
 0001:00007aa4       $LN16                      10008aa4     Exports.obj
 0001:00007aa8       $LN15                      10008aa8     Exports.obj
 0001:00007aaf       $LN14                      10008aaf     Exports.obj
 0001:00007abe       $LN13                      10008abe     Exports.obj
 0001:00007acc       $LN12                      10008acc     Exports.obj
 0001:00007adb       $LN11                      10008adb     Exports.obj
 0001:00007de0       $LN20                      10008de0     Exports.obj
 0001:00007de8       $LN19                      10008de8     Exports.obj
 0001:00007e3c       $LN17                      10008e3c     Exports.obj
 0001:00007e48       $LN16                      10008e48     Exports.obj
 0001:00007e4c       $LN15                      10008e4c     Exports.obj
 0001:00007e53       $LN14                      10008e53     Exports.obj
 0001:00007e62       $LN13                      10008e62     Exports.obj
 0001:00007e70       $LN12                      10008e70     Exports.obj
 0001:00007e7f       $LN11                      10008e7f     Exports.obj
 0001:00008000       $LN13                      10009000     Exports.obj
 0001:00008008       $LN12                      10009008     Exports.obj
 0001:00008038       $LN10                      10009038     Exports.obj
 0001:00008047       $LN9                       10009047     Exports.obj
 0001:00008055       $LN8                       10009055     Exports.obj
 0001:00008064       $LN7                       10009064     Exports.obj
 0001:000081d4       $LN13                      100091d4     Exports.obj
 0001:000081dc       $LN12                      100091dc     Exports.obj
 0001:0000820c       $LN10                      1000920c     Exports.obj
 0001:0000821b       $LN9                       1000921b     Exports.obj
 0001:00008229       $LN8                       10009229     Exports.obj
 0001:00008238       $LN7                       10009238     Exports.obj
 0001:00008380       $LN11                      10009380     Exports.obj
 0001:00008388       $LN10                      10009388     Exports.obj
 0001:000083ac       $LN8                       100093ac     Exports.obj
 0001:000083ba       $LN7                       100093ba     Exports.obj
 0001:000083c9       $LN6                       100093c9     Exports.obj
 0001:00008510       $LN11                      10009510     Exports.obj
 0001:00008518       $LN10                      10009518     Exports.obj
 0001:0000853c       $LN8                       1000953c     Exports.obj
 0001:0000854a       $LN7                       1000954a     Exports.obj
 0001:00008559       $LN6                       10009559     Exports.obj
 0001:000086d4       $LN14                      100096d4     Exports.obj
 0001:000086dc       $LN13                      100096dc     Exports.obj
 0001:0000870c       $LN11                      1000970c     Exports.obj
 0001:0000871b       $LN10                      1000971b     Exports.obj
 0001:00008729       $LN9                       10009729     Exports.obj
 0001:00008738       $LN8                       10009738     Exports.obj
 0001:000088f8       $LN13                      100098f8     Exports.obj
 0001:00008900       $LN12                      10009900     Exports.obj
 0001:00008930       $LN10                      10009930     Exports.obj
 0001:0000893f       $LN9                       1000993f     Exports.obj
 0001:0000894d       $LN8                       1000994d     Exports.obj
 0001:0000895c       $LN7                       1000995c     Exports.obj
 0001:00008b18       $LN13                      10009b18     Exports.obj
 0001:00008b20       $LN12                      10009b20     Exports.obj
 0001:00008b50       $LN10                      10009b50     Exports.obj
 0001:00008b5f       $LN9                       10009b5f     Exports.obj
 0001:00008b6d       $LN8                       10009b6d     Exports.obj
 0001:00008b7c       $LN7                       10009b7c     Exports.obj
 0001:00008dc4       $LN14                      10009dc4     Exports.obj
 0001:00008dcc       $LN13                      10009dcc     Exports.obj
 0001:00008dfc       $LN11                      10009dfc     Exports.obj
 0001:00008e0b       $LN10                      10009e0b     Exports.obj
 0001:00008e19       $LN9                       10009e19     Exports.obj
 0001:00008e28       $LN8                       10009e28     Exports.obj
 0001:00009d78       $LN17                      1000ad78     FunctionTemplateProxy.obj
 0001:00009d80       $LN16                      1000ad80     FunctionTemplateProxy.obj
 0001:00009db0       $LN14                      1000adb0     FunctionTemplateProxy.obj
 0001:00009dbf       $LN13                      1000adbf     FunctionTemplateProxy.obj
 0001:00009dcd       $LN12                      1000adcd     FunctionTemplateProxy.obj
 0001:00009ddc       $LN11                      1000addc     FunctionTemplateProxy.obj
 0001:0000a3d0       $LN13                      1000b3d0     FunctionTemplateProxy.obj
 0001:0000a3d8       $LN12                      1000b3d8     FunctionTemplateProxy.obj
 0001:0000a3e4       $LN10                      1000b3e4     FunctionTemplateProxy.obj
 0001:0000a524       $LN5                       1000b524     FunctionTemplateProxy.obj
 0001:0000a52c       $LN4                       1000b52c     FunctionTemplateProxy.obj
 0001:0000a538       $LN3                       1000b538     FunctionTemplateProxy.obj
 0001:0000c464       $LN20                      1000d464     HandleProxy.obj
 0001:0000c46c       $LN19                      1000d46c     HandleProxy.obj
 0001:0000c49c       $LN18                      1000d49c     HandleProxy.obj
 0001:0000c4a4       $LN17                      1000d4a4     HandleProxy.obj
 0001:0000c4ab       $LN16                      1000d4ab     HandleProxy.obj
 0001:0000c4b1       $LN15                      1000d4b1     HandleProxy.obj
 0001:0000d4ac       $LN18                      1000e4ac     HandleProxy.obj
 0001:0000e768       $LN8                       1000f768     ObjectTemplateProxy.obj
 0001:0000e770       $LN7                       1000f770     ObjectTemplateProxy.obj
 0001:0000e77c       $LN5                       1000f77c     ObjectTemplateProxy.obj
 0001:0000eb94       $LN17                      1000fb94     ObjectTemplateProxy.obj
 0001:0000eb9c       $LN16                      1000fb9c     ObjectTemplateProxy.obj
 0001:0000ebcc       $LN14                      1000fbcc     ObjectTemplateProxy.obj
 0001:0000ebdb       $LN13                      1000fbdb     ObjectTemplateProxy.obj
 0001:0000ebe9       $LN12                      1000fbe9     ObjectTemplateProxy.obj
 0001:0000ebf8       $LN11                      1000fbf8     ObjectTemplateProxy.obj
 0001:0000f07c       $LN17                      1001007c     ObjectTemplateProxy.obj
 0001:0000f084       $LN16                      10010084     ObjectTemplateProxy.obj
 0001:0000f0cc       $LN15                      100100cc     ObjectTemplateProxy.obj
 0001:0000f0d4       $LN14                      100100d4     ObjectTemplateProxy.obj
 0001:0000f0d8       $LN13                      100100d8     ObjectTemplateProxy.obj
 0001:0000f0dc       $LN12                      100100dc     ObjectTemplateProxy.obj
 0001:0000f0e7       $LN11                      100100e7     ObjectTemplateProxy.obj
 0001:0000f0eb       $LN10                      100100eb     ObjectTemplateProxy.obj
 0001:0000f3dc       $LN17                      100103dc     ObjectTemplateProxy.obj
 0001:0000f3e4       $LN16                      100103e4     ObjectTemplateProxy.obj
 0001:0000f42c       $LN15                      1001042c     ObjectTemplateProxy.obj
 0001:0000f434       $LN14                      10010434     ObjectTemplateProxy.obj
 0001:0000f438       $LN13                      10010438     ObjectTemplateProxy.obj
 0001:0000f43c       $LN12                      1001043c     ObjectTemplateProxy.obj
 0001:0000f447       $LN11                      10010447     ObjectTemplateProxy.obj
 0001:0000f44b       $LN10                      1001044b     ObjectTemplateProxy.obj
 0001:0000f508       $LN6                       10010508     ObjectTemplateProxy.obj
 0001:0000f510       $LN5                       10010510     ObjectTemplateProxy.obj
 0001:0000f51c       $LN4                       1001051c     ObjectTemplateProxy.obj
 0001:0000f8cc       $LN13                      100108cc     ObjectTemplateProxy.obj
 0001:0000f8d4       $LN12                      100108d4     ObjectTemplateProxy.obj
 0001:0000f8f8       $LN11                      100108f8     ObjectTemplateProxy.obj
 0001:0000f8ff       $LN10                      100108ff     ObjectTemplateProxy.obj
 0001:0000f905       $LN9                       10010905     ObjectTemplateProxy.obj
 0001:0000fafc       $LN14                      10010afc     ObjectTemplateProxy.obj
 0001:0000fb04       $LN13                      10010b04     ObjectTemplateProxy.obj
 0001:0000fb34       $LN12                      10010b34     ObjectTemplateProxy.obj
 0001:0000fb38       $LN11                      10010b38     ObjectTemplateProxy.obj
 0001:0000fb3f       $LN10                      10010b3f     ObjectTemplateProxy.obj
 0001:0000fb45       $LN9                       10010b45     ObjectTemplateProxy.obj
 0001:0000ffa0       $LN13                      10010fa0     ObjectTemplateProxy.obj
 0001:0000ffa8       $LN12                      10010fa8     ObjectTemplateProxy.obj
 0001:0000ffcc       $LN11                      10010fcc     ObjectTemplateProxy.obj
 0001:0000ffd3       $LN10                      10010fd3     ObjectTemplateProxy.obj
 0001:0000ffd9       $LN9                       10010fd9     ObjectTemplateProxy.obj
 0001:0001025c       $LN14                      1001125c     ObjectTemplateProxy.obj
 0001:00010264       $LN13                      10011264     ObjectTemplateProxy.obj
 0001:00010294       $LN12                      10011294     ObjectTemplateProxy.obj
 0001:00010298       $LN11                      10011298     ObjectTemplateProxy.obj
 0001:0001029f       $LN10                      1001129f     ObjectTemplateProxy.obj
 0001:000102a5       $LN9                       100112a5     ObjectTemplateProxy.obj
 0001:0001046c       $LN11                      1001146c     ObjectTemplateProxy.obj
 0001:00010474       $LN10                      10011474     ObjectTemplateProxy.obj
 0001:00010498       $LN9                       10011498     ObjectTemplateProxy.obj
 0001:0001049f       $LN8                       1001149f     ObjectTemplateProxy.obj
 0001:000104a5       $LN7                       100114a5     ObjectTemplateProxy.obj
 0001:0001068c       $LN12                      1001168c     ObjectTemplateProxy.obj
 0001:00010694       $LN11                      10011694     ObjectTemplateProxy.obj
 0001:000106c4       $LN10                      100116c4     ObjectTemplateProxy.obj
 0001:000106c8       $LN9                       100116c8     ObjectTemplateProxy.obj
 0001:000106cf       $LN8                       100116cf     ObjectTemplateProxy.obj
 0001:000106d5       $LN7                       100116d5     ObjectTemplateProxy.obj
 0001:0001098c       $LN14                      1001198c     ObjectTemplateProxy.obj
 0001:00010994       $LN13                      10011994     ObjectTemplateProxy.obj
 0001:000109c4       $LN12                      100119c4     ObjectTemplateProxy.obj
 0001:000109ca       $LN11                      100119ca     ObjectTemplateProxy.obj
 0001:000109d1       $LN10                      100119d1     ObjectTemplateProxy.obj
 0001:000109d7       $LN9                       100119d7     ObjectTemplateProxy.obj
 0001:00010c8c       $LN14                      10011c8c     ObjectTemplateProxy.obj
 0001:00010c94       $LN13                      10011c94     ObjectTemplateProxy.obj
 0001:00010cc4       $LN12                      10011cc4     ObjectTemplateProxy.obj
 0001:00010cca       $LN11                      10011cca     ObjectTemplateProxy.obj
 0001:00010cd1       $LN10                      10011cd1     ObjectTemplateProxy.obj
 0001:00010cd7       $LN9                       10011cd7     ObjectTemplateProxy.obj
 0001:00011970       $LN5                       10012970     ObjectTemplateProxy.obj
 0001:00011978       $LN4                       10012978     ObjectTemplateProxy.obj
 0001:00011984       $LN3                       10012984     ObjectTemplateProxy.obj
 0001:00011c04       $LN13                      10012c04     ObjectTemplateProxy.obj
 0001:00011c0c       $LN12                      10012c0c     ObjectTemplateProxy.obj
 0001:00011c30       $LN11                      10012c30     ObjectTemplateProxy.obj
 0001:00011c37       $LN10                      10012c37     ObjectTemplateProxy.obj
 0001:00011c3d       $LN9                       10012c3d     ObjectTemplateProxy.obj
 0001:00011ee4       $LN14                      10012ee4     ObjectTemplateProxy.obj
 0001:00011eec       $LN13                      10012eec     ObjectTemplateProxy.obj
 0001:00011f1c       $LN12                      10012f1c     ObjectTemplateProxy.obj
 0001:00011f20       $LN11                      10012f20     ObjectTemplateProxy.obj
 0001:00011f27       $LN10                      10012f27     ObjectTemplateProxy.obj
 0001:00011f2d       $LN9                       10012f2d     ObjectTemplateProxy.obj
 0001:000135fc       $LN17                      100145fc     V8EngineProxy.obj
 0001:00013604       $LN16                      10014604     V8EngineProxy.obj
 0001:00013610       $LN14                      10014610     V8EngineProxy.obj
 0001:00014324       $LN5                       10015324     V8EngineProxy.obj
 0001:0001432c       $LN4                       1001532c     V8EngineProxy.obj
 0001:00014338       $LN3                       10015338     V8EngineProxy.obj
 0001:00014384       $LN5                       10015384     V8EngineProxy.obj
 0001:0001438c       $LN4                       1001538c     V8EngineProxy.obj
 0001:00014398       $LN3                       10015398     V8EngineProxy.obj
 0001:000143e4       $LN5                       100153e4     V8EngineProxy.obj
 0001:000143ec       $LN4                       100153ec     V8EngineProxy.obj
 0001:000143f8       $LN3                       100153f8     V8EngineProxy.obj
 0001:00014444       $LN5                       10015444     V8EngineProxy.obj
 0001:0001444c       $LN4                       1001544c     V8EngineProxy.obj
 0001:00014458       $LN3                       10015458     V8EngineProxy.obj
 0001:000144a4       $LN5                       100154a4     V8EngineProxy.obj
 0001:000144ac       $LN4                       100154ac     V8EngineProxy.obj
 0001:000144b8       $LN3                       100154b8     V8EngineProxy.obj
 0001:000145dc       $LN5                       100155dc     V8EngineProxy.obj
 0001:000145e4       $LN4                       100155e4     V8EngineProxy.obj
 0001:000145f0       $LN3                       100155f0     V8EngineProxy.obj
 0001:0001463c       $LN5                       1001563c     V8EngineProxy.obj
 0001:00014644       $LN4                       10015644     V8EngineProxy.obj
 0001:00014650       $LN3                       10015650     V8EngineProxy.obj
 0001:0001469c       $LN5                       1001569c     V8EngineProxy.obj
 0001:000146a4       $LN4                       100156a4     V8EngineProxy.obj
 0001:000146b0       $LN3                       100156b0     V8EngineProxy.obj
 0001:000146fc       $LN5                       100156fc     V8EngineProxy.obj
 0001:00014704       $LN4                       10015704     V8EngineProxy.obj
 0001:00014710       $LN3                       10015710     V8EngineProxy.obj
 0001:0001475c       $LN5                       1001575c     V8EngineProxy.obj
 0001:00014764       $LN4                       10015764     V8EngineProxy.obj
 0001:00014770       $LN3                       10015770     V8EngineProxy.obj
 0001:000148b0       $LN5                       100158b0     V8EngineProxy.obj
 0001:000148b8       $LN4                       100158b8     V8EngineProxy.obj
 0001:000148c4       $LN3                       100158c4     V8EngineProxy.obj
 0001:00014940       $LN5                       10015940     V8EngineProxy.obj
 0001:00014948       $LN4                       10015948     V8EngineProxy.obj
 0001:00014954       $LN3                       10015954     V8EngineProxy.obj
 0001:000149d0       $LN5                       100159d0     V8EngineProxy.obj
 0001:000149d8       $LN4                       100159d8     V8EngineProxy.obj
 0001:000149e4       $LN3                       100159e4     V8EngineProxy.obj
 0001:00014a60       $LN5                       10015a60     V8EngineProxy.obj
 0001:00014a68       $LN4                       10015a68     V8EngineProxy.obj
 0001:00014a74       $LN3                       10015a74     V8EngineProxy.obj
 0001:00014d4c       __catch$??$_Uninit_fill_n@PAU_StringItem@@IU1@V?$allocator@U_StringItem@@@std@@U1@@std@@YAXPAU_StringItem@@IPBU1@AAU?$_Wrap_alloc@V?$allocator@U_StringItem@@@std@@@0@0U_Nonscalar_ptr_iterator_tag@0@@Z$0 10015d4c f i V8EngineProxy.obj
 0001:0001523e       __catch$??$_Uninit_move@PAU_StringItem@@PAU1@V?$allocator@U_StringItem@@@std@@U1@@std@@YAPAU_StringItem@@PAU1@00AAU?$_Wrap_alloc@V?$allocator@U_StringItem@@@std@@@0@0U_Nonscalar_ptr_iterator_tag@0@@Z$0 1001623e f i V8EngineProxy.obj
 0001:00018b3c       $LN20                      10019b3c     V8EngineProxy.obj
 0001:00018b44       $LN19                      10019b44     V8EngineProxy.obj
 0001:00018b68       $LN17                      10019b68     V8EngineProxy.obj
 0001:00018b76       $LN16                      10019b76     V8EngineProxy.obj
 0001:00018b85       $LN15                      10019b85     V8EngineProxy.obj
 0001:0001a050       $LN30                      1001b050     V8EngineProxy.obj
 0001:0001a058       $LN29                      1001b058     V8EngineProxy.obj
 0001:0001a088       $LN27                      1001b088     V8EngineProxy.obj
 0001:0001a096       $LN26                      1001b096     V8EngineProxy.obj
 0001:0001a0a5       $LN25                      1001b0a5     V8EngineProxy.obj
 0001:0001a0b1       $LN24                      1001b0b1     V8EngineProxy.obj
 0001:0001a170       $LN7                       1001b170     V8EngineProxy.obj
 0001:0001a178       $LN6                       1001b178     V8EngineProxy.obj
 0001:0001a184       $LN4                       1001b184     V8EngineProxy.obj
 0001:0001a6cc       $LN11                      1001b6cc     V8EngineProxy.obj
 0001:0001a6d4       $LN10                      1001b6d4     V8EngineProxy.obj
 0001:0001a6e0       $LN8                       1001b6e0     V8EngineProxy.obj
 0001:0001ad08       $LN9                       1001bd08     V8EngineProxy.obj
 0001:0001ad10       $LN8                       1001bd10     V8EngineProxy.obj
 0001:0001ad1c       $LN6                       1001bd1c     V8EngineProxy.obj
 0001:0001b3c4       $LN9                       1001c3c4     V8EngineProxy.obj
 0001:0001b3cc       $LN8                       1001c3cc     V8EngineProxy.obj
 0001:0001b3d8       $LN6                       1001c3d8     V8EngineProxy.obj
 0001:0001b4a4       $LN9                       1001c4a4     V8EngineProxy.obj
 0001:0001b4ac       $LN8                       1001c4ac     V8EngineProxy.obj
 0001:0001b4b8       $LN6                       1001c4b8     V8EngineProxy.obj
 0001:0001b584       $LN9                       1001c584     V8EngineProxy.obj
 0001:0001b58c       $LN8                       1001c58c     V8EngineProxy.obj
 0001:0001b598       $LN6                       1001c598     V8EngineProxy.obj
 0001:0001c048       $LN36                      1001d048     V8EngineProxy.obj
 0001:0001c050       $LN35                      1001d050     V8EngineProxy.obj
 0001:0001c098       $LN33                      1001d098     V8EngineProxy.obj
 0001:0001c09f       $LN32                      1001d09f     V8EngineProxy.obj
 0001:0001c0aa       $LN31                      1001d0aa     V8EngineProxy.obj
 0001:0001c0b0       $LN30                      1001d0b0     V8EngineProxy.obj
 0001:0001c0b6       $LN29                      1001d0b6     V8EngineProxy.obj
 0001:0001c0bf       $LN28                      1001d0bf     V8EngineProxy.obj
 0001:0001c2e8       __catch$?Compile@V8EngineProxy@@QAEPAUHandleProxy@@PBGPAG@Z$0 1001d2e8 f   V8EngineProxy.obj
 0001:0001c3c0       $LN19                      1001d3c0     V8EngineProxy.obj
 0001:0001c3c8       $LN18                      1001d3c8     V8EngineProxy.obj
 0001:0001c3f8       $LN16                      1001d3f8     V8EngineProxy.obj
 0001:0001c3fb       $LN15                      1001d3fb     V8EngineProxy.obj
 0001:0001c40a       $LN14                      1001d40a     V8EngineProxy.obj
 0001:0001c412       $LN13                      1001d412     V8EngineProxy.obj
 0001:0001c5b8       $LN9                       1001d5b8     V8EngineProxy.obj
 0001:0001c5c0       $LN8                       1001d5c0     V8EngineProxy.obj
 0001:0001c5cc       $LN7                       1001d5cc     V8EngineProxy.obj
 0001:0001c6e4       $LN9                       1001d6e4     V8EngineProxy.obj
 0001:0001c6ec       $LN8                       1001d6ec     V8EngineProxy.obj
 0001:0001c6f8       $LN7                       1001d6f8     V8EngineProxy.obj
 0001:0001cf3c       $LN8                       1001df3c     V8EngineProxy.obj
 0001:0001cf44       $LN7                       1001df44     V8EngineProxy.obj
 0001:0001cf50       $LN5                       1001df50     V8EngineProxy.obj
 0001:0001d153       __catch$?Execute@V8EngineProxy@@QAEPAUHandleProxy@@PBGPAG@Z$0 1001e153 f   V8EngineProxy.obj
 0001:0001d22c       $LN18                      1001e22c     V8EngineProxy.obj
 0001:0001d234       $LN17                      1001e234     V8EngineProxy.obj
 0001:0001d258       $LN15                      1001e258     V8EngineProxy.obj
 0001:0001d25b       $LN14                      1001e25b     V8EngineProxy.obj
 0001:0001d26a       $LN13                      1001e26a     V8EngineProxy.obj
 0001:0001d39d       __catch$?Execute@V8EngineProxy@@QAEPAUHandleProxy@@V?$Handle@VScript@v8@@@v8@@@Z$0 1001e39d f   V8EngineProxy.obj
 0001:0001d474       $LN17                      1001e474     V8EngineProxy.obj
 0001:0001d47c       $LN16                      1001e47c     V8EngineProxy.obj
 0001:0001d4a0       $LN14                      1001e4a0     V8EngineProxy.obj
 0001:0001d4a3       $LN13                      1001e4a3     V8EngineProxy.obj
 0001:0001d4aa       $LN12                      1001e4aa     V8EngineProxy.obj
 0001:0001dcbc       $LN17                      1001ecbc     V8EngineProxy.obj
 0001:0001dcc4       $LN16                      1001ecc4     V8EngineProxy.obj
 0001:0001dd18       $LN15                      1001ed18     V8EngineProxy.obj
 0001:0001dd1c       $LN14                      1001ed1c     V8EngineProxy.obj
 0001:0001dd21       $LN13                      1001ed21     V8EngineProxy.obj
 0001:0001dd2e       $LN12                      1001ed2e     V8EngineProxy.obj
 0001:0001dd3a       $LN11                      1001ed3a     V8EngineProxy.obj
 0001:0001dd43       $LN10                      1001ed43     V8EngineProxy.obj
 0001:0001dd49       $LN9                       1001ed49     V8EngineProxy.obj
 0001:0001dec0       $LN13                      1001eec0     V8EngineProxy.obj
 0001:0001dec8       $LN12                      1001eec8     V8EngineProxy.obj
 0001:0001dee0       $LN10                      1001eee0     V8EngineProxy.obj
 0001:0001deec       $LN9                       1001eeec     V8EngineProxy.obj
 0001:0001e038       $LN7                       1001f038     V8EngineProxy.obj
 0001:0001e040       $LN6                       1001f040     V8EngineProxy.obj
 0001:0001e04c       $LN5                       1001f04c     V8EngineProxy.obj
 0001:0001e938       $LN10                      1001f938     V8EngineProxy.obj
 0001:0001e940       $LN9                       1001f940     V8EngineProxy.obj
 0001:0001e958       $LN8                       1001f958     V8EngineProxy.obj
 0001:0001e965       $LN7                       1001f965     V8EngineProxy.obj
 0001:0001ea94       $LN12                      1001fa94     V8EngineProxy.obj
 0001:0001ea9c       $LN11                      1001fa9c     V8EngineProxy.obj
 0001:0001eab4       $LN9                       1001fab4     V8EngineProxy.obj
 0001:0001eaba       $LN8                       1001faba     V8EngineProxy.obj
 0001:0001ebc8       $LN5                       1001fbc8     V8EngineProxy.obj
 0001:0001ebd0       $LN4                       1001fbd0     V8EngineProxy.obj
 0001:0001ebdc       $LN3                       1001fbdc     V8EngineProxy.obj
 0001:0001ec74       $LN5                       1001fc74     V8EngineProxy.obj
 0001:0001ec7c       $LN4                       1001fc7c     V8EngineProxy.obj
 0001:0001ec88       $LN3                       1001fc88     V8EngineProxy.obj
 0001:0001ed24       $LN5                       1001fd24     V8EngineProxy.obj
 0001:0001ed2c       $LN4                       1001fd2c     V8EngineProxy.obj
 0001:0001ed38       $LN3                       1001fd38     V8EngineProxy.obj
 0001:0001edd4       $LN5                       1001fdd4     V8EngineProxy.obj
 0001:0001eddc       $LN4                       1001fddc     V8EngineProxy.obj
 0001:0001ede8       $LN3                       1001fde8     V8EngineProxy.obj
 0001:0001ee84       $LN5                       1001fe84     V8EngineProxy.obj
 0001:0001ee8c       $LN4                       1001fe8c     V8EngineProxy.obj
 0001:0001ee98       $LN3                       1001fe98     V8EngineProxy.obj
 0001:0001f3df       __catch$?_Construct_n@?$vector@HV?$allocator@H@std@@@std@@QAEXIPBH@Z$0 100203df f i V8EngineProxy.obj
 0001:0001f4af       __catch$?_Construct_n@?$vector@IV?$allocator@_N@std@@@std@@QAEXIPBI@Z$0 100204af f i V8EngineProxy.obj
 0001:0001f57f       __catch$?_Construct_n@?$vector@PAUHandleProxy@@V?$allocator@PAUHandleProxy@@@std@@@std@@QAEXIPBQAUHandleProxy@@@Z$0 1002057f f i V8EngineProxy.obj
 0001:0001f64f       __catch$?_Construct_n@?$vector@U_StringItem@@V?$allocator@U_StringItem@@@std@@@std@@QAEXIPBU_StringItem@@@Z$0 1002064f f i V8EngineProxy.obj
 0001:0001f82c       $LN5                       1002082c     V8EngineProxy.obj
 0001:0001f834       $LN4                       10020834     V8EngineProxy.obj
 0001:0001f840       $LN3                       10020840     V8EngineProxy.obj
 0001:0001f8bc       $LN5                       100208bc     V8EngineProxy.obj
 0001:0001f8c4       $LN4                       100208c4     V8EngineProxy.obj
 0001:0001f8d0       $LN3                       100208d0     V8EngineProxy.obj
 0001:0001f94c       $LN5                       1002094c     V8EngineProxy.obj
 0001:0001f954       $LN4                       10020954     V8EngineProxy.obj
 0001:0001f960       $LN3                       10020960     V8EngineProxy.obj
 0001:0001f9dc       $LN5                       100209dc     V8EngineProxy.obj
 0001:0001f9e4       $LN4                       100209e4     V8EngineProxy.obj
 0001:0001f9f0       $LN3                       100209f0     V8EngineProxy.obj
 0001:0001fa9c       $LN5                       10020a9c     V8EngineProxy.obj
 0001:0001faa4       $LN4                       10020aa4     V8EngineProxy.obj
 0001:0001fab0       $LN3                       10020ab0     V8EngineProxy.obj
 0001:0001fb4c       $LN5                       10020b4c     V8EngineProxy.obj
 0001:0001fb54       $LN4                       10020b54     V8EngineProxy.obj
 0001:0001fb60       $LN3                       10020b60     V8EngineProxy.obj
 0001:0001fbfc       $LN5                       10020bfc     V8EngineProxy.obj
 0001:0001fc04       $LN4                       10020c04     V8EngineProxy.obj
 0001:0001fc10       $LN3                       10020c10     V8EngineProxy.obj
 0001:0001fcac       $LN5                       10020cac     V8EngineProxy.obj
 0001:0001fcb4       $LN4                       10020cb4     V8EngineProxy.obj
 0001:0001fcc0       $LN3                       10020cc0     V8EngineProxy.obj
 0001:0001fd5c       $LN5                       10020d5c     V8EngineProxy.obj
 0001:0001fd64       $LN4                       10020d64     V8EngineProxy.obj
 0001:0001fd70       $LN3                       10020d70     V8EngineProxy.obj
 0001:000208ec       $LN26                      100218ec     V8EngineProxy.obj
 0001:000208f4       $LN25                      100218f4     V8EngineProxy.obj
 0001:00020900       $LN23                      10021900     V8EngineProxy.obj
 0001:00020c60       $LN12                      10021c60     V8EngineProxy.obj
 0001:00020c68       $LN11                      10021c68     V8EngineProxy.obj
 0001:00020c74       $LN9                       10021c74     V8EngineProxy.obj
 0001:00020f14       $LN13                      10021f14     V8EngineProxy.obj
 0001:00020f1c       $LN12                      10021f1c     V8EngineProxy.obj
 0001:00020f28       $LN10                      10021f28     V8EngineProxy.obj
 0001:00021044       $LN13                      10022044     V8EngineProxy.obj
 0001:0002104c       $LN12                      1002204c     V8EngineProxy.obj
 0001:00021058       $LN10                      10022058     V8EngineProxy.obj
 0001:00021174       $LN13                      10022174     V8EngineProxy.obj
 0001:0002117c       $LN12                      1002217c     V8EngineProxy.obj
 0001:00021188       $LN10                      10022188     V8EngineProxy.obj
 0001:000212a4       $LN13                      100222a4     V8EngineProxy.obj
 0001:000212ac       $LN12                      100222ac     V8EngineProxy.obj
 0001:000212b8       $LN10                      100222b8     V8EngineProxy.obj
 0001:000213ec       $LN13                      100223ec     V8EngineProxy.obj
 0001:000213f4       $LN12                      100223f4     V8EngineProxy.obj
 0001:00021400       $LN10                      10022400     V8EngineProxy.obj
 0001:00021516       __catch$?_Reallocate@?$vector@HV?$allocator@H@std@@@std@@IAEXI@Z$0 10022516 f i V8EngineProxy.obj
 0001:00021696       __catch$?_Reallocate@?$vector@IV?$allocator@_N@std@@@std@@IAEXI@Z$0 10022696 f i V8EngineProxy.obj
 0001:00021816       __catch$?_Reallocate@?$vector@PAUHandleProxy@@V?$allocator@PAUHandleProxy@@@std@@@std@@IAEXI@Z$0 10022816 f i V8EngineProxy.obj
 0001:00021996       __catch$?_Reallocate@?$vector@U_StringItem@@V?$allocator@U_StringItem@@@std@@@std@@IAEXI@Z$0 10022996 f i V8EngineProxy.obj
 0001:00022278       $LN5                       10023278     V8EngineProxy.obj
 0001:00022280       $LN4                       10023280     V8EngineProxy.obj
 0001:0002228c       $LN3                       1002328c     V8EngineProxy.obj
 0001:00022318       $LN5                       10023318     V8EngineProxy.obj
 0001:00022320       $LN4                       10023320     V8EngineProxy.obj
 0001:0002232c       $LN3                       1002332c     V8EngineProxy.obj
 0001:000223b8       $LN5                       100233b8     V8EngineProxy.obj
 0001:000223c0       $LN4                       100233c0     V8EngineProxy.obj
 0001:000223cc       $LN3                       100233cc     V8EngineProxy.obj
 0001:00022458       $LN5                       10023458     V8EngineProxy.obj
 0001:00022460       $LN4                       10023460     V8EngineProxy.obj
 0001:0002246c       $LN3                       1002346c     V8EngineProxy.obj
 0001:00023a14       $LN10                      10024a14     V8EngineProxy.obj
 0001:00023a1c       $LN9                       10024a1c     V8EngineProxy.obj
 0001:00023a28       $LN7                       10024a28     V8EngineProxy.obj
 0001:00023da8       $LN30                      10024da8     V8EngineProxy.obj
 0001:00023db0       $LN29                      10024db0     V8EngineProxy.obj
 0001:00023dc8       $LN27                      10024dc8     V8EngineProxy.obj
 0001:00023dce       $LN26                      10024dce     V8EngineProxy.obj
 0001:000241ac       $LN30                      100251ac     V8EngineProxy.obj
 0001:000241b4       $LN29                      100251b4     V8EngineProxy.obj
 0001:000241d8       $LN27                      100251d8     V8EngineProxy.obj
 0001:000241de       $LN26                      100251de     V8EngineProxy.obj
 0001:000241e4       $LN25                      100251e4     V8EngineProxy.obj
 0001:00024f49       __catch$?resize@?$vector@IV?$allocator@_N@std@@@std@@QAEXIABI@Z$0 10025f49 f i V8EngineProxy.obj
 0001:0002590d       __catch$??$_Buynode@ABUpiecewise_construct_t@std@@V?$tuple@ABQAVIsolate@v8@@@2@V?$tuple@$$$V@2@@?$_Tree_buy@U?$pair@QAVIsolate@v8@@V?$queue@PAVTask@v8@@V?$deque@PAVTask@v8@@V?$allocator@PAVTask@v8@@@std@@@std@@@std@@@std@@V?$allocator@U?$pair@QAVIsolate@v8@@V?$queue@PAVTask@v8@@V?$deque@PAVTask@v8@@V?$allocator@PAVTask@v8@@@std@@@std@@@std@@@std@@@2@@std@@QAEPAU?$_Tree_node@U?$pair@QAVIsolate@v8@@V?$queue@PAVTask@v8@@V?$deque@PAVTask@v8@@V?$allocator@PAVTask@v8@@@std@@@std@@@std@@@std@@PAX@1@ABUpiecewise_construct_t@1@$$QAV?$tuple@ABQAVIsolate@v8@@@1@$$QAV?$tuple@$$$V@1@@Z$0 1002690d f i v8_libplatform:default-platform.obj
 0001:00027195       __catch$??$_Insert_hint@AAU?$pair@QAVIsolate@v8@@V?$queue@PAVTask@v8@@V?$deque@PAVTask@v8@@V?$allocator@PAVTask@v8@@@std@@@std@@@std@@@std@@PAU?$_Tree_node@U?$pair@QAVIsolate@v8@@V?$queue@PAVTask@v8@@V?$deque@PAVTask@v8@@V?$allocator@PAVTask@v8@@@std@@@std@@@std@@@std@@PAX@2@@?$_Tree@V?$_Tmap_traits@PAVIsolate@v8@@V?$queue@PAVTask@v8@@V?$deque@PAVTask@v8@@V?$allocator@PAVTask@v8@@@std@@@std@@@std@@U?$less@PAVIsolate@v8@@@4@V?$allocator@U?$pair@QAVIsolate@v8@@V?$queue@PAVTask@v8@@V?$deque@PAVTask@v8@@V?$allocator@PAVTask@v8@@@std@@@std@@@std@@@std@@@4@$0A@@std@@@std@@IAE?AV?$_Tree_iterator@V?$_Tree_val@U?$_Tree_simple_types@U?$pair@QAVIsolate@v8@@V?$queue@PAVTask@v8@@V?$deque@PAVTask@v8@@V?$allocator@PAVTask@v8@@@std@@@std@@@std@@@std@@@std@@@std@@@1@V?$_Tree_const_iterator@V?$_Tree_val@U?$_Tree_simple_types@U?$pair@QAVIsolate@v8@@V?$queue@PAVTask@v8@@V?$deque@PAVTask@v8@@V?$allocator@PAVTask@v8@@@std@@@std@@@std@@@std@@@std@@@std@@@1@AAU?$pair@QAVIsolate@v8@@V?$queue@PAVTask@v8@@V?$deque@PAVTask@v8@@V?$allocator@PAVTask@v8@@@std@@@std@@@std@@@1@PAU?$_Tree_node@U?$pair@QAVIsolate@v8@@V?$queue@PAVTask@v8@@V?$deque@PAVTask@v8@@V?$allocator@PAVTask@v8@@@std@@@std@@@std@@@std@@PAX@1@@Z$0 10028195 f i v8_libplatform:default-platform.obj
 0001:000276d2       __catch$??$_Insert_nohint@AAU?$pair@QAVIsolate@v8@@V?$queue@PAVTask@v8@@V?$deque@PAVTask@v8@@V?$allocator@PAVTask@v8@@@std@@@std@@@std@@@std@@PAU?$_Tree_node@U?$pair@QAVIsolate@v8@@V?$queue@PAVTask@v8@@V?$deque@PAVTask@v8@@V?$allocator@PAVTask@v8@@@std@@@std@@@std@@@std@@PAX@2@@?$_Tree@V?$_Tmap_traits@PAVIsolate@v8@@V?$queue@PAVTask@v8@@V?$deque@PAVTask@v8@@V?$allocator@PAVTask@v8@@@std@@@std@@@std@@U?$less@PAVIsolate@v8@@@4@V?$allocator@U?$pair@QAVIsolate@v8@@V?$queue@PAVTask@v8@@V?$deque@PAVTask@v8@@V?$allocator@PAVTask@v8@@@std@@@std@@@std@@@std@@@4@$0A@@std@@@std@@IAE?AU?$pair@V?$_Tree_iterator@V?$_Tree_val@U?$_Tree_simple_types@U?$pair@QAVIsolate@v8@@V?$queue@PAVTask@v8@@V?$deque@PAVTask@v8@@V?$allocator@PAVTask@v8@@@std@@@std@@@std@@@std@@@std@@@std@@@std@@_N@1@_NAAU?$pair@QAVIsolate@v8@@V?$queue@PAVTask@v8@@V?$deque@PAVTask@v8@@V?$allocator@PAVTask@v8@@@std@@@std@@@std@@@1@PAU?$_Tree_node@U?$pair@QAVIsolate@v8@@V?$queue@PAVTask@v8@@V?$deque@PAVTask@v8@@V?$allocator@PAVTask@v8@@@std@@@std@@@std@@@std@@PAX@1@@Z$0 100286d2 f i v8_libplatform:default-platform.obj
 0001:00028678       __catch$??0?$_Tree_alloc@$0A@U?$_Tree_base_types@U?$pair@QAVIsolate@v8@@V?$queue@PAVTask@v8@@V?$deque@PAVTask@v8@@V?$allocator@PAVTask@v8@@@std@@@std@@@std@@@std@@V?$allocator@U?$pair@QAVIsolate@v8@@V?$queue@PAVTask@v8@@V?$deque@PAVTask@v8@@V?$allocator@PAVTask@v8@@@std@@@std@@@std@@@std@@@2@@std@@@std@@QAE@ABV?$allocator@U?$pair@QAVIsolate@v8@@V?$queue@PAVTask@v8@@V?$deque@PAVTask@v8@@V?$allocator@PAVTask@v8@@@std@@@std@@@std@@@std@@@1@@Z$0 10029678 f i v8_libplatform:default-platform.obj
 0001:0002a6b5       __catch$?_Buyheadnode@?$_Tree_alloc@$0A@U?$_Tree_base_types@U?$pair@QAVIsolate@v8@@V?$queue@PAVTask@v8@@V?$deque@PAVTask@v8@@V?$allocator@PAVTask@v8@@@std@@@std@@@std@@@std@@V?$allocator@U?$pair@QAVIsolate@v8@@V?$queue@PAVTask@v8@@V?$deque@PAVTask@v8@@V?$allocator@PAVTask@v8@@@std@@@std@@@std@@@std@@@2@@std@@@std@@QAEPAU?$_Tree_node@U?$pair@QAVIsolate@v8@@V?$queue@PAVTask@v8@@V?$deque@PAVTask@v8@@V?$allocator@PAVTask@v8@@@std@@@std@@@std@@@std@@PAX@2@XZ$0 1002b6b5 f i v8_libplatform:default-platform.obj
 0001:0002a81e       __catch$?_Buynode0@?$_Tree_buy@U?$pair@QAVIsolate@v8@@V?$queue@PAVTask@v8@@V?$deque@PAVTask@v8@@V?$allocator@PAVTask@v8@@@std@@@std@@@std@@@std@@V?$allocator@U?$pair@QAVIsolate@v8@@V?$queue@PAVTask@v8@@V?$deque@PAVTask@v8@@V?$allocator@PAVTask@v8@@@std@@@std@@@std@@@std@@@2@@std@@QAEPAU?$_Tree_node@U?$pair@QAVIsolate@v8@@V?$queue@PAVTask@v8@@V?$deque@PAVTask@v8@@V?$allocator@PAVTask@v8@@@std@@@std@@@std@@@std@@PAX@2@XZ$0 1002b81e f i v8_libplatform:default-platform.obj
 0001:0002a9ef       __catch$?_Copy@?$basic_string@DU?$char_traits@D@std@@V?$allocator@D@2@@std@@QAEXII@Z$0 1002b9ef f i v8_libplatform:default-platform.obj
 0001:0002aa25       __catch$?_Copy@?$basic_string@DU?$char_traits@D@std@@V?$allocator@D@2@@std@@QAEXII@Z$1 1002ba25 f i v8_libplatform:default-platform.obj
 0001:0002ba0c       __catch$?_Reallocate@?$vector@PAVWorkerThread@platform@v8@@V?$allocator@PAVWorkerThread@platform@v8@@@std@@@std@@IAEXI@Z$0 1002ca0c f i v8_libplatform:default-platform.obj
 0001:0002e410       _pre_c_init                1002f410 f   MSVCRTD:crtdll.obj
 0001:0002e7b0       ___DllMainCRTStartup       1002f7b0 f   MSVCRTD:crtdll.obj
 0001:0002e990       ?DebuggerProbe@@YAHK@Z     1002f990 f   MSVCRTD:error.obj
 0001:0002ea30       ?DebuggerRuntime@@YAHKHPAXPB_W@Z 1002fa30 f   MSVCRTD:error.obj
 0001:0002ec30       ?_strlen_priv@@YAIPBD@Z    1002fc30 f   MSVCRTD:error.obj
 0001:0002ec50       ?failwithmessage@@YAXPAXHHPBD@Z 1002fc50 f   MSVCRTD:error.obj
 0001:0002f070       ?ArrayUnwindFilter@@YAHPAU_EXCEPTION_POINTERS@@@Z 10030070 f   MSVCRTD:ehvecdtr.obj
 0001:0002f540       ?GetPdbDll@@YAPAUHINSTANCE__@@XZ 10030540 f   MSVCRTD:pdblkup.obj
 0001:0002f680       ?GetPdbDllFromInstallPath@@YAPAUHINSTANCE__@@XZ 10030680 f   MSVCRTD:pdblkup.obj
 0001:0002f8b0       ?GetPdbDllPathFromFilePath@@YAHPB_WPA_WI@Z 100308b0 f   MSVCRTD:pdblkup.obj
 0001:0002fe50       ?DestroyNativeHandle@base@v8@@YAXPAU_RTL_CRITICAL_SECTION@@@Z 10030e50 f   v8_libbase:mutex.obj
 0001:0002fe60       ?InitializeNativeHandle@base@v8@@YAXPAU_RTL_CRITICAL_SECTION@@@Z 10030e60 f   v8_libbase:mutex.obj
 0001:0002fe90       ?LockNativeHandle@base@v8@@YAXPAU_RTL_CRITICAL_SECTION@@@Z 10030e90 f   v8_libbase:mutex.obj
 0001:0002fec0       ?UnlockNativeHandle@base@v8@@YAXPAU_RTL_CRITICAL_SECTION@@@Z 10030ec0 f   v8_libbase:mutex.obj
 0001:00030230       ?HasConsole@base@v8@@YA_NXZ 10031230 f   v8_libbase:platform-win32.obj
 0001:000303f0       ?ThreadEntry@base@v8@@YGIPAX@Z 100313f0 f   v8_libbase:platform-win32.obj
 0001:00030440       ?VPrintHelper@base@v8@@YAXPAU_iobuf@@PBDPAD@Z 10031440 f   v8_libbase:platform-win32.obj
 0001:000305a0       $$000000                   100315a0     MSVCRTD:lldiv.obj
 0001:00030650       $$000000                   10031650     MSVCRTD:llmul.obj
 0001:00030690       $$000000                   10031690     MSVCRTD:ulldiv.obj
 0001:00030700       $$000000                   10031700     MSVCRTD:ullrem.obj
 0001:00030780       $$000000                   10031780     MSVCRTD:chkstk.obj
 0001:000307b0       $$000000                   100317b0     MSVCRTD:ftol3.obj
 0001:00030b80       $$000000                   10031b80     MSVCRTD:llrem.obj
 0001:00030c40       $$000000                   10031c40     MSVCRTD:llshl.obj
 0001:00030c60       $$000000                   10031c60     MSVCRTD:ullshr.obj
 0001:00030c80       $$000000                   10031c80     MSVCRTD:llshr.obj
 0001:00030cb0       __unwindfunclet$_Call@20$0 10031cb0 f   Exports.obj
 0001:00030cc2       __unwindfunclet$_Call@20$1 10031cc2 f   Exports.obj
 0001:00030cd4       __unwindfunclet$_Call@20$2 10031cd4 f   Exports.obj
 0001:00030ce6       __unwindfunclet$_Call@20$3 10031ce6 f   Exports.obj
 0001:00030cee       __ehhandler$_Call@20       10031cee f   Exports.obj
 0001:00030d10       __unwindfunclet$_ConnectObject@12$0 10031d10 f   Exports.obj
 0001:00030d22       __unwindfunclet$_ConnectObject@12$1 10031d22 f   Exports.obj
 0001:00030d34       __unwindfunclet$_ConnectObject@12$2 10031d34 f   Exports.obj
 0001:00030d46       __unwindfunclet$_ConnectObject@12$3 10031d46 f   Exports.obj
 0001:00030d4e       __ehhandler$_ConnectObject@12 10031d4e f   Exports.obj
 0001:00030d70       __unwindfunclet$_CreateArray@12$0 10031d70 f   Exports.obj
 0001:00030d82       __unwindfunclet$_CreateArray@12$1 10031d82 f   Exports.obj
 0001:00030d94       __unwindfunclet$_CreateArray@12$2 10031d94 f   Exports.obj
 0001:00030da6       __unwindfunclet$_CreateArray@12$3 10031da6 f   Exports.obj
 0001:00030dae       __ehhandler$_CreateArray@12 10031dae f   Exports.obj
 0001:00030dd0       __unwindfunclet$_CreateBoolean@8$0 10031dd0 f   Exports.obj
 0001:00030de2       __unwindfunclet$_CreateBoolean@8$1 10031de2 f   Exports.obj
 0001:00030df4       __unwindfunclet$_CreateBoolean@8$2 10031df4 f   Exports.obj
 0001:00030e06       __unwindfunclet$_CreateBoolean@8$3 10031e06 f   Exports.obj
 0001:00030e0e       __ehhandler$_CreateBoolean@8 10031e0e f   Exports.obj
 0001:00030e30       __unwindfunclet$_CreateDate@12$0 10031e30 f   Exports.obj
 0001:00030e42       __unwindfunclet$_CreateDate@12$1 10031e42 f   Exports.obj
 0001:00030e54       __unwindfunclet$_CreateDate@12$2 10031e54 f   Exports.obj
 0001:00030e66       __unwindfunclet$_CreateDate@12$3 10031e66 f   Exports.obj
 0001:00030e6e       __ehhandler$_CreateDate@12 10031e6e f   Exports.obj
 0001:00030e90       __unwindfunclet$_CreateError@12$0 10031e90 f   Exports.obj
 0001:00030ea2       __unwindfunclet$_CreateError@12$1 10031ea2 f   Exports.obj
 0001:00030eb4       __unwindfunclet$_CreateError@12$2 10031eb4 f   Exports.obj
 0001:00030ec6       __unwindfunclet$_CreateError@12$3 10031ec6 f   Exports.obj
 0001:00030ece       __ehhandler$_CreateError@12 10031ece f   Exports.obj
 0001:00030ef0       __unwindfunclet$_CreateFunctionInstance@16$0 10031ef0 f   Exports.obj
 0001:00030f02       __unwindfunclet$_CreateFunctionInstance@16$1 10031f02 f   Exports.obj
 0001:00030f14       __unwindfunclet$_CreateFunctionInstance@16$2 10031f14 f   Exports.obj
 0001:00030f26       __unwindfunclet$_CreateFunctionInstance@16$3 10031f26 f   Exports.obj
 0001:00030f2e       __ehhandler$_CreateFunctionInstance@16 10031f2e f   Exports.obj
 0001:00030f50       __unwindfunclet$_CreateFunctionTemplateProxy@12$0 10031f50 f   Exports.obj
 0001:00030f62       __unwindfunclet$_CreateFunctionTemplateProxy@12$1 10031f62 f   Exports.obj
 0001:00030f74       __unwindfunclet$_CreateFunctionTemplateProxy@12$2 10031f74 f   Exports.obj
 0001:00030f86       __ehhandler$_CreateFunctionTemplateProxy@12 10031f86 f   Exports.obj
 0001:00030fb0       __unwindfunclet$_CreateInteger@8$0 10031fb0 f   Exports.obj
 0001:00030fc2       __unwindfunclet$_CreateInteger@8$1 10031fc2 f   Exports.obj
 0001:00030fd4       __unwindfunclet$_CreateInteger@8$2 10031fd4 f   Exports.obj
 0001:00030fe6       __unwindfunclet$_CreateInteger@8$3 10031fe6 f   Exports.obj
 0001:00030fee       __ehhandler$_CreateInteger@8 10031fee f   Exports.obj
 0001:00031010       __unwindfunclet$_CreateNullValue@4$0 10032010 f   Exports.obj
 0001:00031022       __unwindfunclet$_CreateNullValue@4$1 10032022 f   Exports.obj
 0001:00031034       __unwindfunclet$_CreateNullValue@4$2 10032034 f   Exports.obj
 0001:00031046       __unwindfunclet$_CreateNullValue@4$3 10032046 f   Exports.obj
 0001:0003104e       __ehhandler$_CreateNullValue@4 1003204e f   Exports.obj
 0001:00031070       __unwindfunclet$_CreateNumber@12$0 10032070 f   Exports.obj
 0001:00031082       __unwindfunclet$_CreateNumber@12$1 10032082 f   Exports.obj
 0001:00031094       __unwindfunclet$_CreateNumber@12$2 10032094 f   Exports.obj
 0001:000310a6       __unwindfunclet$_CreateNumber@12$3 100320a6 f   Exports.obj
 0001:000310ae       __ehhandler$_CreateNumber@12 100320ae f   Exports.obj
 0001:000310d0       __unwindfunclet$_CreateObject@8$0 100320d0 f   Exports.obj
 0001:000310e2       __unwindfunclet$_CreateObject@8$1 100320e2 f   Exports.obj
 0001:000310f4       __unwindfunclet$_CreateObject@8$2 100320f4 f   Exports.obj
 0001:00031106       __unwindfunclet$_CreateObject@8$3 10032106 f   Exports.obj
 0001:0003110e       __ehhandler$_CreateObject@8 1003210e f   Exports.obj
 0001:00031130       __unwindfunclet$_CreateObjectFromTemplate@8$0 10032130 f   Exports.obj
 0001:00031142       __unwindfunclet$_CreateObjectFromTemplate@8$1 10032142 f   Exports.obj
 0001:00031154       __unwindfunclet$_CreateObjectFromTemplate@8$2 10032154 f   Exports.obj
 0001:00031166       __unwindfunclet$_CreateObjectFromTemplate@8$3 10032166 f   Exports.obj
 0001:0003116e       __ehhandler$_CreateObjectFromTemplate@8 1003216e f   Exports.obj
 0001:00031190       __unwindfunclet$_CreateObjectTemplateProxy@4$0 10032190 f   Exports.obj
 0001:000311a2       __unwindfunclet$_CreateObjectTemplateProxy@4$1 100321a2 f   Exports.obj
 0001:000311b4       __unwindfunclet$_CreateObjectTemplateProxy@4$2 100321b4 f   Exports.obj
 0001:000311c6       __ehhandler$_CreateObjectTemplateProxy@4 100321c6 f   Exports.obj
 0001:000311f0       __unwindfunclet$_CreateString@8$0 100321f0 f   Exports.obj
 0001:00031202       __unwindfunclet$_CreateString@8$1 10032202 f   Exports.obj
 0001:00031214       __unwindfunclet$_CreateString@8$2 10032214 f   Exports.obj
 0001:00031226       __unwindfunclet$_CreateString@8$3 10032226 f   Exports.obj
 0001:0003122e       __ehhandler$_CreateString@8 1003222e f   Exports.obj
 0001:00031250       __unwindfunclet$_CreateStringArray@12$0 10032250 f   Exports.obj
 0001:00031262       __unwindfunclet$_CreateStringArray@12$1 10032262 f   Exports.obj
 0001:00031274       __unwindfunclet$_CreateStringArray@12$2 10032274 f   Exports.obj
 0001:00031286       __unwindfunclet$_CreateStringArray@12$3 10032286 f   Exports.obj
 0001:0003128e       __ehhandler$_CreateStringArray@12 1003228e f   Exports.obj
 0001:000312b0       __unwindfunclet$_CreateV8EngineProxy@12$0 100322b0 f   Exports.obj
 0001:000312be       __ehhandler$_CreateV8EngineProxy@12 100322be f   Exports.obj
 0001:000312e0       __unwindfunclet$_DeleteFunctionTemplateProxy@4$0 100322e0 f   Exports.obj
 0001:000312f2       __unwindfunclet$_DeleteFunctionTemplateProxy@4$1 100322f2 f   Exports.obj
 0001:00031304       __unwindfunclet$_DeleteFunctionTemplateProxy@4$2 10032304 f   Exports.obj
 0001:00031316       __ehhandler$_DeleteFunctionTemplateProxy@4 10032316 f   Exports.obj
 0001:00031340       __unwindfunclet$_DeleteObjectPropertyByIndex@8$0 10032340 f   Exports.obj
 0001:00031352       __unwindfunclet$_DeleteObjectPropertyByIndex@8$1 10032352 f   Exports.obj
 0001:00031364       __unwindfunclet$_DeleteObjectPropertyByIndex@8$2 10032364 f   Exports.obj
 0001:00031376       __unwindfunclet$_DeleteObjectPropertyByIndex@8$3 10032376 f   Exports.obj
 0001:0003137e       __ehhandler$_DeleteObjectPropertyByIndex@8 1003237e f   Exports.obj
 0001:000313a0       __unwindfunclet$_DeleteObjectPropertyByName@8$0 100323a0 f   Exports.obj
 0001:000313b2       __unwindfunclet$_DeleteObjectPropertyByName@8$1 100323b2 f   Exports.obj
 0001:000313c4       __unwindfunclet$_DeleteObjectPropertyByName@8$2 100323c4 f   Exports.obj
 0001:000313d6       __unwindfunclet$_DeleteObjectPropertyByName@8$3 100323d6 f   Exports.obj
 0001:000313de       __ehhandler$_DeleteObjectPropertyByName@8 100323de f   Exports.obj
 0001:00031400       __unwindfunclet$_DeleteObjectTemplateProxy@4$0 10032400 f   Exports.obj
 0001:00031412       __unwindfunclet$_DeleteObjectTemplateProxy@4$1 10032412 f   Exports.obj
 0001:00031424       __unwindfunclet$_DeleteObjectTemplateProxy@4$2 10032424 f   Exports.obj
 0001:00031436       __ehhandler$_DeleteObjectTemplateProxy@4 10032436 f   Exports.obj
 0001:00031460       __unwindfunclet$_DisposeHandleProxy@4$0 10032460 f   Exports.obj
 0001:00031472       __unwindfunclet$_DisposeHandleProxy@4$1 10032472 f   Exports.obj
 0001:00031484       __unwindfunclet$_DisposeHandleProxy@4$2 10032484 f   Exports.obj
 0001:00031496       __unwindfunclet$_DisposeHandleProxy@4$3 10032496 f   Exports.obj
 0001:0003149e       __ehhandler$_DisposeHandleProxy@4 1003249e f   Exports.obj
 0001:000314c0       __unwindfunclet$_ForceGC@4$0 100324c0 f   Exports.obj
 0001:000314d2       __unwindfunclet$_ForceGC@4$1 100324d2 f   Exports.obj
 0001:000314e4       __unwindfunclet$_ForceGC@4$2 100324e4 f   Exports.obj
 0001:000314f6       __ehhandler$_ForceGC@4     100324f6 f   Exports.obj
 0001:00031520       __unwindfunclet$_GetArrayLength@4$0 10032520 f   Exports.obj
 0001:00031532       __unwindfunclet$_GetArrayLength@4$1 10032532 f   Exports.obj
 0001:00031544       __unwindfunclet$_GetArrayLength@4$2 10032544 f   Exports.obj
 0001:00031556       __unwindfunclet$_GetArrayLength@4$3 10032556 f   Exports.obj
 0001:0003155e       __ehhandler$_GetArrayLength@4 1003255e f   Exports.obj
 0001:00031580       __unwindfunclet$_GetFunction@4$0 10032580 f   Exports.obj
 0001:00031592       __unwindfunclet$_GetFunction@4$1 10032592 f   Exports.obj
 0001:000315a4       __unwindfunclet$_GetFunction@4$2 100325a4 f   Exports.obj
 0001:000315b6       __unwindfunclet$_GetFunction@4$3 100325b6 f   Exports.obj
 0001:000315be       __ehhandler$_GetFunction@4 100325be f   Exports.obj
 0001:000315e0       __unwindfunclet$_GetFunctionInstanceTemplateProxy@4$0 100325e0 f   Exports.obj
 0001:000315f2       __unwindfunclet$_GetFunctionInstanceTemplateProxy@4$1 100325f2 f   Exports.obj
 0001:00031604       __unwindfunclet$_GetFunctionInstanceTemplateProxy@4$2 10032604 f   Exports.obj
 0001:00031616       __unwindfunclet$_GetFunctionInstanceTemplateProxy@4$3 10032616 f   Exports.obj
 0001:0003161e       __ehhandler$_GetFunctionInstanceTemplateProxy@4 1003261e f   Exports.obj
 0001:00031640       __unwindfunclet$_GetFunctionPrototypeTemplateProxy@4$0 10032640 f   Exports.obj
 0001:00031652       __unwindfunclet$_GetFunctionPrototypeTemplateProxy@4$1 10032652 f   Exports.obj
 0001:00031664       __unwindfunclet$_GetFunctionPrototypeTemplateProxy@4$2 10032664 f   Exports.obj
 0001:00031676       __unwindfunclet$_GetFunctionPrototypeTemplateProxy@4$3 10032676 f   Exports.obj
 0001:0003167e       __ehhandler$_GetFunctionPrototypeTemplateProxy@4 1003267e f   Exports.obj
 0001:000316a0       __unwindfunclet$_GetHandleManagedObjectID@4$0 100326a0 f   Exports.obj
 0001:000316b2       __unwindfunclet$_GetHandleManagedObjectID@4$1 100326b2 f   Exports.obj
 0001:000316c4       __unwindfunclet$_GetHandleManagedObjectID@4$2 100326c4 f   Exports.obj
 0001:000316d6       __unwindfunclet$_GetHandleManagedObjectID@4$3 100326d6 f   Exports.obj
 0001:000316de       __ehhandler$_GetHandleManagedObjectID@4 100326de f   Exports.obj
 0001:00031700       __unwindfunclet$_GetObjectPropertyByIndex@8$0 10032700 f   Exports.obj
 0001:00031712       __unwindfunclet$_GetObjectPropertyByIndex@8$1 10032712 f   Exports.obj
 0001:00031724       __unwindfunclet$_GetObjectPropertyByIndex@8$2 10032724 f   Exports.obj
 0001:00031736       __unwindfunclet$_GetObjectPropertyByIndex@8$3 10032736 f   Exports.obj
 0001:0003173e       __ehhandler$_GetObjectPropertyByIndex@8 1003273e f   Exports.obj
 0001:00031760       __unwindfunclet$_GetObjectPropertyByName@8$0 10032760 f   Exports.obj
 0001:00031772       __unwindfunclet$_GetObjectPropertyByName@8$1 10032772 f   Exports.obj
 0001:00031784       __unwindfunclet$_GetObjectPropertyByName@8$2 10032784 f   Exports.obj
 0001:00031796       __unwindfunclet$_GetObjectPropertyByName@8$3 10032796 f   Exports.obj
 0001:0003179e       __ehhandler$_GetObjectPropertyByName@8 1003279e f   Exports.obj
 0001:000317c0       __unwindfunclet$_GetObjectPrototype@4$0 100327c0 f   Exports.obj
 0001:000317d2       __unwindfunclet$_GetObjectPrototype@4$1 100327d2 f   Exports.obj
 0001:000317e4       __unwindfunclet$_GetObjectPrototype@4$2 100327e4 f   Exports.obj
 0001:000317f6       __unwindfunclet$_GetObjectPrototype@4$3 100327f6 f   Exports.obj
 0001:000317fe       __ehhandler$_GetObjectPrototype@4 100327fe f   Exports.obj
 0001:00031820       __unwindfunclet$_GetOwnPropertyNames@4$0 10032820 f   Exports.obj
 0001:00031832       __unwindfunclet$_GetOwnPropertyNames@4$1 10032832 f   Exports.obj
 0001:00031844       __unwindfunclet$_GetOwnPropertyNames@4$2 10032844 f   Exports.obj
 0001:00031856       __unwindfunclet$_GetOwnPropertyNames@4$3 10032856 f   Exports.obj
 0001:0003185e       __ehhandler$_GetOwnPropertyNames@4 1003285e f   Exports.obj
 0001:00031880       __unwindfunclet$_GetPropertyAttributes@8$0 10032880 f   Exports.obj
 0001:00031892       __unwindfunclet$_GetPropertyAttributes@8$1 10032892 f   Exports.obj
 0001:000318a4       __unwindfunclet$_GetPropertyAttributes@8$2 100328a4 f   Exports.obj
 0001:000318b6       __unwindfunclet$_GetPropertyAttributes@8$3 100328b6 f   Exports.obj
 0001:000318be       __ehhandler$_GetPropertyAttributes@8 100328be f   Exports.obj
 0001:000318e0       __unwindfunclet$_GetPropertyNames@4$0 100328e0 f   Exports.obj
 0001:000318f2       __unwindfunclet$_GetPropertyNames@4$1 100328f2 f   Exports.obj
 0001:00031904       __unwindfunclet$_GetPropertyNames@4$2 10032904 f   Exports.obj
 0001:00031916       __unwindfunclet$_GetPropertyNames@4$3 10032916 f   Exports.obj
 0001:0003191e       __ehhandler$_GetPropertyNames@4 1003291e f   Exports.obj
 0001:00031940       __unwindfunclet$_MakeStrongHandle@4$0 10032940 f   Exports.obj
 0001:00031952       __unwindfunclet$_MakeStrongHandle@4$1 10032952 f   Exports.obj
 0001:00031964       __unwindfunclet$_MakeStrongHandle@4$2 10032964 f   Exports.obj
 0001:00031976       __unwindfunclet$_MakeStrongHandle@4$3 10032976 f   Exports.obj
 0001:0003197e       __ehhandler$_MakeStrongHandle@4 1003297e f   Exports.obj
 0001:000319a0       __unwindfunclet$_MakeWeakHandle@4$0 100329a0 f   Exports.obj
 0001:000319b2       __unwindfunclet$_MakeWeakHandle@4$1 100329b2 f   Exports.obj
 0001:000319c4       __unwindfunclet$_MakeWeakHandle@4$2 100329c4 f   Exports.obj
 0001:000319d6       __unwindfunclet$_MakeWeakHandle@4$3 100329d6 f   Exports.obj
 0001:000319de       __ehhandler$_MakeWeakHandle@4 100329de f   Exports.obj
 0001:00031a00       __unwindfunclet$_RegisterGCCallback@8$0 10032a00 f   Exports.obj
 0001:00031a12       __unwindfunclet$_RegisterGCCallback@8$1 10032a12 f   Exports.obj
 0001:00031a24       __unwindfunclet$_RegisterGCCallback@8$2 10032a24 f   Exports.obj
 0001:00031a36       __unwindfunclet$_RegisterGCCallback@8$3 10032a36 f   Exports.obj
 0001:00031a3e       __ehhandler$_RegisterGCCallback@8 10032a3e f   Exports.obj
 0001:00031a60       __unwindfunclet$_RegisterIndexedPropertyHandlers@24$0 10032a60 f   Exports.obj
 0001:00031a72       __unwindfunclet$_RegisterIndexedPropertyHandlers@24$1 10032a72 f   Exports.obj
 0001:00031a84       __unwindfunclet$_RegisterIndexedPropertyHandlers@24$2 10032a84 f   Exports.obj
 0001:00031a96       __ehhandler$_RegisterIndexedPropertyHandlers@24 10032a96 f   Exports.obj
 0001:00031ac0       __unwindfunclet$_RegisterInvokeHandler@8$0 10032ac0 f   Exports.obj
 0001:00031ad2       __unwindfunclet$_RegisterInvokeHandler@8$1 10032ad2 f   Exports.obj
 0001:00031ae4       __unwindfunclet$_RegisterInvokeHandler@8$2 10032ae4 f   Exports.obj
 0001:00031af6       __ehhandler$_RegisterInvokeHandler@8 10032af6 f   Exports.obj
 0001:00031b20       __unwindfunclet$_RegisterNamedPropertyHandlers@24$0 10032b20 f   Exports.obj
 0001:00031b32       __unwindfunclet$_RegisterNamedPropertyHandlers@24$1 10032b32 f   Exports.obj
 0001:00031b44       __unwindfunclet$_RegisterNamedPropertyHandlers@24$2 10032b44 f   Exports.obj
 0001:00031b56       __ehhandler$_RegisterNamedPropertyHandlers@24 10032b56 f   Exports.obj
 0001:00031b80       __unwindfunclet$_SetFunctionTemplateProperty@16$0 10032b80 f   Exports.obj
 0001:00031b92       __unwindfunclet$_SetFunctionTemplateProperty@16$1 10032b92 f   Exports.obj
 0001:00031ba4       __unwindfunclet$_SetFunctionTemplateProperty@16$2 10032ba4 f   Exports.obj
 0001:00031bb6       __unwindfunclet$_SetFunctionTemplateProperty@16$3 10032bb6 f   Exports.obj
 0001:00031bbe       __ehhandler$_SetFunctionTemplateProperty@16 10032bbe f   Exports.obj
 0001:00031be0       __unwindfunclet$_SetGlobalObjectTemplate@8$0 10032be0 f   Exports.obj
 0001:00031bf2       __unwindfunclet$_SetGlobalObjectTemplate@8$1 10032bf2 f   Exports.obj
 0001:00031c04       __unwindfunclet$_SetGlobalObjectTemplate@8$2 10032c04 f   Exports.obj
 0001:00031c16       __ehhandler$_SetGlobalObjectTemplate@8 10032c16 f   Exports.obj
 0001:00031c40       __unwindfunclet$_SetObjectAccessor@28$0 10032c40 f   Exports.obj
 0001:00031c52       __unwindfunclet$_SetObjectAccessor@28$1 10032c52 f   Exports.obj
 0001:00031c64       __unwindfunclet$_SetObjectAccessor@28$2 10032c64 f   Exports.obj
 0001:00031c76       __unwindfunclet$_SetObjectAccessor@28$3 10032c76 f   Exports.obj
 0001:00031c7e       __ehhandler$_SetObjectAccessor@28 10032c7e f   Exports.obj
 0001:00031ca0       __unwindfunclet$_SetObjectPropertyByIndex@12$0 10032ca0 f   Exports.obj
 0001:00031cb2       __unwindfunclet$_SetObjectPropertyByIndex@12$1 10032cb2 f   Exports.obj
 0001:00031cc4       __unwindfunclet$_SetObjectPropertyByIndex@12$2 10032cc4 f   Exports.obj
 0001:00031cd6       __unwindfunclet$_SetObjectPropertyByIndex@12$3 10032cd6 f   Exports.obj
 0001:00031cde       __ehhandler$_SetObjectPropertyByIndex@12 10032cde f   Exports.obj
 0001:00031d00       __unwindfunclet$_SetObjectPropertyByName@16$0 10032d00 f   Exports.obj
 0001:00031d12       __unwindfunclet$_SetObjectPropertyByName@16$1 10032d12 f   Exports.obj
 0001:00031d24       __unwindfunclet$_SetObjectPropertyByName@16$2 10032d24 f   Exports.obj
 0001:00031d36       __unwindfunclet$_SetObjectPropertyByName@16$3 10032d36 f   Exports.obj
 0001:00031d3e       __ehhandler$_SetObjectPropertyByName@16 10032d3e f   Exports.obj
 0001:00031d60       __unwindfunclet$_SetObjectTemplateAccessor@28$0 10032d60 f   Exports.obj
 0001:00031d72       __unwindfunclet$_SetObjectTemplateAccessor@28$1 10032d72 f   Exports.obj
 0001:00031d84       __unwindfunclet$_SetObjectTemplateAccessor@28$2 10032d84 f   Exports.obj
 0001:00031d96       __unwindfunclet$_SetObjectTemplateAccessor@28$3 10032d96 f   Exports.obj
 0001:00031d9e       __ehhandler$_SetObjectTemplateAccessor@28 10032d9e f   Exports.obj
 0001:00031dc0       __unwindfunclet$_SetObjectTemplateProperty@16$0 10032dc0 f   Exports.obj
 0001:00031dd2       __unwindfunclet$_SetObjectTemplateProperty@16$1 10032dd2 f   Exports.obj
 0001:00031de4       __unwindfunclet$_SetObjectTemplateProperty@16$2 10032de4 f   Exports.obj
 0001:00031df6       __unwindfunclet$_SetObjectTemplateProperty@16$3 10032df6 f   Exports.obj
 0001:00031dfe       __ehhandler$_SetObjectTemplateProperty@16 10032dfe f   Exports.obj
 0001:00031e20       __unwindfunclet$_UnregisterIndexedPropertyHandlers@4$0 10032e20 f   Exports.obj
 0001:00031e32       __unwindfunclet$_UnregisterIndexedPropertyHandlers@4$1 10032e32 f   Exports.obj
 0001:00031e44       __unwindfunclet$_UnregisterIndexedPropertyHandlers@4$2 10032e44 f   Exports.obj
 0001:00031e56       __ehhandler$_UnregisterIndexedPropertyHandlers@4 10032e56 f   Exports.obj
 0001:00031e80       __unwindfunclet$_UnregisterNamedPropertyHandlers@4$0 10032e80 f   Exports.obj
 0001:00031e92       __unwindfunclet$_UnregisterNamedPropertyHandlers@4$1 10032e92 f   Exports.obj
 0001:00031ea4       __unwindfunclet$_UnregisterNamedPropertyHandlers@4$2 10032ea4 f   Exports.obj
 0001:00031eb6       __ehhandler$_UnregisterNamedPropertyHandlers@4 10032eb6 f   Exports.obj
 0001:00031ee0       __unwindfunclet$_UpdateHandleValue@4$0 10032ee0 f   Exports.obj
 0001:00031ef2       __unwindfunclet$_UpdateHandleValue@4$1 10032ef2 f   Exports.obj
 0001:00031f04       __unwindfunclet$_UpdateHandleValue@4$2 10032f04 f   Exports.obj
 0001:00031f16       __unwindfunclet$_UpdateHandleValue@4$3 10032f16 f   Exports.obj
 0001:00031f1e       __ehhandler$_UpdateHandleValue@4 10032f1e f   Exports.obj
 0001:00031f40       __unwindfunclet$_V8Compile@12$0 10032f40 f   Exports.obj
 0001:00031f52       __unwindfunclet$_V8Compile@12$1 10032f52 f   Exports.obj
 0001:00031f64       __unwindfunclet$_V8Compile@12$2 10032f64 f   Exports.obj
 0001:00031f76       __unwindfunclet$_V8Compile@12$3 10032f76 f   Exports.obj
 0001:00031f7e       __ehhandler$_V8Compile@12  10032f7e f   Exports.obj
 0001:00031fa0       __unwindfunclet$_V8Execute@12$0 10032fa0 f   Exports.obj
 0001:00031fb2       __unwindfunclet$_V8Execute@12$1 10032fb2 f   Exports.obj
 0001:00031fc4       __unwindfunclet$_V8Execute@12$2 10032fc4 f   Exports.obj
 0001:00031fd6       __unwindfunclet$_V8Execute@12$3 10032fd6 f   Exports.obj
 0001:00031fde       __ehhandler$_V8Execute@12  10032fde f   Exports.obj
 0001:00032000       __unwindfunclet$_V8ExecuteCompiledScript@8$0 10033000 f   Exports.obj
 0001:00032012       __unwindfunclet$_V8ExecuteCompiledScript@8$1 10033012 f   Exports.obj
 0001:00032024       __unwindfunclet$_V8ExecuteCompiledScript@8$2 10033024 f   Exports.obj
 0001:00032036       __unwindfunclet$_V8ExecuteCompiledScript@8$3 10033036 f   Exports.obj
 0001:0003203e       __ehhandler$_V8ExecuteCompiledScript@8 1003303e f   Exports.obj
 0001:00032060       __unwindfunclet$??0?$CopyablePersistent@VFunctionTemplate@v8@@@@QAE@AAV?$Handle@VFunctionTemplate@v8@@@v8@@@Z$0 10033060 f   FunctionTemplateProxy.obj
 0001:00032068       __unwindfunclet$??0?$CopyablePersistent@VFunctionTemplate@v8@@@@QAE@AAV?$Handle@VFunctionTemplate@v8@@@v8@@@Z$1 10033068 f   FunctionTemplateProxy.obj
 0001:00032073       __ehhandler$??0?$CopyablePersistent@VFunctionTemplate@v8@@@@QAE@AAV?$Handle@VFunctionTemplate@v8@@@v8@@@Z 10033073 f   FunctionTemplateProxy.obj
 0001:000320a0       __unwindfunclet$??0?$CopyablePersistent@VFunctionTemplate@v8@@@@QAE@XZ$0 100330a0 f   FunctionTemplateProxy.obj
 0001:000320a8       __ehhandler$??0?$CopyablePersistent@VFunctionTemplate@v8@@@@QAE@XZ 100330a8 f   FunctionTemplateProxy.obj
 0001:000320d0       __unwindfunclet$??0FunctionTemplateProxy@@QAE@PAVV8EngineProxy@@PAGP6GPAUHandleProxy@@H_NPAU2@PAPAU2@I@Z@Z$0 100330d0 f   FunctionTemplateProxy.obj
 0001:000320db       __unwindfunclet$??0FunctionTemplateProxy@@QAE@PAVV8EngineProxy@@PAGP6GPAUHandleProxy@@H_NPAU2@PAPAU2@I@Z@Z$1 100330db f   FunctionTemplateProxy.obj
 0001:000320e6       __unwindfunclet$??0FunctionTemplateProxy@@QAE@PAVV8EngineProxy@@PAGP6GPAUHandleProxy@@H_NPAU2@PAPAU2@I@Z@Z$2 100330e6 f   FunctionTemplateProxy.obj
 0001:000320f4       __unwindfunclet$??0FunctionTemplateProxy@@QAE@PAVV8EngineProxy@@PAGP6GPAUHandleProxy@@H_NPAU2@PAPAU2@I@Z@Z$3 100330f4 f   FunctionTemplateProxy.obj
 0001:00032102       __ehhandler$??0FunctionTemplateProxy@@QAE@PAVV8EngineProxy@@PAGP6GPAUHandleProxy@@H_NPAU2@PAPAU2@I@Z@Z 10033102 f   FunctionTemplateProxy.obj
 0001:00032120       __unwindfunclet$??1?$CopyablePersistent@VFunctionTemplate@v8@@@@QAE@XZ$0 10033120 f   FunctionTemplateProxy.obj
 0001:00032128       __ehhandler$??1?$CopyablePersistent@VFunctionTemplate@v8@@@@QAE@XZ 10033128 f   FunctionTemplateProxy.obj
 0001:00032150       __unwindfunclet$??1FunctionTemplateProxy@@QAE@XZ$0 10033150 f   FunctionTemplateProxy.obj
 0001:0003215b       __unwindfunclet$??1FunctionTemplateProxy@@QAE@XZ$1 1003315b f   FunctionTemplateProxy.obj
 0001:0003216d       __unwindfunclet$??1FunctionTemplateProxy@@QAE@XZ$2 1003316d f   FunctionTemplateProxy.obj
 0001:0003217f       __unwindfunclet$??1FunctionTemplateProxy@@QAE@XZ$3 1003317f f   FunctionTemplateProxy.obj
 0001:00032191       __unwindfunclet$??1FunctionTemplateProxy@@QAE@XZ$4 10033191 f   FunctionTemplateProxy.obj
 0001:00032199       __ehhandler$??1FunctionTemplateProxy@@QAE@XZ 10033199 f   FunctionTemplateProxy.obj
 0001:000321c0       __unwindfunclet$?CreateInstance@FunctionTemplateProxy@@QAEPAUHandleProxy@@HHPAPAU2@@Z$0 100331c0 f   FunctionTemplateProxy.obj
 0001:000321ce       __ehhandler$?CreateInstance@FunctionTemplateProxy@@QAEPAUHandleProxy@@HHPAPAU2@@Z 100331ce f   FunctionTemplateProxy.obj
 0001:000321f0       __unwindfunclet$??0?$CopyablePersistent@VScript@v8@@@@QAE@AAV?$Handle@VScript@v8@@@v8@@@Z$0 100331f0 f   HandleProxy.obj
 0001:000321f8       __unwindfunclet$??0?$CopyablePersistent@VScript@v8@@@@QAE@AAV?$Handle@VScript@v8@@@v8@@@Z$1 100331f8 f   HandleProxy.obj
 0001:00032203       __ehhandler$??0?$CopyablePersistent@VScript@v8@@@@QAE@AAV?$Handle@VScript@v8@@@v8@@@Z 10033203 f   HandleProxy.obj
 0001:00032230       __unwindfunclet$??0?$CopyablePersistent@VScript@v8@@@@QAE@XZ$0 10033230 f   HandleProxy.obj
 0001:00032238       __ehhandler$??0?$CopyablePersistent@VScript@v8@@@@QAE@XZ 10033238 f   HandleProxy.obj
 0001:00032260       __unwindfunclet$??0?$CopyablePersistent@VValue@v8@@@@QAE@AAV?$Handle@VValue@v8@@@v8@@@Z$0 10033260 f   HandleProxy.obj
 0001:00032268       __unwindfunclet$??0?$CopyablePersistent@VValue@v8@@@@QAE@AAV?$Handle@VValue@v8@@@v8@@@Z$1 10033268 f   HandleProxy.obj
 0001:00032273       __ehhandler$??0?$CopyablePersistent@VValue@v8@@@@QAE@AAV?$Handle@VValue@v8@@@v8@@@Z 10033273 f   HandleProxy.obj
 0001:000322a0       __unwindfunclet$??0?$CopyablePersistent@VValue@v8@@@@QAE@XZ$0 100332a0 f   HandleProxy.obj
 0001:000322a8       __ehhandler$??0?$CopyablePersistent@VValue@v8@@@@QAE@XZ 100332a8 f   HandleProxy.obj
 0001:000322d0       __unwindfunclet$??0HandleProxy@@IAE@PAVV8EngineProxy@@H@Z$0 100332d0 f   HandleProxy.obj
 0001:000322db       __unwindfunclet$??0HandleProxy@@IAE@PAVV8EngineProxy@@H@Z$1 100332db f   HandleProxy.obj
 0001:000322e6       __unwindfunclet$??0HandleProxy@@IAE@PAVV8EngineProxy@@H@Z$2 100332e6 f   HandleProxy.obj
 0001:000322f1       __ehhandler$??0HandleProxy@@IAE@PAVV8EngineProxy@@H@Z 100332f1 f   HandleProxy.obj
 0001:00032310       __unwindfunclet$??1?$CopyablePersistent@VScript@v8@@@@QAE@XZ$0 10033310 f   HandleProxy.obj
 0001:00032318       __ehhandler$??1?$CopyablePersistent@VScript@v8@@@@QAE@XZ 10033318 f   HandleProxy.obj
 0001:00032340       __unwindfunclet$??1?$CopyablePersistent@VValue@v8@@@@QAE@XZ$0 10033340 f   HandleProxy.obj
 0001:00032348       __ehhandler$??1?$CopyablePersistent@VValue@v8@@@@QAE@XZ 10033348 f   HandleProxy.obj
 0001:00032370       __unwindfunclet$??1HandleProxy@@IAE@XZ$0 10033370 f   HandleProxy.obj
 0001:0003237b       __unwindfunclet$??1HandleProxy@@IAE@XZ$1 1003337b f   HandleProxy.obj
 0001:00032386       __unwindfunclet$??1HandleProxy@@IAE@XZ$2 10033386 f   HandleProxy.obj
 0001:00032391       __ehhandler$??1HandleProxy@@IAE@XZ 10033391 f   HandleProxy.obj
 0001:000323b0       __unwindfunclet$?SetHandle@HandleProxy@@IAEPAU1@V?$Handle@VScript@v8@@@v8@@@Z$0 100333b0 f   HandleProxy.obj
 0001:000323bb       __ehhandler$?SetHandle@HandleProxy@@IAEPAU1@V?$Handle@VScript@v8@@@v8@@@Z 100333bb f   HandleProxy.obj
 0001:000323e0       __unwindfunclet$?SetHandle@HandleProxy@@IAEPAU1@V?$Handle@VValue@v8@@@v8@@@Z$0 100333e0 f   HandleProxy.obj
 0001:000323eb       __ehhandler$?SetHandle@HandleProxy@@IAEPAU1@V?$Handle@VValue@v8@@@v8@@@Z 100333eb f   HandleProxy.obj
 0001:00032410       __unwindfunclet$??0?$CopyablePersistent@VObjectTemplate@v8@@@@QAE@AAV?$Handle@VObjectTemplate@v8@@@v8@@@Z$0 10033410 f   ObjectTemplateProxy.obj
 0001:00032418       __unwindfunclet$??0?$CopyablePersistent@VObjectTemplate@v8@@@@QAE@AAV?$Handle@VObjectTemplate@v8@@@v8@@@Z$1 10033418 f   ObjectTemplateProxy.obj
 0001:00032423       __ehhandler$??0?$CopyablePersistent@VObjectTemplate@v8@@@@QAE@AAV?$Handle@VObjectTemplate@v8@@@v8@@@Z 10033423 f   ObjectTemplateProxy.obj
 0001:00032450       __unwindfunclet$??0?$CopyablePersistent@VObjectTemplate@v8@@@@QAE@XZ$0 10033450 f   ObjectTemplateProxy.obj
 0001:00032458       __ehhandler$??0?$CopyablePersistent@VObjectTemplate@v8@@@@QAE@XZ 10033458 f   ObjectTemplateProxy.obj
 0001:00032480       __unwindfunclet$??0ObjectTemplateProxy@@QAE@PAVV8EngineProxy@@@Z$0 10033480 f   ObjectTemplateProxy.obj
 0001:0003248b       __unwindfunclet$??0ObjectTemplateProxy@@QAE@PAVV8EngineProxy@@@Z$1 1003348b f   ObjectTemplateProxy.obj
 0001:00032496       __ehhandler$??0ObjectTemplateProxy@@QAE@PAVV8EngineProxy@@@Z 10033496 f   ObjectTemplateProxy.obj
 0001:000324c0       __unwindfunclet$??0ObjectTemplateProxy@@QAE@PAVV8EngineProxy@@V?$Local@VObjectTemplate@v8@@@v8@@@Z$0 100334c0 f   ObjectTemplateProxy.obj
 0001:000324cb       __unwindfunclet$??0ObjectTemplateProxy@@QAE@PAVV8EngineProxy@@V?$Local@VObjectTemplate@v8@@@v8@@@Z$1 100334cb f   ObjectTemplateProxy.obj
 0001:000324d6       __ehhandler$??0ObjectTemplateProxy@@QAE@PAVV8EngineProxy@@V?$Local@VObjectTemplate@v8@@@v8@@@Z 100334d6 f   ObjectTemplateProxy.obj
 0001:00032500       __unwindfunclet$??1?$CopyablePersistent@VObjectTemplate@v8@@@@QAE@XZ$0 10033500 f   ObjectTemplateProxy.obj
 0001:00032508       __ehhandler$??1?$CopyablePersistent@VObjectTemplate@v8@@@@QAE@XZ 10033508 f   ObjectTemplateProxy.obj
 0001:00032530       __unwindfunclet$??1ObjectTemplateProxy@@QAE@XZ$0 10033530 f   ObjectTemplateProxy.obj
 0001:0003253b       __unwindfunclet$??1ObjectTemplateProxy@@QAE@XZ$1 1003353b f   ObjectTemplateProxy.obj
 0001:0003254d       __unwindfunclet$??1ObjectTemplateProxy@@QAE@XZ$2 1003354d f   ObjectTemplateProxy.obj
 0001:0003255f       __unwindfunclet$??1ObjectTemplateProxy@@QAE@XZ$3 1003355f f   ObjectTemplateProxy.obj
 0001:00032571       __unwindfunclet$??1ObjectTemplateProxy@@QAE@XZ$4 10033571 f   ObjectTemplateProxy.obj
 0001:00032579       __ehhandler$??1ObjectTemplateProxy@@QAE@XZ 10033579 f   ObjectTemplateProxy.obj
 0001:000325a0       __unwindfunclet$??$_Copy_backward@V?$_Vb_iterator@U?$_Wrap_alloc@V?$allocator@I@std@@@std@@@std@@V12@@std@@YA?AV?$_Vb_iterator@U?$_Wrap_alloc@V?$allocator@I@std@@@std@@@0@V10@00@Z$0 100335a0 f   V8EngineProxy.obj
 0001:000325a8       __unwindfunclet$??$_Copy_backward@V?$_Vb_iterator@U?$_Wrap_alloc@V?$allocator@I@std@@@std@@@std@@V12@@std@@YA?AV?$_Vb_iterator@U?$_Wrap_alloc@V?$allocator@I@std@@@std@@@0@V10@00@Z$1 100335a8 f   V8EngineProxy.obj
 0001:000325b0       __unwindfunclet$??$_Copy_backward@V?$_Vb_iterator@U?$_Wrap_alloc@V?$allocator@I@std@@@std@@@std@@V12@@std@@YA?AV?$_Vb_iterator@U?$_Wrap_alloc@V?$allocator@I@std@@@std@@@0@V10@00@Z$2 100335b0 f   V8EngineProxy.obj
 0001:000325b8       __unwindfunclet$??$_Copy_backward@V?$_Vb_iterator@U?$_Wrap_alloc@V?$allocator@I@std@@@std@@@std@@V12@@std@@YA?AV?$_Vb_iterator@U?$_Wrap_alloc@V?$allocator@I@std@@@std@@@0@V10@00@Z$3 100335b8 f   V8EngineProxy.obj
 0001:000325c3       __unwindfunclet$??$_Copy_backward@V?$_Vb_iterator@U?$_Wrap_alloc@V?$allocator@I@std@@@std@@@std@@V12@@std@@YA?AV?$_Vb_iterator@U?$_Wrap_alloc@V?$allocator@I@std@@@std@@@0@V10@00@Z$4 100335c3 f   V8EngineProxy.obj
 0001:000325ce       __unwindfunclet$??$_Copy_backward@V?$_Vb_iterator@U?$_Wrap_alloc@V?$allocator@I@std@@@std@@@std@@V12@@std@@YA?AV?$_Vb_iterator@U?$_Wrap_alloc@V?$allocator@I@std@@@std@@@0@V10@00@Z$5 100335ce f   V8EngineProxy.obj
 0001:000325d9       __unwindfunclet$??$_Copy_backward@V?$_Vb_iterator@U?$_Wrap_alloc@V?$allocator@I@std@@@std@@@std@@V12@@std@@YA?AV?$_Vb_iterator@U?$_Wrap_alloc@V?$allocator@I@std@@@std@@@0@V10@00@Z$6 100335d9 f   V8EngineProxy.obj
 0001:000325f8       __ehhandler$??$_Copy_backward@V?$_Vb_iterator@U?$_Wrap_alloc@V?$allocator@I@std@@@std@@@std@@V12@@std@@YA?AV?$_Vb_iterator@U?$_Wrap_alloc@V?$allocator@I@std@@@std@@@0@V10@00@Z 100335f8 f   V8EngineProxy.obj
 0001:00032620       __unwindfunclet$??$_Copy_backward@V?$_Vb_iterator@U?$_Wrap_alloc@V?$allocator@I@std@@@std@@@std@@V12@@std@@YA?AV?$_Vb_iterator@U?$_Wrap_alloc@V?$allocator@I@std@@@std@@@0@V10@00U?$integral_constant@_N$00@0@@Z$0 10033620 f   V8EngineProxy.obj
 0001:00032628       __unwindfunclet$??$_Copy_backward@V?$_Vb_iterator@U?$_Wrap_alloc@V?$allocator@I@std@@@std@@@std@@V12@@std@@YA?AV?$_Vb_iterator@U?$_Wrap_alloc@V?$allocator@I@std@@@std@@@0@V10@00U?$integral_constant@_N$00@0@@Z$1 10033628 f   V8EngineProxy.obj
 0001:00032630       __unwindfunclet$??$_Copy_backward@V?$_Vb_iterator@U?$_Wrap_alloc@V?$allocator@I@std@@@std@@@std@@V12@@std@@YA?AV?$_Vb_iterator@U?$_Wrap_alloc@V?$allocator@I@std@@@std@@@0@V10@00U?$integral_constant@_N$00@0@@Z$2 10033630 f   V8EngineProxy.obj
 0001:00032638       __unwindfunclet$??$_Copy_backward@V?$_Vb_iterator@U?$_Wrap_alloc@V?$allocator@I@std@@@std@@@std@@V12@@std@@YA?AV?$_Vb_iterator@U?$_Wrap_alloc@V?$allocator@I@std@@@std@@@0@V10@00U?$integral_constant@_N$00@0@@Z$3 10033638 f   V8EngineProxy.obj
 0001:00032643       __unwindfunclet$??$_Copy_backward@V?$_Vb_iterator@U?$_Wrap_alloc@V?$allocator@I@std@@@std@@@std@@V12@@std@@YA?AV?$_Vb_iterator@U?$_Wrap_alloc@V?$allocator@I@std@@@std@@@0@V10@00U?$integral_constant@_N$00@0@@Z$4 10033643 f   V8EngineProxy.obj
 0001:0003264e       __unwindfunclet$??$_Copy_backward@V?$_Vb_iterator@U?$_Wrap_alloc@V?$allocator@I@std@@@std@@@std@@V12@@std@@YA?AV?$_Vb_iterator@U?$_Wrap_alloc@V?$allocator@I@std@@@std@@@0@V10@00U?$integral_constant@_N$00@0@@Z$5 1003364e f   V8EngineProxy.obj
 0001:00032659       __unwindfunclet$??$_Copy_backward@V?$_Vb_iterator@U?$_Wrap_alloc@V?$allocator@I@std@@@std@@@std@@V12@@std@@YA?AV?$_Vb_iterator@U?$_Wrap_alloc@V?$allocator@I@std@@@std@@@0@V10@00U?$integral_constant@_N$00@0@@Z$6 10033659 f   V8EngineProxy.obj
 0001:00032664       __unwindfunclet$??$_Copy_backward@V?$_Vb_iterator@U?$_Wrap_alloc@V?$allocator@I@std@@@std@@@std@@V12@@std@@YA?AV?$_Vb_iterator@U?$_Wrap_alloc@V?$allocator@I@std@@@std@@@0@V10@00U?$integral_constant@_N$00@0@@Z$7 10033664 f   V8EngineProxy.obj
 0001:0003266f       __unwindfunclet$??$_Copy_backward@V?$_Vb_iterator@U?$_Wrap_alloc@V?$allocator@I@std@@@std@@@std@@V12@@std@@YA?AV?$_Vb_iterator@U?$_Wrap_alloc@V?$allocator@I@std@@@std@@@0@V10@00U?$integral_constant@_N$00@0@@Z$8 1003366f f   V8EngineProxy.obj
 0001:0003268e       __ehhandler$??$_Copy_backward@V?$_Vb_iterator@U?$_Wrap_alloc@V?$allocator@I@std@@@std@@@std@@V12@@std@@YA?AV?$_Vb_iterator@U?$_Wrap_alloc@V?$allocator@I@std@@@std@@@0@V10@00U?$integral_constant@_N$00@0@@Z 1003368e f   V8EngineProxy.obj
 0001:000326b0       __unwindfunclet$??$_Copy_backward@V?$_Vb_iterator@U?$_Wrap_alloc@V?$allocator@I@std@@@std@@@std@@V12@@std@@YA?AV?$_Vb_iterator@U?$_Wrap_alloc@V?$allocator@I@std@@@std@@@0@V10@00U_Nonscalar_ptr_iterator_tag@0@@Z$0 100336b0 f   V8EngineProxy.obj
 0001:000326b8       __unwindfunclet$??$_Copy_backward@V?$_Vb_iterator@U?$_Wrap_alloc@V?$allocator@I@std@@@std@@@std@@V12@@std@@YA?AV?$_Vb_iterator@U?$_Wrap_alloc@V?$allocator@I@std@@@std@@@0@V10@00U_Nonscalar_ptr_iterator_tag@0@@Z$1 100336b8 f   V8EngineProxy.obj
 0001:000326c0       __unwindfunclet$??$_Copy_backward@V?$_Vb_iterator@U?$_Wrap_alloc@V?$allocator@I@std@@@std@@@std@@V12@@std@@YA?AV?$_Vb_iterator@U?$_Wrap_alloc@V?$allocator@I@std@@@std@@@0@V10@00U_Nonscalar_ptr_iterator_tag@0@@Z$2 100336c0 f   V8EngineProxy.obj
 0001:000326c8       __unwindfunclet$??$_Copy_backward@V?$_Vb_iterator@U?$_Wrap_alloc@V?$allocator@I@std@@@std@@@std@@V12@@std@@YA?AV?$_Vb_iterator@U?$_Wrap_alloc@V?$allocator@I@std@@@std@@@0@V10@00U_Nonscalar_ptr_iterator_tag@0@@Z$3 100336c8 f   V8EngineProxy.obj
 0001:000326d3       __unwindfunclet$??$_Copy_backward@V?$_Vb_iterator@U?$_Wrap_alloc@V?$allocator@I@std@@@std@@@std@@V12@@std@@YA?AV?$_Vb_iterator@U?$_Wrap_alloc@V?$allocator@I@std@@@std@@@0@V10@00U_Nonscalar_ptr_iterator_tag@0@@Z$4 100336d3 f   V8EngineProxy.obj
 0001:000326de       __unwindfunclet$??$_Copy_backward@V?$_Vb_iterator@U?$_Wrap_alloc@V?$allocator@I@std@@@std@@@std@@V12@@std@@YA?AV?$_Vb_iterator@U?$_Wrap_alloc@V?$allocator@I@std@@@std@@@0@V10@00U_Nonscalar_ptr_iterator_tag@0@@Z$5 100336de f   V8EngineProxy.obj
 0001:000326fd       __ehhandler$??$_Copy_backward@V?$_Vb_iterator@U?$_Wrap_alloc@V?$allocator@I@std@@@std@@@std@@V12@@std@@YA?AV?$_Vb_iterator@U?$_Wrap_alloc@V?$allocator@I@std@@@std@@@0@V10@00U_Nonscalar_ptr_iterator_tag@0@@Z 100336fd f   V8EngineProxy.obj
 0001:00032720       __unwindfunclet$??$_Copy_impl@V?$_Vb_iterator@U?$_Wrap_alloc@V?$allocator@I@std@@@std@@@std@@V12@@std@@YA?AV?$_Vb_iterator@U?$_Wrap_alloc@V?$allocator@I@std@@@std@@@0@V10@00@Z$0 10033720 f   V8EngineProxy.obj
 0001:00032728       __unwindfunclet$??$_Copy_impl@V?$_Vb_iterator@U?$_Wrap_alloc@V?$allocator@I@std@@@std@@@std@@V12@@std@@YA?AV?$_Vb_iterator@U?$_Wrap_alloc@V?$allocator@I@std@@@std@@@0@V10@00@Z$1 10033728 f   V8EngineProxy.obj
 0001:00032730       __unwindfunclet$??$_Copy_impl@V?$_Vb_iterator@U?$_Wrap_alloc@V?$allocator@I@std@@@std@@@std@@V12@@std@@YA?AV?$_Vb_iterator@U?$_Wrap_alloc@V?$allocator@I@std@@@std@@@0@V10@00@Z$2 10033730 f   V8EngineProxy.obj
 0001:00032738       __unwindfunclet$??$_Copy_impl@V?$_Vb_iterator@U?$_Wrap_alloc@V?$allocator@I@std@@@std@@@std@@V12@@std@@YA?AV?$_Vb_iterator@U?$_Wrap_alloc@V?$allocator@I@std@@@std@@@0@V10@00@Z$3 10033738 f   V8EngineProxy.obj
 0001:00032743       __unwindfunclet$??$_Copy_impl@V?$_Vb_iterator@U?$_Wrap_alloc@V?$allocator@I@std@@@std@@@std@@V12@@std@@YA?AV?$_Vb_iterator@U?$_Wrap_alloc@V?$allocator@I@std@@@std@@@0@V10@00@Z$4 10033743 f   V8EngineProxy.obj
 0001:0003274e       __unwindfunclet$??$_Copy_impl@V?$_Vb_iterator@U?$_Wrap_alloc@V?$allocator@I@std@@@std@@@std@@V12@@std@@YA?AV?$_Vb_iterator@U?$_Wrap_alloc@V?$allocator@I@std@@@std@@@0@V10@00@Z$5 1003374e f   V8EngineProxy.obj
 0001:00032759       __unwindfunclet$??$_Copy_impl@V?$_Vb_iterator@U?$_Wrap_alloc@V?$allocator@I@std@@@std@@@std@@V12@@std@@YA?AV?$_Vb_iterator@U?$_Wrap_alloc@V?$allocator@I@std@@@std@@@0@V10@00@Z$6 10033759 f   V8EngineProxy.obj
 0001:00032778       __ehhandler$??$_Copy_impl@V?$_Vb_iterator@U?$_Wrap_alloc@V?$allocator@I@std@@@std@@@std@@V12@@std@@YA?AV?$_Vb_iterator@U?$_Wrap_alloc@V?$allocator@I@std@@@std@@@0@V10@00@Z 10033778 f   V8EngineProxy.obj
 0001:000327a0       __unwindfunclet$??$_Copy_impl@V?$_Vb_iterator@U?$_Wrap_alloc@V?$allocator@I@std@@@std@@@std@@V12@@std@@YA?AV?$_Vb_iterator@U?$_Wrap_alloc@V?$allocator@I@std@@@std@@@0@V10@00U?$integral_constant@_N$00@0@@Z$0 100337a0 f   V8EngineProxy.obj
 0001:000327a8       __unwindfunclet$??$_Copy_impl@V?$_Vb_iterator@U?$_Wrap_alloc@V?$allocator@I@std@@@std@@@std@@V12@@std@@YA?AV?$_Vb_iterator@U?$_Wrap_alloc@V?$allocator@I@std@@@std@@@0@V10@00U?$integral_constant@_N$00@0@@Z$1 100337a8 f   V8EngineProxy.obj
 0001:000327b0       __unwindfunclet$??$_Copy_impl@V?$_Vb_iterator@U?$_Wrap_alloc@V?$allocator@I@std@@@std@@@std@@V12@@std@@YA?AV?$_Vb_iterator@U?$_Wrap_alloc@V?$allocator@I@std@@@std@@@0@V10@00U?$integral_constant@_N$00@0@@Z$2 100337b0 f   V8EngineProxy.obj
 0001:000327b8       __unwindfunclet$??$_Copy_impl@V?$_Vb_iterator@U?$_Wrap_alloc@V?$allocator@I@std@@@std@@@std@@V12@@std@@YA?AV?$_Vb_iterator@U?$_Wrap_alloc@V?$allocator@I@std@@@std@@@0@V10@00U?$integral_constant@_N$00@0@@Z$3 100337b8 f   V8EngineProxy.obj
 0001:000327c3       __unwindfunclet$??$_Copy_impl@V?$_Vb_iterator@U?$_Wrap_alloc@V?$allocator@I@std@@@std@@@std@@V12@@std@@YA?AV?$_Vb_iterator@U?$_Wrap_alloc@V?$allocator@I@std@@@std@@@0@V10@00U?$integral_constant@_N$00@0@@Z$4 100337c3 f   V8EngineProxy.obj
 0001:000327ce       __unwindfunclet$??$_Copy_impl@V?$_Vb_iterator@U?$_Wrap_alloc@V?$allocator@I@std@@@std@@@std@@V12@@std@@YA?AV?$_Vb_iterator@U?$_Wrap_alloc@V?$allocator@I@std@@@std@@@0@V10@00U?$integral_constant@_N$00@0@@Z$5 100337ce f   V8EngineProxy.obj
 0001:000327d9       __unwindfunclet$??$_Copy_impl@V?$_Vb_iterator@U?$_Wrap_alloc@V?$allocator@I@std@@@std@@@std@@V12@@std@@YA?AV?$_Vb_iterator@U?$_Wrap_alloc@V?$allocator@I@std@@@std@@@0@V10@00U?$integral_constant@_N$00@0@@Z$6 100337d9 f   V8EngineProxy.obj
 0001:000327f8       __ehhandler$??$_Copy_impl@V?$_Vb_iterator@U?$_Wrap_alloc@V?$allocator@I@std@@@std@@@std@@V12@@std@@YA?AV?$_Vb_iterator@U?$_Wrap_alloc@V?$allocator@I@std@@@std@@@0@V10@00U?$integral_constant@_N$00@0@@Z 100337f8 f   V8EngineProxy.obj
 0001:00032820       __unwindfunclet$??$_Copy_impl@V?$_Vb_iterator@U?$_Wrap_alloc@V?$allocator@I@std@@@std@@@std@@V12@@std@@YA?AV?$_Vb_iterator@U?$_Wrap_alloc@V?$allocator@I@std@@@std@@@0@V10@00U_Nonscalar_ptr_iterator_tag@0@@Z$0 10033820 f   V8EngineProxy.obj
 0001:00032828       __unwindfunclet$??$_Copy_impl@V?$_Vb_iterator@U?$_Wrap_alloc@V?$allocator@I@std@@@std@@@std@@V12@@std@@YA?AV?$_Vb_iterator@U?$_Wrap_alloc@V?$allocator@I@std@@@std@@@0@V10@00U_Nonscalar_ptr_iterator_tag@0@@Z$1 10033828 f   V8EngineProxy.obj
 0001:00032830       __unwindfunclet$??$_Copy_impl@V?$_Vb_iterator@U?$_Wrap_alloc@V?$allocator@I@std@@@std@@@std@@V12@@std@@YA?AV?$_Vb_iterator@U?$_Wrap_alloc@V?$allocator@I@std@@@std@@@0@V10@00U_Nonscalar_ptr_iterator_tag@0@@Z$2 10033830 f   V8EngineProxy.obj
 0001:00032838       __unwindfunclet$??$_Copy_impl@V?$_Vb_iterator@U?$_Wrap_alloc@V?$allocator@I@std@@@std@@@std@@V12@@std@@YA?AV?$_Vb_iterator@U?$_Wrap_alloc@V?$allocator@I@std@@@std@@@0@V10@00U_Nonscalar_ptr_iterator_tag@0@@Z$3 10033838 f   V8EngineProxy.obj
 0001:00032843       __unwindfunclet$??$_Copy_impl@V?$_Vb_iterator@U?$_Wrap_alloc@V?$allocator@I@std@@@std@@@std@@V12@@std@@YA?AV?$_Vb_iterator@U?$_Wrap_alloc@V?$allocator@I@std@@@std@@@0@V10@00U_Nonscalar_ptr_iterator_tag@0@@Z$4 10033843 f   V8EngineProxy.obj
 0001:0003284e       __unwindfunclet$??$_Copy_impl@V?$_Vb_iterator@U?$_Wrap_alloc@V?$allocator@I@std@@@std@@@std@@V12@@std@@YA?AV?$_Vb_iterator@U?$_Wrap_alloc@V?$allocator@I@std@@@std@@@0@V10@00U_Nonscalar_ptr_iterator_tag@0@@Z$5 1003384e f   V8EngineProxy.obj
 0001:0003286d       __ehhandler$??$_Copy_impl@V?$_Vb_iterator@U?$_Wrap_alloc@V?$allocator@I@std@@@std@@@std@@V12@@std@@YA?AV?$_Vb_iterator@U?$_Wrap_alloc@V?$allocator@I@std@@@std@@@0@V10@00U_Nonscalar_ptr_iterator_tag@0@@Z 1003386d f   V8EngineProxy.obj
 0001:00032890       __unwindfunclet$??$_Copy_impl@V?$_Vb_iterator@U?$_Wrap_alloc@V?$allocator@I@std@@@std@@@std@@V12@@std@@YA?AV?$_Vb_iterator@U?$_Wrap_alloc@V?$allocator@I@std@@@std@@@0@V10@00Urandom_access_iterator_tag@0@1@Z$0 10033890 f   V8EngineProxy.obj
 0001:00032898       __unwindfunclet$??$_Copy_impl@V?$_Vb_iterator@U?$_Wrap_alloc@V?$allocator@I@std@@@std@@@std@@V12@@std@@YA?AV?$_Vb_iterator@U?$_Wrap_alloc@V?$allocator@I@std@@@std@@@0@V10@00Urandom_access_iterator_tag@0@1@Z$1 10033898 f   V8EngineProxy.obj
 0001:000328a0       __unwindfunclet$??$_Copy_impl@V?$_Vb_iterator@U?$_Wrap_alloc@V?$allocator@I@std@@@std@@@std@@V12@@std@@YA?AV?$_Vb_iterator@U?$_Wrap_alloc@V?$allocator@I@std@@@std@@@0@V10@00Urandom_access_iterator_tag@0@1@Z$2 100338a0 f   V8EngineProxy.obj
 0001:000328a8       __unwindfunclet$??$_Copy_impl@V?$_Vb_iterator@U?$_Wrap_alloc@V?$allocator@I@std@@@std@@@std@@V12@@std@@YA?AV?$_Vb_iterator@U?$_Wrap_alloc@V?$allocator@I@std@@@std@@@0@V10@00Urandom_access_iterator_tag@0@1@Z$3 100338a8 f   V8EngineProxy.obj
 0001:000328b0       __unwindfunclet$??$_Copy_impl@V?$_Vb_iterator@U?$_Wrap_alloc@V?$allocator@I@std@@@std@@@std@@V12@@std@@YA?AV?$_Vb_iterator@U?$_Wrap_alloc@V?$allocator@I@std@@@std@@@0@V10@00Urandom_access_iterator_tag@0@1@Z$4 100338b0 f   V8EngineProxy.obj
 0001:000328bb       __unwindfunclet$??$_Copy_impl@V?$_Vb_iterator@U?$_Wrap_alloc@V?$allocator@I@std@@@std@@@std@@V12@@std@@YA?AV?$_Vb_iterator@U?$_Wrap_alloc@V?$allocator@I@std@@@std@@@0@V10@00Urandom_access_iterator_tag@0@1@Z$5 100338bb f   V8EngineProxy.obj
 0001:000328c6       __unwindfunclet$??$_Copy_impl@V?$_Vb_iterator@U?$_Wrap_alloc@V?$allocator@I@std@@@std@@@std@@V12@@std@@YA?AV?$_Vb_iterator@U?$_Wrap_alloc@V?$allocator@I@std@@@std@@@0@V10@00Urandom_access_iterator_tag@0@1@Z$6 100338c6 f   V8EngineProxy.obj
 0001:000328d1       __unwindfunclet$??$_Copy_impl@V?$_Vb_iterator@U?$_Wrap_alloc@V?$allocator@I@std@@@std@@@std@@V12@@std@@YA?AV?$_Vb_iterator@U?$_Wrap_alloc@V?$allocator@I@std@@@std@@@0@V10@00Urandom_access_iterator_tag@0@1@Z$7 100338d1 f   V8EngineProxy.obj
 0001:000328dc       __unwindfunclet$??$_Copy_impl@V?$_Vb_iterator@U?$_Wrap_alloc@V?$allocator@I@std@@@std@@@std@@V12@@std@@YA?AV?$_Vb_iterator@U?$_Wrap_alloc@V?$allocator@I@std@@@std@@@0@V10@00Urandom_access_iterator_tag@0@1@Z$9 100338dc f   V8EngineProxy.obj
 0001:000328fb       __ehhandler$??$_Copy_impl@V?$_Vb_iterator@U?$_Wrap_alloc@V?$allocator@I@std@@@std@@@std@@V12@@std@@YA?AV?$_Vb_iterator@U?$_Wrap_alloc@V?$allocator@I@std@@@std@@@0@V10@00Urandom_access_iterator_tag@0@1@Z 100338fb f   V8EngineProxy.obj
 0001:00032920       __unwindfunclet$??$_Debug_range2@V?$_Vb_iterator@U?$_Wrap_alloc@V?$allocator@I@std@@@std@@@std@@@std@@YAXV?$_Vb_iterator@U?$_Wrap_alloc@V?$allocator@I@std@@@std@@@0@0PB_WIUrandom_access_iterator_tag@0@@Z$0 10033920 f   V8EngineProxy.obj
 0001:00032928       __unwindfunclet$??$_Debug_range2@V?$_Vb_iterator@U?$_Wrap_alloc@V?$allocator@I@std@@@std@@@std@@@std@@YAXV?$_Vb_iterator@U?$_Wrap_alloc@V?$allocator@I@std@@@std@@@0@0PB_WIUrandom_access_iterator_tag@0@@Z$1 10033928 f   V8EngineProxy.obj
 0001:00032930       __ehhandler$??$_Debug_range2@V?$_Vb_iterator@U?$_Wrap_alloc@V?$allocator@I@std@@@std@@@std@@@std@@YAXV?$_Vb_iterator@U?$_Wrap_alloc@V?$allocator@I@std@@@std@@@0@0PB_WIUrandom_access_iterator_tag@0@@Z 10033930 f   V8EngineProxy.obj
 0001:00032950       __unwindfunclet$??$_Debug_range@V?$_Vb_iterator@U?$_Wrap_alloc@V?$allocator@I@std@@@std@@@std@@@std@@YAXV?$_Vb_iterator@U?$_Wrap_alloc@V?$allocator@I@std@@@std@@@0@0PB_WI@Z$0 10033950 f   V8EngineProxy.obj
 0001:00032958       __unwindfunclet$??$_Debug_range@V?$_Vb_iterator@U?$_Wrap_alloc@V?$allocator@I@std@@@std@@@std@@@std@@YAXV?$_Vb_iterator@U?$_Wrap_alloc@V?$allocator@I@std@@@std@@@0@0PB_WI@Z$1 10033958 f   V8EngineProxy.obj
 0001:00032960       __unwindfunclet$??$_Debug_range@V?$_Vb_iterator@U?$_Wrap_alloc@V?$allocator@I@std@@@std@@@std@@@std@@YAXV?$_Vb_iterator@U?$_Wrap_alloc@V?$allocator@I@std@@@std@@@0@0PB_WI@Z$2 10033960 f   V8EngineProxy.obj
 0001:0003296b       __unwindfunclet$??$_Debug_range@V?$_Vb_iterator@U?$_Wrap_alloc@V?$allocator@I@std@@@std@@@std@@@std@@YAXV?$_Vb_iterator@U?$_Wrap_alloc@V?$allocator@I@std@@@std@@@0@0PB_WI@Z$3 1003396b f   V8EngineProxy.obj
 0001:00032976       __ehhandler$??$_Debug_range@V?$_Vb_iterator@U?$_Wrap_alloc@V?$allocator@I@std@@@std@@@std@@@std@@YAXV?$_Vb_iterator@U?$_Wrap_alloc@V?$allocator@I@std@@@std@@@0@0PB_WI@Z 10033976 f   V8EngineProxy.obj
 0001:000329a0       __unwindfunclet$??$_Fill@V?$_Vb_iterator@U?$_Wrap_alloc@V?$allocator@I@std@@@std@@@std@@_N@std@@YAXV?$_Vb_iterator@U?$_Wrap_alloc@V?$allocator@I@std@@@std@@@0@0AB_N@Z$0 100339a0 f   V8EngineProxy.obj
 0001:000329a8       __unwindfunclet$??$_Fill@V?$_Vb_iterator@U?$_Wrap_alloc@V?$allocator@I@std@@@std@@@std@@_N@std@@YAXV?$_Vb_iterator@U?$_Wrap_alloc@V?$allocator@I@std@@@std@@@0@0AB_N@Z$1 100339a8 f   V8EngineProxy.obj
 0001:000329b0       __unwindfunclet$??$_Fill@V?$_Vb_iterator@U?$_Wrap_alloc@V?$allocator@I@std@@@std@@@std@@_N@std@@YAXV?$_Vb_iterator@U?$_Wrap_alloc@V?$allocator@I@std@@@std@@@0@0AB_N@Z$2 100339b0 f   V8EngineProxy.obj
 0001:000329bb       __ehhandler$??$_Fill@V?$_Vb_iterator@U?$_Wrap_alloc@V?$allocator@I@std@@@std@@@std@@_N@std@@YAXV?$_Vb_iterator@U?$_Wrap_alloc@V?$allocator@I@std@@@std@@@0@0AB_N@Z 100339bb f   V8EngineProxy.obj
 0001:000329e0       __unwindfunclet$??$_Is_checked@V?$_Vb_iterator@U?$_Wrap_alloc@V?$allocator@I@std@@@std@@@std@@@std@@YA?AU?$integral_constant@_N$00@0@V?$_Vb_iterator@U?$_Wrap_alloc@V?$allocator@I@std@@@std@@@0@@Z$0 100339e0 f   V8EngineProxy.obj
 0001:000329e8       __ehhandler$??$_Is_checked@V?$_Vb_iterator@U?$_Wrap_alloc@V?$allocator@I@std@@@std@@@std@@@std@@YA?AU?$integral_constant@_N$00@0@V?$_Vb_iterator@U?$_Wrap_alloc@V?$allocator@I@std@@@std@@@0@@Z 100339e8 f   V8EngineProxy.obj
 0001:00032a10       __unwindfunclet$??$_Unchecked@V?$_Vb_iterator@U?$_Wrap_alloc@V?$allocator@I@std@@@std@@@std@@@std@@YA?AV?$_Vb_iterator@U?$_Wrap_alloc@V?$allocator@I@std@@@std@@@0@V10@@Z$0 10033a10 f   V8EngineProxy.obj
 0001:00032a18       __unwindfunclet$??$_Unchecked@V?$_Vb_iterator@U?$_Wrap_alloc@V?$allocator@I@std@@@std@@@std@@@std@@YA?AV?$_Vb_iterator@U?$_Wrap_alloc@V?$allocator@I@std@@@std@@@0@V10@@Z$1 10033a18 f   V8EngineProxy.obj
 0001:00032a37       __ehhandler$??$_Unchecked@V?$_Vb_iterator@U?$_Wrap_alloc@V?$allocator@I@std@@@std@@@std@@@std@@YA?AV?$_Vb_iterator@U?$_Wrap_alloc@V?$allocator@I@std@@@std@@@0@V10@@Z 10033a37 f   V8EngineProxy.obj
 0001:00032a60       __ehhandler$??$_Uninit_fill_n@PAU_StringItem@@IU1@V?$allocator@U_StringItem@@@std@@U1@@std@@YAXPAU_StringItem@@IPBU1@AAU?$_Wrap_alloc@V?$allocator@U_StringItem@@@std@@@0@0U_Nonscalar_ptr_iterator_tag@0@@Z 10033a60 f   V8EngineProxy.obj
 0001:00032a80       __ehhandler$??$_Uninit_move@PAU_StringItem@@PAU1@V?$allocator@U_StringItem@@@std@@U1@@std@@YAPAU_StringItem@@PAU1@00AAU?$_Wrap_alloc@V?$allocator@U_StringItem@@@std@@@0@0U_Nonscalar_ptr_iterator_tag@0@@Z 10033a80 f   V8EngineProxy.obj
 0001:00032aa0       __unwindfunclet$??$construct@HAAH@?$allocator@H@std@@QAEXPAHAAH@Z$0 10033aa0 f   V8EngineProxy.obj
 0001:00032ab4       __ehhandler$??$construct@HAAH@?$allocator@H@std@@QAEXPAHAAH@Z 10033ab4 f   V8EngineProxy.obj
 0001:00032ae0       __unwindfunclet$??$construct@PAUHandleProxy@@AAPAU1@@?$allocator@PAUHandleProxy@@@std@@QAEXPAPAUHandleProxy@@AAPAU2@@Z$0 10033ae0 f   V8EngineProxy.obj
 0001:00032af4       __ehhandler$??$construct@PAUHandleProxy@@AAPAU1@@?$allocator@PAUHandleProxy@@@std@@QAEXPAPAUHandleProxy@@AAPAU2@@Z 10033af4 f   V8EngineProxy.obj
 0001:00032b20       __unwindfunclet$??$construct@U_Container_proxy@std@@U12@@?$allocator@U_Container_proxy@std@@@std@@QAEXPAU_Container_proxy@1@$$QAU21@@Z$0 10033b20 f   V8EngineProxy.obj
 0001:00032b34       __ehhandler$??$construct@U_Container_proxy@std@@U12@@?$allocator@U_Container_proxy@std@@@std@@QAEXPAU_Container_proxy@1@$$QAU21@@Z 10033b34 f   V8EngineProxy.obj
 0001:00032b60       __unwindfunclet$??$construct@U_StringItem@@AAU1@@?$allocator@U_StringItem@@@std@@QAEXPAU_StringItem@@AAU2@@Z$0 10033b60 f   V8EngineProxy.obj
 0001:00032b74       __ehhandler$??$construct@U_StringItem@@AAU1@@?$allocator@U_StringItem@@@std@@QAEXPAU_StringItem@@AAU2@@Z 10033b74 f   V8EngineProxy.obj
 0001:00032ba0       __unwindfunclet$??$construct@U_StringItem@@U1@@?$allocator@U_StringItem@@@std@@QAEXPAU_StringItem@@$$QAU2@@Z$0 10033ba0 f   V8EngineProxy.obj
 0001:00032bb4       __ehhandler$??$construct@U_StringItem@@U1@@?$allocator@U_StringItem@@@std@@QAEXPAU_StringItem@@$$QAU2@@Z 10033bb4 f   V8EngineProxy.obj
 0001:00032be0       __unwindfunclet$??$copy@V?$_Vb_iterator@U?$_Wrap_alloc@V?$allocator@I@std@@@std@@@std@@V12@@std@@YA?AV?$_Vb_iterator@U?$_Wrap_alloc@V?$allocator@I@std@@@std@@@0@V10@00@Z$0 10033be0 f   V8EngineProxy.obj
 0001:00032be8       __unwindfunclet$??$copy@V?$_Vb_iterator@U?$_Wrap_alloc@V?$allocator@I@std@@@std@@@std@@V12@@std@@YA?AV?$_Vb_iterator@U?$_Wrap_alloc@V?$allocator@I@std@@@std@@@0@V10@00@Z$1 10033be8 f   V8EngineProxy.obj
 0001:00032bf0       __unwindfunclet$??$copy@V?$_Vb_iterator@U?$_Wrap_alloc@V?$allocator@I@std@@@std@@@std@@V12@@std@@YA?AV?$_Vb_iterator@U?$_Wrap_alloc@V?$allocator@I@std@@@std@@@0@V10@00@Z$2 10033bf0 f   V8EngineProxy.obj
 0001:00032bf8       __unwindfunclet$??$copy@V?$_Vb_iterator@U?$_Wrap_alloc@V?$allocator@I@std@@@std@@@std@@V12@@std@@YA?AV?$_Vb_iterator@U?$_Wrap_alloc@V?$allocator@I@std@@@std@@@0@V10@00@Z$3 10033bf8 f   V8EngineProxy.obj
 0001:00032c17       __unwindfunclet$??$copy@V?$_Vb_iterator@U?$_Wrap_alloc@V?$allocator@I@std@@@std@@@std@@V12@@std@@YA?AV?$_Vb_iterator@U?$_Wrap_alloc@V?$allocator@I@std@@@std@@@0@V10@00@Z$4 10033c17 f   V8EngineProxy.obj
 0001:00032c22       __unwindfunclet$??$copy@V?$_Vb_iterator@U?$_Wrap_alloc@V?$allocator@I@std@@@std@@@std@@V12@@std@@YA?AV?$_Vb_iterator@U?$_Wrap_alloc@V?$allocator@I@std@@@std@@@0@V10@00@Z$5 10033c22 f   V8EngineProxy.obj
 0001:00032c2d       __unwindfunclet$??$copy@V?$_Vb_iterator@U?$_Wrap_alloc@V?$allocator@I@std@@@std@@@std@@V12@@std@@YA?AV?$_Vb_iterator@U?$_Wrap_alloc@V?$allocator@I@std@@@std@@@0@V10@00@Z$6 10033c2d f   V8EngineProxy.obj
 0001:00032c38       __unwindfunclet$??$copy@V?$_Vb_iterator@U?$_Wrap_alloc@V?$allocator@I@std@@@std@@@std@@V12@@std@@YA?AV?$_Vb_iterator@U?$_Wrap_alloc@V?$allocator@I@std@@@std@@@0@V10@00@Z$7 10033c38 f   V8EngineProxy.obj
 0001:00032c43       __unwindfunclet$??$copy@V?$_Vb_iterator@U?$_Wrap_alloc@V?$allocator@I@std@@@std@@@std@@V12@@std@@YA?AV?$_Vb_iterator@U?$_Wrap_alloc@V?$allocator@I@std@@@std@@@0@V10@00@Z$8 10033c43 f   V8EngineProxy.obj
 0001:00032c4e       __unwindfunclet$??$copy@V?$_Vb_iterator@U?$_Wrap_alloc@V?$allocator@I@std@@@std@@@std@@V12@@std@@YA?AV?$_Vb_iterator@U?$_Wrap_alloc@V?$allocator@I@std@@@std@@@0@V10@00@Z$9 10033c4e f   V8EngineProxy.obj
 0001:00032c59       __unwindfunclet$??$copy@V?$_Vb_iterator@U?$_Wrap_alloc@V?$allocator@I@std@@@std@@@std@@V12@@std@@YA?AV?$_Vb_iterator@U?$_Wrap_alloc@V?$allocator@I@std@@@std@@@0@V10@00@Z$10 10033c59 f   V8EngineProxy.obj
 0001:00032c64       __unwindfunclet$??$copy@V?$_Vb_iterator@U?$_Wrap_alloc@V?$allocator@I@std@@@std@@@std@@V12@@std@@YA?AV?$_Vb_iterator@U?$_Wrap_alloc@V?$allocator@I@std@@@std@@@0@V10@00@Z$11 10033c64 f   V8EngineProxy.obj
 0001:00032c6f       __ehhandler$??$copy@V?$_Vb_iterator@U?$_Wrap_alloc@V?$allocator@I@std@@@std@@@std@@V12@@std@@YA?AV?$_Vb_iterator@U?$_Wrap_alloc@V?$allocator@I@std@@@std@@@0@V10@00@Z 10033c6f f   V8EngineProxy.obj
 0001:00032c90       __unwindfunclet$??$copy_backward@V?$_Vb_iterator@U?$_Wrap_alloc@V?$allocator@I@std@@@std@@@std@@V12@@std@@YA?AV?$_Vb_iterator@U?$_Wrap_alloc@V?$allocator@I@std@@@std@@@0@V10@00@Z$0 10033c90 f   V8EngineProxy.obj
 0001:00032c98       __unwindfunclet$??$copy_backward@V?$_Vb_iterator@U?$_Wrap_alloc@V?$allocator@I@std@@@std@@@std@@V12@@std@@YA?AV?$_Vb_iterator@U?$_Wrap_alloc@V?$allocator@I@std@@@std@@@0@V10@00@Z$1 10033c98 f   V8EngineProxy.obj
 0001:00032ca0       __unwindfunclet$??$copy_backward@V?$_Vb_iterator@U?$_Wrap_alloc@V?$allocator@I@std@@@std@@@std@@V12@@std@@YA?AV?$_Vb_iterator@U?$_Wrap_alloc@V?$allocator@I@std@@@std@@@0@V10@00@Z$2 10033ca0 f   V8EngineProxy.obj
 0001:00032ca8       __unwindfunclet$??$copy_backward@V?$_Vb_iterator@U?$_Wrap_alloc@V?$allocator@I@std@@@std@@@std@@V12@@std@@YA?AV?$_Vb_iterator@U?$_Wrap_alloc@V?$allocator@I@std@@@std@@@0@V10@00@Z$3 10033ca8 f   V8EngineProxy.obj
 0001:00032cb3       __unwindfunclet$??$copy_backward@V?$_Vb_iterator@U?$_Wrap_alloc@V?$allocator@I@std@@@std@@@std@@V12@@std@@YA?AV?$_Vb_iterator@U?$_Wrap_alloc@V?$allocator@I@std@@@std@@@0@V10@00@Z$4 10033cb3 f   V8EngineProxy.obj
 0001:00032cbe       __unwindfunclet$??$copy_backward@V?$_Vb_iterator@U?$_Wrap_alloc@V?$allocator@I@std@@@std@@@std@@V12@@std@@YA?AV?$_Vb_iterator@U?$_Wrap_alloc@V?$allocator@I@std@@@std@@@0@V10@00@Z$5 10033cbe f   V8EngineProxy.obj
 0001:00032cc9       __unwindfunclet$??$copy_backward@V?$_Vb_iterator@U?$_Wrap_alloc@V?$allocator@I@std@@@std@@@std@@V12@@std@@YA?AV?$_Vb_iterator@U?$_Wrap_alloc@V?$allocator@I@std@@@std@@@0@V10@00@Z$6 10033cc9 f   V8EngineProxy.obj
 0001:00032cd4       __unwindfunclet$??$copy_backward@V?$_Vb_iterator@U?$_Wrap_alloc@V?$allocator@I@std@@@std@@@std@@V12@@std@@YA?AV?$_Vb_iterator@U?$_Wrap_alloc@V?$allocator@I@std@@@std@@@0@V10@00@Z$7 10033cd4 f   V8EngineProxy.obj
 0001:00032cdf       __unwindfunclet$??$copy_backward@V?$_Vb_iterator@U?$_Wrap_alloc@V?$allocator@I@std@@@std@@@std@@V12@@std@@YA?AV?$_Vb_iterator@U?$_Wrap_alloc@V?$allocator@I@std@@@std@@@0@V10@00@Z$8 10033cdf f   V8EngineProxy.obj
 0001:00032cea       __unwindfunclet$??$copy_backward@V?$_Vb_iterator@U?$_Wrap_alloc@V?$allocator@I@std@@@std@@@std@@V12@@std@@YA?AV?$_Vb_iterator@U?$_Wrap_alloc@V?$allocator@I@std@@@std@@@0@V10@00@Z$9 10033cea f   V8EngineProxy.obj
 0001:00032cf5       __unwindfunclet$??$copy_backward@V?$_Vb_iterator@U?$_Wrap_alloc@V?$allocator@I@std@@@std@@@std@@V12@@std@@YA?AV?$_Vb_iterator@U?$_Wrap_alloc@V?$allocator@I@std@@@std@@@0@V10@00@Z$10 10033cf5 f   V8EngineProxy.obj
 0001:00032d00       __unwindfunclet$??$copy_backward@V?$_Vb_iterator@U?$_Wrap_alloc@V?$allocator@I@std@@@std@@@std@@V12@@std@@YA?AV?$_Vb_iterator@U?$_Wrap_alloc@V?$allocator@I@std@@@std@@@0@V10@00@Z$11 10033d00 f   V8EngineProxy.obj
 0001:00032d1f       __ehhandler$??$copy_backward@V?$_Vb_iterator@U?$_Wrap_alloc@V?$allocator@I@std@@@std@@@std@@V12@@std@@YA?AV?$_Vb_iterator@U?$_Wrap_alloc@V?$allocator@I@std@@@std@@@0@V10@00@Z 10033d1f f   V8EngineProxy.obj
 0001:00032d40       __unwindfunclet$??$fill@V?$_Vb_iterator@U?$_Wrap_alloc@V?$allocator@I@std@@@std@@@std@@_N@std@@YAXV?$_Vb_iterator@U?$_Wrap_alloc@V?$allocator@I@std@@@std@@@0@0AB_N@Z$0 10033d40 f   V8EngineProxy.obj
 0001:00032d48       __unwindfunclet$??$fill@V?$_Vb_iterator@U?$_Wrap_alloc@V?$allocator@I@std@@@std@@@std@@_N@std@@YAXV?$_Vb_iterator@U?$_Wrap_alloc@V?$allocator@I@std@@@std@@@0@0AB_N@Z$1 10033d48 f   V8EngineProxy.obj
 0001:00032d50       __unwindfunclet$??$fill@V?$_Vb_iterator@U?$_Wrap_alloc@V?$allocator@I@std@@@std@@@std@@_N@std@@YAXV?$_Vb_iterator@U?$_Wrap_alloc@V?$allocator@I@std@@@std@@@0@0AB_N@Z$2 10033d50 f   V8EngineProxy.obj
 0001:00032d5b       __unwindfunclet$??$fill@V?$_Vb_iterator@U?$_Wrap_alloc@V?$allocator@I@std@@@std@@@std@@_N@std@@YAXV?$_Vb_iterator@U?$_Wrap_alloc@V?$allocator@I@std@@@std@@@0@0AB_N@Z$3 10033d5b f   V8EngineProxy.obj
 0001:00032d66       __unwindfunclet$??$fill@V?$_Vb_iterator@U?$_Wrap_alloc@V?$allocator@I@std@@@std@@@std@@_N@std@@YAXV?$_Vb_iterator@U?$_Wrap_alloc@V?$allocator@I@std@@@std@@@0@0AB_N@Z$4 10033d66 f   V8EngineProxy.obj
 0001:00032d71       __unwindfunclet$??$fill@V?$_Vb_iterator@U?$_Wrap_alloc@V?$allocator@I@std@@@std@@@std@@_N@std@@YAXV?$_Vb_iterator@U?$_Wrap_alloc@V?$allocator@I@std@@@std@@@0@0AB_N@Z$5 10033d71 f   V8EngineProxy.obj
 0001:00032d7c       __unwindfunclet$??$fill@V?$_Vb_iterator@U?$_Wrap_alloc@V?$allocator@I@std@@@std@@@std@@_N@std@@YAXV?$_Vb_iterator@U?$_Wrap_alloc@V?$allocator@I@std@@@std@@@0@0AB_N@Z$6 10033d7c f   V8EngineProxy.obj
 0001:00032d87       __unwindfunclet$??$fill@V?$_Vb_iterator@U?$_Wrap_alloc@V?$allocator@I@std@@@std@@@std@@_N@std@@YAXV?$_Vb_iterator@U?$_Wrap_alloc@V?$allocator@I@std@@@std@@@0@0AB_N@Z$7 10033d87 f   V8EngineProxy.obj
 0001:00032d92       __ehhandler$??$fill@V?$_Vb_iterator@U?$_Wrap_alloc@V?$allocator@I@std@@@std@@@std@@_N@std@@YAXV?$_Vb_iterator@U?$_Wrap_alloc@V?$allocator@I@std@@@std@@@0@0AB_N@Z 10033d92 f   V8EngineProxy.obj
 0001:00032db0       __unwindfunclet$??0?$CopyablePersistent@VContext@v8@@@@QAE@XZ$0 10033db0 f   V8EngineProxy.obj
 0001:00032db8       __ehhandler$??0?$CopyablePersistent@VContext@v8@@@@QAE@XZ 10033db8 f   V8EngineProxy.obj
 0001:00032de0       __unwindfunclet$??0?$CopyablePersistent@VObject@v8@@@@QAE@XZ$0 10033de0 f   V8EngineProxy.obj
 0001:00032de8       __ehhandler$??0?$CopyablePersistent@VObject@v8@@@@QAE@XZ 10033de8 f   V8EngineProxy.obj
 0001:00032e10       __unwindfunclet$??0?$_Iterator012@Urandom_access_iterator_tag@std@@HHPBHABHU_Iterator_base12@2@@std@@QAE@ABU01@@Z$0 10033e10 f   V8EngineProxy.obj
 0001:00032e18       __ehhandler$??0?$_Iterator012@Urandom_access_iterator_tag@std@@HHPBHABHU_Iterator_base12@2@@std@@QAE@ABU01@@Z 10033e18 f   V8EngineProxy.obj
 0001:00032e40       __unwindfunclet$??0?$_Iterator012@Urandom_access_iterator_tag@std@@HHPBHABHU_Iterator_base12@2@@std@@QAE@XZ$0 10033e40 f   V8EngineProxy.obj
 0001:00032e48       __ehhandler$??0?$_Iterator012@Urandom_access_iterator_tag@std@@HHPBHABHU_Iterator_base12@2@@std@@QAE@XZ 10033e48 f   V8EngineProxy.obj
 0001:00032e70       __unwindfunclet$??0?$_Iterator012@Urandom_access_iterator_tag@std@@IHPBIABIU_Iterator_base12@2@@std@@QAE@ABU01@@Z$0 10033e70 f   V8EngineProxy.obj
 0001:00032e78       __ehhandler$??0?$_Iterator012@Urandom_access_iterator_tag@std@@IHPBIABIU_Iterator_base12@2@@std@@QAE@ABU01@@Z 10033e78 f   V8EngineProxy.obj
 0001:00032ea0       __unwindfunclet$??0?$_Iterator012@Urandom_access_iterator_tag@std@@IHPBIABIU_Iterator_base12@2@@std@@QAE@XZ$0 10033ea0 f   V8EngineProxy.obj
 0001:00032ea8       __ehhandler$??0?$_Iterator012@Urandom_access_iterator_tag@std@@IHPBIABIU_Iterator_base12@2@@std@@QAE@XZ 10033ea8 f   V8EngineProxy.obj
 0001:00032ed0       __unwindfunclet$??0?$_Iterator012@Urandom_access_iterator_tag@std@@_NHPA_N_NU_Iterator_base12@2@@std@@QAE@ABU01@@Z$0 10033ed0 f   V8EngineProxy.obj
 0001:00032ed8       __ehhandler$??0?$_Iterator012@Urandom_access_iterator_tag@std@@_NHPA_N_NU_Iterator_base12@2@@std@@QAE@ABU01@@Z 10033ed8 f   V8EngineProxy.obj
 0001:00032f00       __unwindfunclet$??0?$_Iterator012@Urandom_access_iterator_tag@std@@_NHPA_N_NU_Iterator_base12@2@@std@@QAE@XZ$0 10033f00 f   V8EngineProxy.obj
 0001:00032f08       __ehhandler$??0?$_Iterator012@Urandom_access_iterator_tag@std@@_NHPA_N_NU_Iterator_base12@2@@std@@QAE@XZ 10033f08 f   V8EngineProxy.obj
 0001:00032f30       __unwindfunclet$??0?$_Vb_const_iterator@U?$_Wrap_alloc@V?$allocator@I@std@@@std@@@std@@QAE@ABV01@@Z$0 10033f30 f   V8EngineProxy.obj
 0001:00032f38       __ehhandler$??0?$_Vb_const_iterator@U?$_Wrap_alloc@V?$allocator@I@std@@@std@@@std@@QAE@ABV01@@Z 10033f38 f   V8EngineProxy.obj
 0001:00032f60       __unwindfunclet$??0?$_Vb_const_iterator@U?$_Wrap_alloc@V?$allocator@I@std@@@std@@@std@@QAE@PBIPBU_Container_base12@1@@Z$0 10033f60 f   V8EngineProxy.obj
 0001:00032f68       __ehhandler$??0?$_Vb_const_iterator@U?$_Wrap_alloc@V?$allocator@I@std@@@std@@@std@@QAE@PBIPBU_Container_base12@1@@Z 10033f68 f   V8EngineProxy.obj
 0001:00032f90       __unwindfunclet$??0?$_Vb_iter_base@U?$_Wrap_alloc@V?$allocator@I@std@@@std@@@std@@QAE@ABV01@@Z$0 10033f90 f   V8EngineProxy.obj
 0001:00032f98       __ehhandler$??0?$_Vb_iter_base@U?$_Wrap_alloc@V?$allocator@I@std@@@std@@@std@@QAE@ABV01@@Z 10033f98 f   V8EngineProxy.obj
 0001:00032fc0       __unwindfunclet$??0?$_Vb_iter_base@U?$_Wrap_alloc@V?$allocator@I@std@@@std@@@std@@QAE@PBIIPBU_Container_base12@1@@Z$0 10033fc0 f   V8EngineProxy.obj
 0001:00032fc8       __ehhandler$??0?$_Vb_iter_base@U?$_Wrap_alloc@V?$allocator@I@std@@@std@@@std@@QAE@PBIIPBU_Container_base12@1@@Z 10033fc8 f   V8EngineProxy.obj
 0001:00032ff0       __unwindfunclet$??0?$_Vb_iterator@U?$_Wrap_alloc@V?$allocator@I@std@@@std@@@std@@QAE@ABV01@@Z$0 10033ff0 f   V8EngineProxy.obj
 0001:00032ff8       __ehhandler$??0?$_Vb_iterator@U?$_Wrap_alloc@V?$allocator@I@std@@@std@@@std@@QAE@ABV01@@Z 10033ff8 f   V8EngineProxy.obj
 0001:00033020       __unwindfunclet$??0?$_Vb_iterator@U?$_Wrap_alloc@V?$allocator@I@std@@@std@@@std@@QAE@PAIPAU_Container_base12@1@@Z$0 10034020 f   V8EngineProxy.obj
 0001:00033028       __ehhandler$??0?$_Vb_iterator@U?$_Wrap_alloc@V?$allocator@I@std@@@std@@@std@@QAE@PAIPAU_Container_base12@1@@Z 10034028 f   V8EngineProxy.obj
 0001:00033050       __unwindfunclet$??0?$_Vb_reference@U?$_Wrap_alloc@V?$allocator@I@std@@@std@@@std@@QAE@ABV?$_Vb_iter_base@U?$_Wrap_alloc@V?$allocator@I@std@@@std@@@1@@Z$0 10034050 f   V8EngineProxy.obj
 0001:00033058       __ehhandler$??0?$_Vb_reference@U?$_Wrap_alloc@V?$allocator@I@std@@@std@@@std@@QAE@ABV?$_Vb_iter_base@U?$_Wrap_alloc@V?$allocator@I@std@@@std@@@1@@Z 10034058 f   V8EngineProxy.obj
 0001:00033080       __unwindfunclet$??0?$_Vb_val@V?$allocator@_N@std@@@std@@QAE@IAB_NABV?$allocator@_N@1@@Z$0 10034080 f   V8EngineProxy.obj
 0001:00033092       __unwindfunclet$??0?$_Vb_val@V?$allocator@_N@std@@@std@@QAE@IAB_NABV?$allocator@_N@1@@Z$1 10034092 f   V8EngineProxy.obj
 0001:0003309d       __ehhandler$??0?$_Vb_val@V?$allocator@_N@std@@@std@@QAE@IAB_NABV?$allocator@_N@1@@Z 1003409d f   V8EngineProxy.obj
 0001:000330c0       __unwindfunclet$??0?$_Vector_alloc@$0A@U?$_Vec_base_types@HV?$allocator@H@std@@@std@@@std@@QAE@ABV?$allocator@H@1@@Z$0 100340c0 f   V8EngineProxy.obj
 0001:000330c8       __ehhandler$??0?$_Vector_alloc@$0A@U?$_Vec_base_types@HV?$allocator@H@std@@@std@@@std@@QAE@ABV?$allocator@H@1@@Z 100340c8 f   V8EngineProxy.obj
 0001:000330f0       __unwindfunclet$??0?$_Vector_alloc@$0A@U?$_Vec_base_types@IV?$allocator@_N@std@@@std@@@std@@QAE@ABV?$allocator@_N@1@@Z$0 100340f0 f   V8EngineProxy.obj
 0001:000330f8       __ehhandler$??0?$_Vector_alloc@$0A@U?$_Vec_base_types@IV?$allocator@_N@std@@@std@@@std@@QAE@ABV?$allocator@_N@1@@Z 100340f8 f   V8EngineProxy.obj
 0001:00033120       __unwindfunclet$??0?$_Vector_alloc@$0A@U?$_Vec_base_types@PAUHandleProxy@@V?$allocator@PAUHandleProxy@@@std@@@std@@@std@@QAE@ABV?$allocator@PAUHandleProxy@@@1@@Z$0 10034120 f   V8EngineProxy.obj
 0001:00033128       __ehhandler$??0?$_Vector_alloc@$0A@U?$_Vec_base_types@PAUHandleProxy@@V?$allocator@PAUHandleProxy@@@std@@@std@@@std@@QAE@ABV?$allocator@PAUHandleProxy@@@1@@Z 10034128 f   V8EngineProxy.obj
 0001:00033150       __unwindfunclet$??0?$_Vector_alloc@$0A@U?$_Vec_base_types@U_StringItem@@V?$allocator@U_StringItem@@@std@@@std@@@std@@QAE@ABV?$allocator@U_StringItem@@@1@@Z$0 10034150 f   V8EngineProxy.obj
 0001:00033158       __ehhandler$??0?$_Vector_alloc@$0A@U?$_Vec_base_types@U_StringItem@@V?$allocator@U_StringItem@@@std@@@std@@@std@@QAE@ABV?$allocator@U_StringItem@@@1@@Z 10034158 f   V8EngineProxy.obj
 0001:00033180       __unwindfunclet$??0?$_Vector_const_iterator@V?$_Vector_val@U?$_Simple_types@H@std@@@std@@@std@@QAE@ABV01@@Z$0 10034180 f   V8EngineProxy.obj
 0001:00033188       __ehhandler$??0?$_Vector_const_iterator@V?$_Vector_val@U?$_Simple_types@H@std@@@std@@@std@@QAE@ABV01@@Z 10034188 f   V8EngineProxy.obj
 0001:000331b0       __unwindfunclet$??0?$_Vector_const_iterator@V?$_Vector_val@U?$_Simple_types@H@std@@@std@@@std@@QAE@PAHPBU_Container_base12@1@@Z$0 100341b0 f   V8EngineProxy.obj
 0001:000331b8       __ehhandler$??0?$_Vector_const_iterator@V?$_Vector_val@U?$_Simple_types@H@std@@@std@@@std@@QAE@PAHPBU_Container_base12@1@@Z 100341b8 f   V8EngineProxy.obj
 0001:000331e0       __unwindfunclet$??0?$_Vector_const_iterator@V?$_Vector_val@U?$_Simple_types@I@std@@@std@@@std@@QAE@ABV01@@Z$0 100341e0 f   V8EngineProxy.obj
 0001:000331e8       __ehhandler$??0?$_Vector_const_iterator@V?$_Vector_val@U?$_Simple_types@I@std@@@std@@@std@@QAE@ABV01@@Z 100341e8 f   V8EngineProxy.obj
 0001:00033210       __unwindfunclet$??0?$_Vector_const_iterator@V?$_Vector_val@U?$_Simple_types@I@std@@@std@@@std@@QAE@PAIPBU_Container_base12@1@@Z$0 10034210 f   V8EngineProxy.obj
 0001:00033218       __ehhandler$??0?$_Vector_const_iterator@V?$_Vector_val@U?$_Simple_types@I@std@@@std@@@std@@QAE@PAIPBU_Container_base12@1@@Z 10034218 f   V8EngineProxy.obj
 0001:00033240       __unwindfunclet$??0?$_Vector_iterator@V?$_Vector_val@U?$_Simple_types@H@std@@@std@@@std@@QAE@ABV01@@Z$0 10034240 f   V8EngineProxy.obj
 0001:00033248       __ehhandler$??0?$_Vector_iterator@V?$_Vector_val@U?$_Simple_types@H@std@@@std@@@std@@QAE@ABV01@@Z 10034248 f   V8EngineProxy.obj
 0001:00033270       __unwindfunclet$??0?$_Vector_iterator@V?$_Vector_val@U?$_Simple_types@H@std@@@std@@@std@@QAE@PAHPBU_Container_base12@1@@Z$0 10034270 f   V8EngineProxy.obj
 0001:00033278       __ehhandler$??0?$_Vector_iterator@V?$_Vector_val@U?$_Simple_types@H@std@@@std@@@std@@QAE@PAHPBU_Container_base12@1@@Z 10034278 f   V8EngineProxy.obj
 0001:000332a0       __unwindfunclet$??0?$_Vector_iterator@V?$_Vector_val@U?$_Simple_types@I@std@@@std@@@std@@QAE@ABV01@@Z$0 100342a0 f   V8EngineProxy.obj
 0001:000332a8       __ehhandler$??0?$_Vector_iterator@V?$_Vector_val@U?$_Simple_types@I@std@@@std@@@std@@QAE@ABV01@@Z 100342a8 f   V8EngineProxy.obj
 0001:000332d0       __unwindfunclet$??0?$_Vector_iterator@V?$_Vector_val@U?$_Simple_types@I@std@@@std@@@std@@QAE@PAIPBU_Container_base12@1@@Z$0 100342d0 f   V8EngineProxy.obj
 0001:000332d8       __ehhandler$??0?$_Vector_iterator@V?$_Vector_val@U?$_Simple_types@I@std@@@std@@@std@@QAE@PAIPBU_Container_base12@1@@Z 100342d8 f   V8EngineProxy.obj
 0001:00033300       __unwindfunclet$??0?$_Vector_val@U?$_Simple_types@H@std@@@std@@QAE@XZ$0 10034300 f   V8EngineProxy.obj
 0001:00033312       __ehhandler$??0?$_Vector_val@U?$_Simple_types@H@std@@@std@@QAE@XZ 10034312 f   V8EngineProxy.obj
 0001:00033330       __unwindfunclet$??0?$_Vector_val@U?$_Simple_types@I@std@@@std@@QAE@XZ$0 10034330 f   V8EngineProxy.obj
 0001:00033342       __ehhandler$??0?$_Vector_val@U?$_Simple_types@I@std@@@std@@QAE@XZ 10034342 f   V8EngineProxy.obj
 0001:00033360       __unwindfunclet$??0?$_Vector_val@U?$_Simple_types@PAUHandleProxy@@@std@@@std@@QAE@XZ$0 10034360 f   V8EngineProxy.obj
 0001:00033372       __ehhandler$??0?$_Vector_val@U?$_Simple_types@PAUHandleProxy@@@std@@@std@@QAE@XZ 10034372 f   V8EngineProxy.obj
 0001:00033390       __unwindfunclet$??0?$_Vector_val@U?$_Simple_types@U_StringItem@@@std@@@std@@QAE@XZ$0 10034390 f   V8EngineProxy.obj
 0001:000333a2       __ehhandler$??0?$_Vector_val@U?$_Simple_types@U_StringItem@@@std@@@std@@QAE@XZ 100343a2 f   V8EngineProxy.obj
 0001:000333c0       __unwindfunclet$??0?$vector@HV?$allocator@H@std@@@std@@QAE@IABH@Z$0 100343c0 f   V8EngineProxy.obj
 0001:000333c8       __ehhandler$??0?$vector@HV?$allocator@H@std@@@std@@QAE@IABH@Z 100343c8 f   V8EngineProxy.obj
 0001:000333f0       __unwindfunclet$??0?$vector@IV?$allocator@_N@std@@@std@@QAE@IABIABV?$allocator@_N@1@@Z$0 100343f0 f   V8EngineProxy.obj
 0001:000333f8       __ehhandler$??0?$vector@IV?$allocator@_N@std@@@std@@QAE@IABIABV?$allocator@_N@1@@Z 100343f8 f   V8EngineProxy.obj
 0001:00033420       __unwindfunclet$??0?$vector@PAUHandleProxy@@V?$allocator@PAUHandleProxy@@@std@@@std@@QAE@IABQAUHandleProxy@@@Z$0 10034420 f   V8EngineProxy.obj
 0001:00033428       __ehhandler$??0?$vector@PAUHandleProxy@@V?$allocator@PAUHandleProxy@@@std@@@std@@QAE@IABQAUHandleProxy@@@Z 10034428 f   V8EngineProxy.obj
 0001:00033450       __unwindfunclet$??0?$vector@U_StringItem@@V?$allocator@U_StringItem@@@std@@@std@@QAE@IABU_StringItem@@@Z$0 10034450 f   V8EngineProxy.obj
 0001:00033458       __ehhandler$??0?$vector@U_StringItem@@V?$allocator@U_StringItem@@@std@@@std@@QAE@IABU_StringItem@@@Z 10034458 f   V8EngineProxy.obj
 0001:00033480       __unwindfunclet$??0?$vector@_NV?$allocator@_N@std@@@std@@QAE@IAB_N@Z$0 10034480 f   V8EngineProxy.obj
 0001:00033488       __ehhandler$??0?$vector@_NV?$allocator@_N@std@@@std@@QAE@IAB_N@Z 10034488 f   V8EngineProxy.obj
 0001:000334b0       __unwindfunclet$??0V8EngineProxy@@QAE@_NP6AXXZH@Z$0 100344b0 f   V8EngineProxy.obj
 0001:000334bb       __unwindfunclet$??0V8EngineProxy@@QAE@_NP6AXXZH@Z$1 100344bb f   V8EngineProxy.obj
 0001:000334c6       __unwindfunclet$??0V8EngineProxy@@QAE@_NP6AXXZH@Z$2 100344c6 f   V8EngineProxy.obj
 0001:000334d1       __unwindfunclet$??0V8EngineProxy@@QAE@_NP6AXXZH@Z$3 100344d1 f   V8EngineProxy.obj
 0001:000334dc       __unwindfunclet$??0V8EngineProxy@@QAE@_NP6AXXZH@Z$4 100344dc f   V8EngineProxy.obj
 0001:000334e7       __unwindfunclet$??0V8EngineProxy@@QAE@_NP6AXXZH@Z$5 100344e7 f   V8EngineProxy.obj
 0001:000334f2       __unwindfunclet$??0V8EngineProxy@@QAE@_NP6AXXZH@Z$6 100344f2 f   V8EngineProxy.obj
 0001:00033504       __unwindfunclet$??0V8EngineProxy@@QAE@_NP6AXXZH@Z$7 10034504 f   V8EngineProxy.obj
 0001:00033516       __unwindfunclet$??0V8EngineProxy@@QAE@_NP6AXXZH@Z$8 10034516 f   V8EngineProxy.obj
 0001:00033528       __ehhandler$??0V8EngineProxy@@QAE@_NP6AXXZH@Z 10034528 f   V8EngineProxy.obj
 0001:00033550       __unwindfunclet$??0recursive_mutex@std@@QAE@XZ$0 10034550 f   V8EngineProxy.obj
 0001:00033558       __ehhandler$??0recursive_mutex@std@@QAE@XZ 10034558 f   V8EngineProxy.obj
 0001:00033580       __unwindfunclet$??1?$CopyablePersistent@VContext@v8@@@@QAE@XZ$0 10034580 f   V8EngineProxy.obj
 0001:00033588       __ehhandler$??1?$CopyablePersistent@VContext@v8@@@@QAE@XZ 10034588 f   V8EngineProxy.obj
 0001:000335b0       __unwindfunclet$??1?$CopyablePersistent@VObject@v8@@@@QAE@XZ$0 100345b0 f   V8EngineProxy.obj
 0001:000335b8       __ehhandler$??1?$CopyablePersistent@VObject@v8@@@@QAE@XZ 100345b8 f   V8EngineProxy.obj
 0001:000335e0       __unwindfunclet$??1?$_Iterator012@Urandom_access_iterator_tag@std@@HHPBHABHU_Iterator_base12@2@@std@@QAE@XZ$0 100345e0 f   V8EngineProxy.obj
 0001:000335e8       __ehhandler$??1?$_Iterator012@Urandom_access_iterator_tag@std@@HHPBHABHU_Iterator_base12@2@@std@@QAE@XZ 100345e8 f   V8EngineProxy.obj
 0001:00033610       __unwindfunclet$??1?$_Iterator012@Urandom_access_iterator_tag@std@@IHPBIABIU_Iterator_base12@2@@std@@QAE@XZ$0 10034610 f   V8EngineProxy.obj
 0001:00033618       __ehhandler$??1?$_Iterator012@Urandom_access_iterator_tag@std@@IHPBIABIU_Iterator_base12@2@@std@@QAE@XZ 10034618 f   V8EngineProxy.obj
 0001:00033640       __unwindfunclet$??1?$_Iterator012@Urandom_access_iterator_tag@std@@_NHPA_N_NU_Iterator_base12@2@@std@@QAE@XZ$0 10034640 f   V8EngineProxy.obj
 0001:00033648       __ehhandler$??1?$_Iterator012@Urandom_access_iterator_tag@std@@_NHPA_N_NU_Iterator_base12@2@@std@@QAE@XZ 10034648 f   V8EngineProxy.obj
 0001:00033670       __unwindfunclet$??1?$_Vb_const_iterator@U?$_Wrap_alloc@V?$allocator@I@std@@@std@@@std@@QAE@XZ$0 10034670 f   V8EngineProxy.obj
 0001:00033678       __ehhandler$??1?$_Vb_const_iterator@U?$_Wrap_alloc@V?$allocator@I@std@@@std@@@std@@QAE@XZ 10034678 f   V8EngineProxy.obj
 0001:000336a0       __unwindfunclet$??1?$_Vb_iter_base@U?$_Wrap_alloc@V?$allocator@I@std@@@std@@@std@@QAE@XZ$0 100346a0 f   V8EngineProxy.obj
 0001:000336a8       __ehhandler$??1?$_Vb_iter_base@U?$_Wrap_alloc@V?$allocator@I@std@@@std@@@std@@QAE@XZ 100346a8 f   V8EngineProxy.obj
 0001:000336d0       __unwindfunclet$??1?$_Vb_iterator@U?$_Wrap_alloc@V?$allocator@I@std@@@std@@@std@@QAE@XZ$0 100346d0 f   V8EngineProxy.obj
 0001:000336d8       __ehhandler$??1?$_Vb_iterator@U?$_Wrap_alloc@V?$allocator@I@std@@@std@@@std@@QAE@XZ 100346d8 f   V8EngineProxy.obj
 0001:00033700       __unwindfunclet$??1?$_Vb_reference@U?$_Wrap_alloc@V?$allocator@I@std@@@std@@@std@@QAE@XZ$0 10034700 f   V8EngineProxy.obj
 0001:00033708       __ehhandler$??1?$_Vb_reference@U?$_Wrap_alloc@V?$allocator@I@std@@@std@@@std@@QAE@XZ 10034708 f   V8EngineProxy.obj
 0001:00033730       __unwindfunclet$??1?$_Vb_val@V?$allocator@_N@std@@@std@@QAE@XZ$0 10034730 f   V8EngineProxy.obj
 0001:00033742       __unwindfunclet$??1?$_Vb_val@V?$allocator@_N@std@@@std@@QAE@XZ$1 10034742 f   V8EngineProxy.obj
 0001:0003374d       __ehhandler$??1?$_Vb_val@V?$allocator@_N@std@@@std@@QAE@XZ 1003474d f   V8EngineProxy.obj
 0001:00033770       __unwindfunclet$??1?$_Vector_alloc@$0A@U?$_Vec_base_types@HV?$allocator@H@std@@@std@@@std@@QAE@XZ$0 10034770 f   V8EngineProxy.obj
 0001:00033778       __ehhandler$??1?$_Vector_alloc@$0A@U?$_Vec_base_types@HV?$allocator@H@std@@@std@@@std@@QAE@XZ 10034778 f   V8EngineProxy.obj
 0001:000337a0       __unwindfunclet$??1?$_Vector_alloc@$0A@U?$_Vec_base_types@IV?$allocator@_N@std@@@std@@@std@@QAE@XZ$0 100347a0 f   V8EngineProxy.obj
 0001:000337a8       __ehhandler$??1?$_Vector_alloc@$0A@U?$_Vec_base_types@IV?$allocator@_N@std@@@std@@@std@@QAE@XZ 100347a8 f   V8EngineProxy.obj
 0001:000337d0       __unwindfunclet$??1?$_Vector_alloc@$0A@U?$_Vec_base_types@PAUHandleProxy@@V?$allocator@PAUHandleProxy@@@std@@@std@@@std@@QAE@XZ$0 100347d0 f   V8EngineProxy.obj
 0001:000337d8       __ehhandler$??1?$_Vector_alloc@$0A@U?$_Vec_base_types@PAUHandleProxy@@V?$allocator@PAUHandleProxy@@@std@@@std@@@std@@QAE@XZ 100347d8 f   V8EngineProxy.obj
 0001:00033800       __unwindfunclet$??1?$_Vector_alloc@$0A@U?$_Vec_base_types@U_StringItem@@V?$allocator@U_StringItem@@@std@@@std@@@std@@QAE@XZ$0 10034800 f   V8EngineProxy.obj
 0001:00033808       __ehhandler$??1?$_Vector_alloc@$0A@U?$_Vec_base_types@U_StringItem@@V?$allocator@U_StringItem@@@std@@@std@@@std@@QAE@XZ 10034808 f   V8EngineProxy.obj
 0001:00033830       __unwindfunclet$??1?$_Vector_const_iterator@V?$_Vector_val@U?$_Simple_types@H@std@@@std@@@std@@QAE@XZ$0 10034830 f   V8EngineProxy.obj
 0001:00033838       __ehhandler$??1?$_Vector_const_iterator@V?$_Vector_val@U?$_Simple_types@H@std@@@std@@@std@@QAE@XZ 10034838 f   V8EngineProxy.obj
 0001:00033860       __unwindfunclet$??1?$_Vector_const_iterator@V?$_Vector_val@U?$_Simple_types@I@std@@@std@@@std@@QAE@XZ$0 10034860 f   V8EngineProxy.obj
 0001:00033868       __ehhandler$??1?$_Vector_const_iterator@V?$_Vector_val@U?$_Simple_types@I@std@@@std@@@std@@QAE@XZ 10034868 f   V8EngineProxy.obj
 0001:00033890       __unwindfunclet$??1?$_Vector_iterator@V?$_Vector_val@U?$_Simple_types@H@std@@@std@@@std@@QAE@XZ$0 10034890 f   V8EngineProxy.obj
 0001:00033898       __ehhandler$??1?$_Vector_iterator@V?$_Vector_val@U?$_Simple_types@H@std@@@std@@@std@@QAE@XZ 10034898 f   V8EngineProxy.obj
 0001:000338c0       __unwindfunclet$??1?$_Vector_iterator@V?$_Vector_val@U?$_Simple_types@I@std@@@std@@@std@@QAE@XZ$0 100348c0 f   V8EngineProxy.obj
 0001:000338c8       __ehhandler$??1?$_Vector_iterator@V?$_Vector_val@U?$_Simple_types@I@std@@@std@@@std@@QAE@XZ 100348c8 f   V8EngineProxy.obj
 0001:000338f0       __unwindfunclet$??1?$_Vector_val@U?$_Simple_types@H@std@@@std@@QAE@XZ$0 100348f0 f   V8EngineProxy.obj
 0001:00033902       __ehhandler$??1?$_Vector_val@U?$_Simple_types@H@std@@@std@@QAE@XZ 10034902 f   V8EngineProxy.obj
 0001:00033920       __unwindfunclet$??1?$_Vector_val@U?$_Simple_types@I@std@@@std@@QAE@XZ$0 10034920 f   V8EngineProxy.obj
 0001:00033932       __ehhandler$??1?$_Vector_val@U?$_Simple_types@I@std@@@std@@QAE@XZ 10034932 f   V8EngineProxy.obj
 0001:00033950       __unwindfunclet$??1?$_Vector_val@U?$_Simple_types@PAUHandleProxy@@@std@@@std@@QAE@XZ$0 10034950 f   V8EngineProxy.obj
 0001:00033962       __ehhandler$??1?$_Vector_val@U?$_Simple_types@PAUHandleProxy@@@std@@@std@@QAE@XZ 10034962 f   V8EngineProxy.obj
 0001:00033980       __unwindfunclet$??1?$_Vector_val@U?$_Simple_types@U_StringItem@@@std@@@std@@QAE@XZ$0 10034980 f   V8EngineProxy.obj
 0001:00033992       __ehhandler$??1?$_Vector_val@U?$_Simple_types@U_StringItem@@@std@@@std@@QAE@XZ 10034992 f   V8EngineProxy.obj
 0001:000339b0       __unwindfunclet$??1?$vector@HV?$allocator@H@std@@@std@@QAE@XZ$0 100349b0 f   V8EngineProxy.obj
 0001:000339b8       __ehhandler$??1?$vector@HV?$allocator@H@std@@@std@@QAE@XZ 100349b8 f   V8EngineProxy.obj
 0001:000339e0       __unwindfunclet$??1?$vector@IV?$allocator@_N@std@@@std@@QAE@XZ$0 100349e0 f   V8EngineProxy.obj
 0001:000339e8       __ehhandler$??1?$vector@IV?$allocator@_N@std@@@std@@QAE@XZ 100349e8 f   V8EngineProxy.obj
 0001:00033a10       __unwindfunclet$??1?$vector@PAUHandleProxy@@V?$allocator@PAUHandleProxy@@@std@@@std@@QAE@XZ$0 10034a10 f   V8EngineProxy.obj
 0001:00033a18       __ehhandler$??1?$vector@PAUHandleProxy@@V?$allocator@PAUHandleProxy@@@std@@@std@@QAE@XZ 10034a18 f   V8EngineProxy.obj
 0001:00033a40       __unwindfunclet$??1?$vector@U_StringItem@@V?$allocator@U_StringItem@@@std@@@std@@QAE@XZ$0 10034a40 f   V8EngineProxy.obj
 0001:00033a48       __ehhandler$??1?$vector@U_StringItem@@V?$allocator@U_StringItem@@@std@@@std@@QAE@XZ 10034a48 f   V8EngineProxy.obj
 0001:00033a70       __unwindfunclet$??1?$vector@_NV?$allocator@_N@std@@@std@@QAE@XZ$0 10034a70 f   V8EngineProxy.obj
 0001:00033a78       __ehhandler$??1?$vector@_NV?$allocator@_N@std@@@std@@QAE@XZ 10034a78 f   V8EngineProxy.obj
 0001:00033aa0       __unwindfunclet$??1V8EngineProxy@@QAE@XZ$0 10034aa0 f   V8EngineProxy.obj
 0001:00033aab       __unwindfunclet$??1V8EngineProxy@@QAE@XZ$1 10034aab f   V8EngineProxy.obj
 0001:00033ab6       __unwindfunclet$??1V8EngineProxy@@QAE@XZ$2 10034ab6 f   V8EngineProxy.obj
 0001:00033ac1       __unwindfunclet$??1V8EngineProxy@@QAE@XZ$3 10034ac1 f   V8EngineProxy.obj
 0001:00033acc       __unwindfunclet$??1V8EngineProxy@@QAE@XZ$4 10034acc f   V8EngineProxy.obj
 0001:00033ad7       __unwindfunclet$??1V8EngineProxy@@QAE@XZ$5 10034ad7 f   V8EngineProxy.obj
 0001:00033ae2       __unwindfunclet$??1V8EngineProxy@@QAE@XZ$6 10034ae2 f   V8EngineProxy.obj
 0001:00033aea       __unwindfunclet$??1V8EngineProxy@@QAE@XZ$7 10034aea f   V8EngineProxy.obj
 0001:00033afc       __unwindfunclet$??1V8EngineProxy@@QAE@XZ$8 10034afc f   V8EngineProxy.obj
 0001:00033b0e       __unwindfunclet$??1V8EngineProxy@@QAE@XZ$9 10034b0e f   V8EngineProxy.obj
 0001:00033b20       __unwindfunclet$??1V8EngineProxy@@QAE@XZ$10 10034b20 f   V8EngineProxy.obj
 0001:00033b2b       __ehhandler$??1V8EngineProxy@@QAE@XZ 10034b2b f   V8EngineProxy.obj
 0001:00033b50       __unwindfunclet$??1_Iterator_base12@std@@QAE@XZ$0 10034b50 f   V8EngineProxy.obj
 0001:00033b62       __ehhandler$??1_Iterator_base12@std@@QAE@XZ 10034b62 f   V8EngineProxy.obj
 0001:00033b80       __unwindfunclet$??1recursive_mutex@std@@QAE@XZ$0 10034b80 f   V8EngineProxy.obj
 0001:00033b88       __ehhandler$??1recursive_mutex@std@@QAE@XZ 10034b88 f   V8EngineProxy.obj
 0001:00033bb0       __unwindfunclet$??4?$CopyablePersistent@VContext@v8@@@@QAEAAU0@ABV?$Handle@VContext@v8@@@v8@@@Z$0 10034bb0 f   V8EngineProxy.obj
 0001:00033bbb       __ehhandler$??4?$CopyablePersistent@VContext@v8@@@@QAEAAU0@ABV?$Handle@VContext@v8@@@v8@@@Z 10034bbb f   V8EngineProxy.obj
 0001:00033be0       __unwindfunclet$??4?$CopyablePersistent@VObject@v8@@@@QAEAAU0@ABV?$Handle@VObject@v8@@@v8@@@Z$0 10034be0 f   V8EngineProxy.obj
 0001:00033beb       __ehhandler$??4?$CopyablePersistent@VObject@v8@@@@QAEAAU0@ABV?$Handle@VObject@v8@@@v8@@@Z 10034beb f   V8EngineProxy.obj
 0001:00033c10       __unwindfunclet$??4_Iterator_base12@std@@QAEAAU01@ABU01@@Z$0 10034c10 f   V8EngineProxy.obj
 0001:00033c22       __ehhandler$??4_Iterator_base12@std@@QAEAAU01@ABU01@@Z 10034c22 f   V8EngineProxy.obj
 0001:00033c40       __unwindfunclet$??A?$vector@_NV?$allocator@_N@std@@@std@@QAE?AV?$_Vb_reference@U?$_Wrap_alloc@V?$allocator@I@std@@@std@@@1@I@Z$0 10034c40 f   V8EngineProxy.obj
 0001:00033c48       __unwindfunclet$??A?$vector@_NV?$allocator@_N@std@@@std@@QAE?AV?$_Vb_reference@U?$_Wrap_alloc@V?$allocator@I@std@@@std@@@1@I@Z$1 10034c48 f   V8EngineProxy.obj
 0001:00033c67       __ehhandler$??A?$vector@_NV?$allocator@_N@std@@@std@@QAE?AV?$_Vb_reference@U?$_Wrap_alloc@V?$allocator@I@std@@@std@@@1@I@Z 10034c67 f   V8EngineProxy.obj
 0001:00033c90       __unwindfunclet$??D?$_Vb_iterator@U?$_Wrap_alloc@V?$allocator@I@std@@@std@@@std@@QBE?AV?$_Vb_reference@U?$_Wrap_alloc@V?$allocator@I@std@@@std@@@1@XZ$0 10034c90 f   V8EngineProxy.obj
 0001:00033caf       __ehhandler$??D?$_Vb_iterator@U?$_Wrap_alloc@V?$allocator@I@std@@@std@@@std@@QBE?AV?$_Vb_reference@U?$_Wrap_alloc@V?$allocator@I@std@@@std@@@1@XZ 10034caf f   V8EngineProxy.obj
 0001:00033cd0       __unwindfunclet$??G?$_Vector_iterator@V?$_Vector_val@U?$_Simple_types@H@std@@@std@@@std@@QBE?AV01@H@Z$0 10034cd0 f   V8EngineProxy.obj
 0001:00033cd8       __unwindfunclet$??G?$_Vector_iterator@V?$_Vector_val@U?$_Simple_types@H@std@@@std@@@std@@QBE?AV01@H@Z$1 10034cd8 f   V8EngineProxy.obj
 0001:00033cf7       __ehhandler$??G?$_Vector_iterator@V?$_Vector_val@U?$_Simple_types@H@std@@@std@@@std@@QBE?AV01@H@Z 10034cf7 f   V8EngineProxy.obj
 0001:00033d20       __unwindfunclet$??H?$_Vb_iterator@U?$_Wrap_alloc@V?$allocator@I@std@@@std@@@std@@QBE?AV01@H@Z$0 10034d20 f   V8EngineProxy.obj
 0001:00033d28       __unwindfunclet$??H?$_Vb_iterator@U?$_Wrap_alloc@V?$allocator@I@std@@@std@@@std@@QBE?AV01@H@Z$1 10034d28 f   V8EngineProxy.obj
 0001:00033d47       __ehhandler$??H?$_Vb_iterator@U?$_Wrap_alloc@V?$allocator@I@std@@@std@@@std@@QBE?AV01@H@Z 10034d47 f   V8EngineProxy.obj
 0001:00033d70       __unwindfunclet$??H?$_Vector_iterator@V?$_Vector_val@U?$_Simple_types@I@std@@@std@@@std@@QBE?AV01@H@Z$0 10034d70 f   V8EngineProxy.obj
 0001:00033d78       __unwindfunclet$??H?$_Vector_iterator@V?$_Vector_val@U?$_Simple_types@I@std@@@std@@@std@@QBE?AV01@H@Z$1 10034d78 f   V8EngineProxy.obj
 0001:00033d97       __ehhandler$??H?$_Vector_iterator@V?$_Vector_val@U?$_Simple_types@I@std@@@std@@@std@@QBE?AV01@H@Z 10034d97 f   V8EngineProxy.obj
 0001:00033dc0       __unwindfunclet$?Call@V8EngineProxy@@QAEPAUHandleProxy@@PAU2@PBG0GPAPAU2@@Z$0 10034dc0 f   V8EngineProxy.obj
 0001:00033dd2       __unwindfunclet$?Call@V8EngineProxy@@QAEPAUHandleProxy@@PAU2@PBG0GPAPAU2@@Z$1 10034dd2 f   V8EngineProxy.obj
 0001:00033de0       __ehhandler$?Call@V8EngineProxy@@QAEPAUHandleProxy@@PAU2@PBG0GPAPAU2@@Z 10034de0 f   V8EngineProxy.obj
 0001:00033e00       __unwindfunclet$?Compile@V8EngineProxy@@QAEPAUHandleProxy@@PBGPAG@Z$2 10034e00 f   V8EngineProxy.obj
 0001:00033e12       __unwindfunclet$?Compile@V8EngineProxy@@QAEPAUHandleProxy@@PBGPAG@Z$3 10034e12 f   V8EngineProxy.obj
 0001:00033e24       __ehhandler$?Compile@V8EngineProxy@@QAEPAUHandleProxy@@PBGPAG@Z 10034e24 f   V8EngineProxy.obj
 0001:00033e50       __unwindfunclet$?CreateFunctionTemplate@V8EngineProxy@@QAEPAVFunctionTemplateProxy@@PAGP6GPAUHandleProxy@@H_NPAU3@PAPAU3@I@Z@Z$0 10034e50 f   V8EngineProxy.obj
 0001:00033e5e       __ehhandler$?CreateFunctionTemplate@V8EngineProxy@@QAEPAVFunctionTemplateProxy@@PAGP6GPAUHandleProxy@@H_NPAU3@PAPAU3@I@Z@Z 10034e5e f   V8EngineProxy.obj
 0001:00033e80       __unwindfunclet$?CreateObjectTemplate@V8EngineProxy@@QAEPAVObjectTemplateProxy@@XZ$0 10034e80 f   V8EngineProxy.obj
 0001:00033e8e       __ehhandler$?CreateObjectTemplate@V8EngineProxy@@QAEPAVObjectTemplateProxy@@XZ 10034e8e f   V8EngineProxy.obj
 0001:00033eb0       __unwindfunclet$?DisposeHandleProxy@V8EngineProxy@@QAEXPAUHandleProxy@@@Z$0 10034eb0 f   V8EngineProxy.obj
 0001:00033eb8       __ehhandler$?DisposeHandleProxy@V8EngineProxy@@QAEXPAUHandleProxy@@@Z 10034eb8 f   V8EngineProxy.obj
 0001:00033ee0       __unwindfunclet$?Execute@V8EngineProxy@@QAEPAUHandleProxy@@PBGPAG@Z$2 10034ee0 f   V8EngineProxy.obj
 0001:00033ef2       __unwindfunclet$?Execute@V8EngineProxy@@QAEPAUHandleProxy@@PBGPAG@Z$3 10034ef2 f   V8EngineProxy.obj
 0001:00033f04       __ehhandler$?Execute@V8EngineProxy@@QAEPAUHandleProxy@@PBGPAG@Z 10034f04 f   V8EngineProxy.obj
 0001:00033f30       __unwindfunclet$?Execute@V8EngineProxy@@QAEPAUHandleProxy@@V?$Handle@VScript@v8@@@v8@@@Z$2 10034f30 f   V8EngineProxy.obj
 0001:00033f42       __unwindfunclet$?Execute@V8EngineProxy@@QAEPAUHandleProxy@@V?$Handle@VScript@v8@@@v8@@@Z$3 10034f42 f   V8EngineProxy.obj
 0001:00033f54       __ehhandler$?Execute@V8EngineProxy@@QAEPAUHandleProxy@@V?$Handle@VScript@v8@@@v8@@@Z 10034f54 f   V8EngineProxy.obj
 0001:00033f80       __unwindfunclet$?GetHandleProxy@V8EngineProxy@@QAEPAUHandleProxy@@V?$Handle@VValue@v8@@@v8@@@Z$0 10034f80 f   V8EngineProxy.obj
 0001:00033f88       __unwindfunclet$?GetHandleProxy@V8EngineProxy@@QAEPAUHandleProxy@@V?$Handle@VValue@v8@@@v8@@@Z$1 10034f88 f   V8EngineProxy.obj
 0001:00033f96       __ehhandler$?GetHandleProxy@V8EngineProxy@@QAEPAUHandleProxy@@V?$Handle@VValue@v8@@@v8@@@Z 10034f96 f   V8EngineProxy.obj
 0001:00033fc0       __unwindfunclet$?IsDisposed@V8EngineProxy@@SA_NH@Z$0 10034fc0 f   V8EngineProxy.obj
 0001:00033fcb       __ehhandler$?IsDisposed@V8EngineProxy@@SA_NH@Z 10034fcb f   V8EngineProxy.obj
 0001:00033ff0       __unwindfunclet$?_Adopt@_Iterator_base12@std@@QAEXPBU_Container_base12@2@@Z$0 10034ff0 f   V8EngineProxy.obj
 0001:00034002       __unwindfunclet$?_Adopt@_Iterator_base12@std@@QAEXPBU_Container_base12@2@@Z$1 10035002 f   V8EngineProxy.obj
 0001:00034014       __ehhandler$?_Adopt@_Iterator_base12@std@@QAEXPBU_Container_base12@2@@Z 10035014 f   V8EngineProxy.obj
 0001:00034040       __ehhandler$?_Construct_n@?$vector@HV?$allocator@H@std@@@std@@QAEXIPBH@Z 10035040 f   V8EngineProxy.obj
 0001:00034060       __ehhandler$?_Construct_n@?$vector@IV?$allocator@_N@std@@@std@@QAEXIPBI@Z 10035060 f   V8EngineProxy.obj
 0001:00034080       __ehhandler$?_Construct_n@?$vector@PAUHandleProxy@@V?$allocator@PAUHandleProxy@@@std@@@std@@QAEXIPBQAUHandleProxy@@@Z 10035080 f   V8EngineProxy.obj
 0001:000340a0       __ehhandler$?_Construct_n@?$vector@U_StringItem@@V?$allocator@U_StringItem@@@std@@@std@@QAEXIPBU_StringItem@@@Z 100350a0 f   V8EngineProxy.obj
 0001:000340c0       __unwindfunclet$?_Insert_n@?$vector@_NV?$allocator@_N@std@@@std@@QAE?AV?$_Vb_iterator@U?$_Wrap_alloc@V?$allocator@I@std@@@std@@@2@V?$_Vb_const_iterator@U?$_Wrap_alloc@V?$allocator@I@std@@@std@@@2@IAB_N@Z$0 100350c0 f   V8EngineProxy.obj
 0001:000340c8       __unwindfunclet$?_Insert_n@?$vector@_NV?$allocator@_N@std@@@std@@QAE?AV?$_Vb_iterator@U?$_Wrap_alloc@V?$allocator@I@std@@@std@@@2@V?$_Vb_const_iterator@U?$_Wrap_alloc@V?$allocator@I@std@@@std@@@2@IAB_N@Z$1 100350c8 f   V8EngineProxy.obj
 0001:000340d3       __unwindfunclet$?_Insert_n@?$vector@_NV?$allocator@_N@std@@@std@@QAE?AV?$_Vb_iterator@U?$_Wrap_alloc@V?$allocator@I@std@@@std@@@2@V?$_Vb_const_iterator@U?$_Wrap_alloc@V?$allocator@I@std@@@std@@@2@IAB_N@Z$2 100350d3 f   V8EngineProxy.obj
 0001:000340de       __unwindfunclet$?_Insert_n@?$vector@_NV?$allocator@_N@std@@@std@@QAE?AV?$_Vb_iterator@U?$_Wrap_alloc@V?$allocator@I@std@@@std@@@2@V?$_Vb_const_iterator@U?$_Wrap_alloc@V?$allocator@I@std@@@std@@@2@IAB_N@Z$3 100350de f   V8EngineProxy.obj
 0001:000340e9       __unwindfunclet$?_Insert_n@?$vector@_NV?$allocator@_N@std@@@std@@QAE?AV?$_Vb_iterator@U?$_Wrap_alloc@V?$allocator@I@std@@@std@@@2@V?$_Vb_const_iterator@U?$_Wrap_alloc@V?$allocator@I@std@@@std@@@2@IAB_N@Z$4 100350e9 f   V8EngineProxy.obj
 0001:000340f4       __unwindfunclet$?_Insert_n@?$vector@_NV?$allocator@_N@std@@@std@@QAE?AV?$_Vb_iterator@U?$_Wrap_alloc@V?$allocator@I@std@@@std@@@2@V?$_Vb_const_iterator@U?$_Wrap_alloc@V?$allocator@I@std@@@std@@@2@IAB_N@Z$5 100350f4 f   V8EngineProxy.obj
 0001:000340ff       __unwindfunclet$?_Insert_n@?$vector@_NV?$allocator@_N@std@@@std@@QAE?AV?$_Vb_iterator@U?$_Wrap_alloc@V?$allocator@I@std@@@std@@@2@V?$_Vb_const_iterator@U?$_Wrap_alloc@V?$allocator@I@std@@@std@@@2@IAB_N@Z$6 100350ff f   V8EngineProxy.obj
 0001:0003410a       __unwindfunclet$?_Insert_n@?$vector@_NV?$allocator@_N@std@@@std@@QAE?AV?$_Vb_iterator@U?$_Wrap_alloc@V?$allocator@I@std@@@std@@@2@V?$_Vb_const_iterator@U?$_Wrap_alloc@V?$allocator@I@std@@@std@@@2@IAB_N@Z$7 1003510a f   V8EngineProxy.obj
 0001:00034129       __ehhandler$?_Insert_n@?$vector@_NV?$allocator@_N@std@@@std@@QAE?AV?$_Vb_iterator@U?$_Wrap_alloc@V?$allocator@I@std@@@std@@@2@V?$_Vb_const_iterator@U?$_Wrap_alloc@V?$allocator@I@std@@@std@@@2@IAB_N@Z 10035129 f   V8EngineProxy.obj
 0001:00034150       __unwindfunclet$?_Insert_x@?$vector@_NV?$allocator@_N@std@@@std@@QAEIV?$_Vb_const_iterator@U?$_Wrap_alloc@V?$allocator@I@std@@@std@@@2@I@Z$0 10035150 f   V8EngineProxy.obj
 0001:00034158       __unwindfunclet$?_Insert_x@?$vector@_NV?$allocator@_N@std@@@std@@QAEIV?$_Vb_const_iterator@U?$_Wrap_alloc@V?$allocator@I@std@@@std@@@2@I@Z$1 10035158 f   V8EngineProxy.obj
 0001:00034163       __unwindfunclet$?_Insert_x@?$vector@_NV?$allocator@_N@std@@@std@@QAEIV?$_Vb_const_iterator@U?$_Wrap_alloc@V?$allocator@I@std@@@std@@@2@I@Z$2 10035163 f   V8EngineProxy.obj
 0001:0003416e       __unwindfunclet$?_Insert_x@?$vector@_NV?$allocator@_N@std@@@std@@QAEIV?$_Vb_const_iterator@U?$_Wrap_alloc@V?$allocator@I@std@@@std@@@2@I@Z$3 1003516e f   V8EngineProxy.obj
 0001:00034176       __unwindfunclet$?_Insert_x@?$vector@_NV?$allocator@_N@std@@@std@@QAEIV?$_Vb_const_iterator@U?$_Wrap_alloc@V?$allocator@I@std@@@std@@@2@I@Z$4 10035176 f   V8EngineProxy.obj
 0001:00034181       __unwindfunclet$?_Insert_x@?$vector@_NV?$allocator@_N@std@@@std@@QAEIV?$_Vb_const_iterator@U?$_Wrap_alloc@V?$allocator@I@std@@@std@@@2@I@Z$5 10035181 f   V8EngineProxy.obj
 0001:0003418c       __unwindfunclet$?_Insert_x@?$vector@_NV?$allocator@_N@std@@@std@@QAEIV?$_Vb_const_iterator@U?$_Wrap_alloc@V?$allocator@I@std@@@std@@@2@I@Z$6 1003518c f   V8EngineProxy.obj
 0001:00034197       __unwindfunclet$?_Insert_x@?$vector@_NV?$allocator@_N@std@@@std@@QAEIV?$_Vb_const_iterator@U?$_Wrap_alloc@V?$allocator@I@std@@@std@@@2@I@Z$7 10035197 f   V8EngineProxy.obj
 0001:000341a2       __ehhandler$?_Insert_x@?$vector@_NV?$allocator@_N@std@@@std@@QAEIV?$_Vb_const_iterator@U?$_Wrap_alloc@V?$allocator@I@std@@@std@@@2@I@Z 100351a2 f   V8EngineProxy.obj
 0001:000341c0       __unwindfunclet$?_Make_iter@?$vector@IV?$allocator@_N@std@@@std@@QBE?AV?$_Vector_iterator@V?$_Vector_val@U?$_Simple_types@I@std@@@std@@@2@V?$_Vector_const_iterator@V?$_Vector_val@U?$_Simple_types@I@std@@@std@@@2@@Z$0 100351c0 f   V8EngineProxy.obj
 0001:000341c8       __unwindfunclet$?_Make_iter@?$vector@IV?$allocator@_N@std@@@std@@QBE?AV?$_Vector_iterator@V?$_Vector_val@U?$_Simple_types@I@std@@@std@@@2@V?$_Vector_const_iterator@V?$_Vector_val@U?$_Simple_types@I@std@@@std@@@2@@Z$1 100351c8 f   V8EngineProxy.obj
 0001:000341e7       __ehhandler$?_Make_iter@?$vector@IV?$allocator@_N@std@@@std@@QBE?AV?$_Vector_iterator@V?$_Vector_val@U?$_Simple_types@I@std@@@std@@@2@V?$_Vector_const_iterator@V?$_Vector_val@U?$_Simple_types@I@std@@@std@@@2@@Z 100351e7 f   V8EngineProxy.obj
 0001:00034210       __unwindfunclet$?_Make_iter@?$vector@_NV?$allocator@_N@std@@@std@@QAE?AV?$_Vb_iterator@U?$_Wrap_alloc@V?$allocator@I@std@@@std@@@2@V?$_Vb_const_iterator@U?$_Wrap_alloc@V?$allocator@I@std@@@std@@@2@@Z$0 10035210 f   V8EngineProxy.obj
 0001:00034218       __unwindfunclet$?_Make_iter@?$vector@_NV?$allocator@_N@std@@@std@@QAE?AV?$_Vb_iterator@U?$_Wrap_alloc@V?$allocator@I@std@@@std@@@2@V?$_Vb_const_iterator@U?$_Wrap_alloc@V?$allocator@I@std@@@std@@@2@@Z$1 10035218 f   V8EngineProxy.obj
 0001:00034220       __unwindfunclet$?_Make_iter@?$vector@_NV?$allocator@_N@std@@@std@@QAE?AV?$_Vb_iterator@U?$_Wrap_alloc@V?$allocator@I@std@@@std@@@2@V?$_Vb_const_iterator@U?$_Wrap_alloc@V?$allocator@I@std@@@std@@@2@@Z$2 10035220 f   V8EngineProxy.obj
 0001:0003422b       __unwindfunclet$?_Make_iter@?$vector@_NV?$allocator@_N@std@@@std@@QAE?AV?$_Vb_iterator@U?$_Wrap_alloc@V?$allocator@I@std@@@std@@@2@V?$_Vb_const_iterator@U?$_Wrap_alloc@V?$allocator@I@std@@@std@@@2@@Z$3 1003522b f   V8EngineProxy.obj
 0001:0003424a       __ehhandler$?_Make_iter@?$vector@_NV?$allocator@_N@std@@@std@@QAE?AV?$_Vb_iterator@U?$_Wrap_alloc@V?$allocator@I@std@@@std@@@2@V?$_Vb_const_iterator@U?$_Wrap_alloc@V?$allocator@I@std@@@std@@@2@@Z 1003524a f   V8EngineProxy.obj
 0001:00034270       __unwindfunclet$?_Orphan_range@?$vector@HV?$allocator@H@std@@@std@@IBEXPAH0@Z$0 10035270 f   V8EngineProxy.obj
 0001:00034282       __ehhandler$?_Orphan_range@?$vector@HV?$allocator@H@std@@@std@@IBEXPAH0@Z 10035282 f   V8EngineProxy.obj
 0001:000342a0       __unwindfunclet$?_Orphan_range@?$vector@IV?$allocator@_N@std@@@std@@IBEXPAI0@Z$0 100352a0 f   V8EngineProxy.obj
 0001:000342b2       __ehhandler$?_Orphan_range@?$vector@IV?$allocator@_N@std@@@std@@IBEXPAI0@Z 100352b2 f   V8EngineProxy.obj
 0001:000342d0       __unwindfunclet$?_Orphan_range@?$vector@PAUHandleProxy@@V?$allocator@PAUHandleProxy@@@std@@@std@@IBEXPAPAUHandleProxy@@0@Z$0 100352d0 f   V8EngineProxy.obj
 0001:000342e2       __ehhandler$?_Orphan_range@?$vector@PAUHandleProxy@@V?$allocator@PAUHandleProxy@@@std@@@std@@IBEXPAPAUHandleProxy@@0@Z 100352e2 f   V8EngineProxy.obj
 0001:00034300       __unwindfunclet$?_Orphan_range@?$vector@U_StringItem@@V?$allocator@U_StringItem@@@std@@@std@@IBEXPAU_StringItem@@0@Z$0 10035300 f   V8EngineProxy.obj
 0001:00034312       __ehhandler$?_Orphan_range@?$vector@U_StringItem@@V?$allocator@U_StringItem@@@std@@@std@@IBEXPAU_StringItem@@0@Z 10035312 f   V8EngineProxy.obj
 0001:00034330       __unwindfunclet$?_Orphan_range@?$vector@_NV?$allocator@_N@std@@@std@@QBEXII@Z$0 10035330 f   V8EngineProxy.obj
 0001:00034342       __ehhandler$?_Orphan_range@?$vector@_NV?$allocator@_N@std@@@std@@QBEXII@Z 10035342 f   V8EngineProxy.obj
 0001:00034360       __ehhandler$?_Reallocate@?$vector@HV?$allocator@H@std@@@std@@IAEXI@Z 10035360 f   V8EngineProxy.obj
 0001:00034380       __ehhandler$?_Reallocate@?$vector@IV?$allocator@_N@std@@@std@@IAEXI@Z 10035380 f   V8EngineProxy.obj
 0001:000343a0       __ehhandler$?_Reallocate@?$vector@PAUHandleProxy@@V?$allocator@PAUHandleProxy@@@std@@@std@@IAEXI@Z 100353a0 f   V8EngineProxy.obj
 0001:000343c0       __ehhandler$?_Reallocate@?$vector@U_StringItem@@V?$allocator@U_StringItem@@@std@@@std@@IAEXI@Z 100353c0 f   V8EngineProxy.obj
 0001:000343e0       __unwindfunclet$?_Trim@?$vector@_NV?$allocator@_N@std@@@std@@QAEXI@Z$0 100353e0 f   V8EngineProxy.obj
 0001:000343eb       __unwindfunclet$?_Trim@?$vector@_NV?$allocator@_N@std@@@std@@QAEXI@Z$1 100353eb f   V8EngineProxy.obj
 0001:000343f6       __unwindfunclet$?_Trim@?$vector@_NV?$allocator@_N@std@@@std@@QAEXI@Z$2 100353f6 f   V8EngineProxy.obj
 0001:00034401       __unwindfunclet$?_Trim@?$vector@_NV?$allocator@_N@std@@@std@@QAEXI@Z$3 10035401 f   V8EngineProxy.obj
 0001:0003440c       __unwindfunclet$?_Trim@?$vector@_NV?$allocator@_N@std@@@std@@QAEXI@Z$4 1003540c f   V8EngineProxy.obj
 0001:00034417       __ehhandler$?_Trim@?$vector@_NV?$allocator@_N@std@@@std@@QAEXI@Z 10035417 f   V8EngineProxy.obj
 0001:00034440       __unwindfunclet$?back@?$vector@HV?$allocator@H@std@@@std@@QAEAAHXZ$0 10035440 f   V8EngineProxy.obj
 0001:0003444b       __unwindfunclet$?back@?$vector@HV?$allocator@H@std@@@std@@QAEAAHXZ$1 1003544b f   V8EngineProxy.obj
 0001:00034456       __ehhandler$?back@?$vector@HV?$allocator@H@std@@@std@@QAEAAHXZ 10035456 f   V8EngineProxy.obj
 0001:00034480       __unwindfunclet$?begin@?$vector@IV?$allocator@_N@std@@@std@@QAE?AV?$_Vector_iterator@V?$_Vector_val@U?$_Simple_types@I@std@@@std@@@2@XZ$0 10035480 f   V8EngineProxy.obj
 0001:0003449f       __ehhandler$?begin@?$vector@IV?$allocator@_N@std@@@std@@QAE?AV?$_Vector_iterator@V?$_Vector_val@U?$_Simple_types@I@std@@@std@@@2@XZ 1003549f f   V8EngineProxy.obj
 0001:000344c0       __unwindfunclet$?begin@?$vector@_NV?$allocator@_N@std@@@std@@QAE?AV?$_Vb_iterator@U?$_Wrap_alloc@V?$allocator@I@std@@@std@@@2@XZ$0 100354c0 f   V8EngineProxy.obj
 0001:000344df       __ehhandler$?begin@?$vector@_NV?$allocator@_N@std@@@std@@QAE?AV?$_Vb_iterator@U?$_Wrap_alloc@V?$allocator@I@std@@@std@@@2@XZ 100354df f   V8EngineProxy.obj
 0001:00034500       __unwindfunclet$?clear@?$vector@_NV?$allocator@_N@std@@@std@@QAEXXZ$0 10035500 f   V8EngineProxy.obj
 0001:0003450b       __unwindfunclet$?clear@?$vector@_NV?$allocator@_N@std@@@std@@QAEXXZ$1 1003550b f   V8EngineProxy.obj
 0001:00034516       __unwindfunclet$?clear@?$vector@_NV?$allocator@_N@std@@@std@@QAEXXZ$2 10035516 f   V8EngineProxy.obj
 0001:00034521       __unwindfunclet$?clear@?$vector@_NV?$allocator@_N@std@@@std@@QAEXXZ$3 10035521 f   V8EngineProxy.obj
 0001:0003452c       __ehhandler$?clear@?$vector@_NV?$allocator@_N@std@@@std@@QAEXXZ 1003552c f   V8EngineProxy.obj
 0001:00034550       __unwindfunclet$?end@?$vector@HV?$allocator@H@std@@@std@@QAE?AV?$_Vector_iterator@V?$_Vector_val@U?$_Simple_types@H@std@@@std@@@2@XZ$0 10035550 f   V8EngineProxy.obj
 0001:0003456f       __ehhandler$?end@?$vector@HV?$allocator@H@std@@@std@@QAE?AV?$_Vector_iterator@V?$_Vector_val@U?$_Simple_types@H@std@@@std@@@2@XZ 1003556f f   V8EngineProxy.obj
 0001:00034590       __unwindfunclet$?end@?$vector@IV?$allocator@_N@std@@@std@@QAE?AV?$_Vector_iterator@V?$_Vector_val@U?$_Simple_types@I@std@@@std@@@2@XZ$0 10035590 f   V8EngineProxy.obj
 0001:000345af       __ehhandler$?end@?$vector@IV?$allocator@_N@std@@@std@@QAE?AV?$_Vector_iterator@V?$_Vector_val@U?$_Simple_types@I@std@@@std@@@2@XZ 100355af f   V8EngineProxy.obj
 0001:000345d0       __unwindfunclet$?end@?$vector@_NV?$allocator@_N@std@@@std@@QAE?AV?$_Vb_iterator@U?$_Wrap_alloc@V?$allocator@I@std@@@std@@@2@XZ$0 100355d0 f   V8EngineProxy.obj
 0001:000345d8       __unwindfunclet$?end@?$vector@_NV?$allocator@_N@std@@@std@@QAE?AV?$_Vb_iterator@U?$_Wrap_alloc@V?$allocator@I@std@@@std@@@2@XZ$1 100355d8 f   V8EngineProxy.obj
 0001:000345f7       __ehhandler$?end@?$vector@_NV?$allocator@_N@std@@@std@@QAE?AV?$_Vb_iterator@U?$_Wrap_alloc@V?$allocator@I@std@@@std@@@2@XZ 100355f7 f   V8EngineProxy.obj
 0001:00034620       __unwindfunclet$?erase@?$vector@IV?$allocator@_N@std@@@std@@QAE?AV?$_Vector_iterator@V?$_Vector_val@U?$_Simple_types@I@std@@@std@@@2@V?$_Vector_const_iterator@V?$_Vector_val@U?$_Simple_types@I@std@@@std@@@2@0@Z$0 10035620 f   V8EngineProxy.obj
 0001:00034628       __unwindfunclet$?erase@?$vector@IV?$allocator@_N@std@@@std@@QAE?AV?$_Vector_iterator@V?$_Vector_val@U?$_Simple_types@I@std@@@std@@@2@V?$_Vector_const_iterator@V?$_Vector_val@U?$_Simple_types@I@std@@@std@@@2@0@Z$1 10035628 f   V8EngineProxy.obj
 0001:00034630       __unwindfunclet$?erase@?$vector@IV?$allocator@_N@std@@@std@@QAE?AV?$_Vector_iterator@V?$_Vector_val@U?$_Simple_types@I@std@@@std@@@2@V?$_Vector_const_iterator@V?$_Vector_val@U?$_Simple_types@I@std@@@std@@@2@0@Z$2 10035630 f   V8EngineProxy.obj
 0001:00034652       __unwindfunclet$?erase@?$vector@IV?$allocator@_N@std@@@std@@QAE?AV?$_Vector_iterator@V?$_Vector_val@U?$_Simple_types@I@std@@@std@@@2@V?$_Vector_const_iterator@V?$_Vector_val@U?$_Simple_types@I@std@@@std@@@2@0@Z$3 10035652 f   V8EngineProxy.obj
 0001:00034674       __unwindfunclet$?erase@?$vector@IV?$allocator@_N@std@@@std@@QAE?AV?$_Vector_iterator@V?$_Vector_val@U?$_Simple_types@I@std@@@std@@@2@V?$_Vector_const_iterator@V?$_Vector_val@U?$_Simple_types@I@std@@@std@@@2@0@Z$4 10035674 f   V8EngineProxy.obj
 0001:0003467f       __unwindfunclet$?erase@?$vector@IV?$allocator@_N@std@@@std@@QAE?AV?$_Vector_iterator@V?$_Vector_val@U?$_Simple_types@I@std@@@std@@@2@V?$_Vector_const_iterator@V?$_Vector_val@U?$_Simple_types@I@std@@@std@@@2@0@Z$5 1003567f f   V8EngineProxy.obj
 0001:00034687       __unwindfunclet$?erase@?$vector@IV?$allocator@_N@std@@@std@@QAE?AV?$_Vector_iterator@V?$_Vector_val@U?$_Simple_types@I@std@@@std@@@2@V?$_Vector_const_iterator@V?$_Vector_val@U?$_Simple_types@I@std@@@std@@@2@0@Z$6 10035687 f   V8EngineProxy.obj
 0001:00034692       __unwindfunclet$?erase@?$vector@IV?$allocator@_N@std@@@std@@QAE?AV?$_Vector_iterator@V?$_Vector_val@U?$_Simple_types@I@std@@@std@@@2@V?$_Vector_const_iterator@V?$_Vector_val@U?$_Simple_types@I@std@@@std@@@2@0@Z$7 10035692 f   V8EngineProxy.obj
 0001:0003469a       __unwindfunclet$?erase@?$vector@IV?$allocator@_N@std@@@std@@QAE?AV?$_Vector_iterator@V?$_Vector_val@U?$_Simple_types@I@std@@@std@@@2@V?$_Vector_const_iterator@V?$_Vector_val@U?$_Simple_types@I@std@@@std@@@2@0@Z$8 1003569a f   V8EngineProxy.obj
 0001:000346a5       __unwindfunclet$?erase@?$vector@IV?$allocator@_N@std@@@std@@QAE?AV?$_Vector_iterator@V?$_Vector_val@U?$_Simple_types@I@std@@@std@@@2@V?$_Vector_const_iterator@V?$_Vector_val@U?$_Simple_types@I@std@@@std@@@2@0@Z$9 100356a5 f   V8EngineProxy.obj
 0001:000346c4       __ehhandler$?erase@?$vector@IV?$allocator@_N@std@@@std@@QAE?AV?$_Vector_iterator@V?$_Vector_val@U?$_Simple_types@I@std@@@std@@@2@V?$_Vector_const_iterator@V?$_Vector_val@U?$_Simple_types@I@std@@@std@@@2@0@Z 100356c4 f   V8EngineProxy.obj
 0001:000346f0       __unwindfunclet$?erase@?$vector@_NV?$allocator@_N@std@@@std@@QAE?AV?$_Vb_iterator@U?$_Wrap_alloc@V?$allocator@I@std@@@std@@@2@V?$_Vb_const_iterator@U?$_Wrap_alloc@V?$allocator@I@std@@@std@@@2@0@Z$0 100356f0 f   V8EngineProxy.obj
 0001:000346f8       __unwindfunclet$?erase@?$vector@_NV?$allocator@_N@std@@@std@@QAE?AV?$_Vb_iterator@U?$_Wrap_alloc@V?$allocator@I@std@@@std@@@2@V?$_Vb_const_iterator@U?$_Wrap_alloc@V?$allocator@I@std@@@std@@@2@0@Z$1 100356f8 f   V8EngineProxy.obj
 0001:00034700       __unwindfunclet$?erase@?$vector@_NV?$allocator@_N@std@@@std@@QAE?AV?$_Vb_iterator@U?$_Wrap_alloc@V?$allocator@I@std@@@std@@@2@V?$_Vb_const_iterator@U?$_Wrap_alloc@V?$allocator@I@std@@@std@@@2@0@Z$2 10035700 f   V8EngineProxy.obj
 0001:0003470b       __unwindfunclet$?erase@?$vector@_NV?$allocator@_N@std@@@std@@QAE?AV?$_Vb_iterator@U?$_Wrap_alloc@V?$allocator@I@std@@@std@@@2@V?$_Vb_const_iterator@U?$_Wrap_alloc@V?$allocator@I@std@@@std@@@2@0@Z$3 1003570b f   V8EngineProxy.obj
 0001:00034713       __unwindfunclet$?erase@?$vector@_NV?$allocator@_N@std@@@std@@QAE?AV?$_Vb_iterator@U?$_Wrap_alloc@V?$allocator@I@std@@@std@@@2@V?$_Vb_const_iterator@U?$_Wrap_alloc@V?$allocator@I@std@@@std@@@2@0@Z$4 10035713 f   V8EngineProxy.obj
 0001:0003471e       __unwindfunclet$?erase@?$vector@_NV?$allocator@_N@std@@@std@@QAE?AV?$_Vb_iterator@U?$_Wrap_alloc@V?$allocator@I@std@@@std@@@2@V?$_Vb_const_iterator@U?$_Wrap_alloc@V?$allocator@I@std@@@std@@@2@0@Z$5 1003571e f   V8EngineProxy.obj
 0001:00034726       __unwindfunclet$?erase@?$vector@_NV?$allocator@_N@std@@@std@@QAE?AV?$_Vb_iterator@U?$_Wrap_alloc@V?$allocator@I@std@@@std@@@2@V?$_Vb_const_iterator@U?$_Wrap_alloc@V?$allocator@I@std@@@std@@@2@0@Z$6 10035726 f   V8EngineProxy.obj
 0001:00034731       __unwindfunclet$?erase@?$vector@_NV?$allocator@_N@std@@@std@@QAE?AV?$_Vb_iterator@U?$_Wrap_alloc@V?$allocator@I@std@@@std@@@2@V?$_Vb_const_iterator@U?$_Wrap_alloc@V?$allocator@I@std@@@std@@@2@0@Z$7 10035731 f   V8EngineProxy.obj
 0001:00034753       __unwindfunclet$?erase@?$vector@_NV?$allocator@_N@std@@@std@@QAE?AV?$_Vb_iterator@U?$_Wrap_alloc@V?$allocator@I@std@@@std@@@2@V?$_Vb_const_iterator@U?$_Wrap_alloc@V?$allocator@I@std@@@std@@@2@0@Z$8 10035753 f   V8EngineProxy.obj
 0001:0003475e       __unwindfunclet$?erase@?$vector@_NV?$allocator@_N@std@@@std@@QAE?AV?$_Vb_iterator@U?$_Wrap_alloc@V?$allocator@I@std@@@std@@@2@V?$_Vb_const_iterator@U?$_Wrap_alloc@V?$allocator@I@std@@@std@@@2@0@Z$9 1003575e f   V8EngineProxy.obj
 0001:00034769       __unwindfunclet$?erase@?$vector@_NV?$allocator@_N@std@@@std@@QAE?AV?$_Vb_iterator@U?$_Wrap_alloc@V?$allocator@I@std@@@std@@@2@V?$_Vb_const_iterator@U?$_Wrap_alloc@V?$allocator@I@std@@@std@@@2@0@Z$10 10035769 f   V8EngineProxy.obj
 0001:00034774       __unwindfunclet$?erase@?$vector@_NV?$allocator@_N@std@@@std@@QAE?AV?$_Vb_iterator@U?$_Wrap_alloc@V?$allocator@I@std@@@std@@@2@V?$_Vb_const_iterator@U?$_Wrap_alloc@V?$allocator@I@std@@@std@@@2@0@Z$11 10035774 f   V8EngineProxy.obj
 0001:0003477c       __unwindfunclet$?erase@?$vector@_NV?$allocator@_N@std@@@std@@QAE?AV?$_Vb_iterator@U?$_Wrap_alloc@V?$allocator@I@std@@@std@@@2@V?$_Vb_const_iterator@U?$_Wrap_alloc@V?$allocator@I@std@@@std@@@2@0@Z$12 1003577c f   V8EngineProxy.obj
 0001:00034787       __unwindfunclet$?erase@?$vector@_NV?$allocator@_N@std@@@std@@QAE?AV?$_Vb_iterator@U?$_Wrap_alloc@V?$allocator@I@std@@@std@@@2@V?$_Vb_const_iterator@U?$_Wrap_alloc@V?$allocator@I@std@@@std@@@2@0@Z$13 10035787 f   V8EngineProxy.obj
 0001:00034792       __unwindfunclet$?erase@?$vector@_NV?$allocator@_N@std@@@std@@QAE?AV?$_Vb_iterator@U?$_Wrap_alloc@V?$allocator@I@std@@@std@@@2@V?$_Vb_const_iterator@U?$_Wrap_alloc@V?$allocator@I@std@@@std@@@2@0@Z$14 10035792 f   V8EngineProxy.obj
 0001:000347b1       __ehhandler$?erase@?$vector@_NV?$allocator@_N@std@@@std@@QAE?AV?$_Vb_iterator@U?$_Wrap_alloc@V?$allocator@I@std@@@std@@@2@V?$_Vb_const_iterator@U?$_Wrap_alloc@V?$allocator@I@std@@@std@@@2@0@Z 100357b1 f   V8EngineProxy.obj
 0001:000347d0       __unwindfunclet$?insert@?$vector@_NV?$allocator@_N@std@@@std@@QAE?AV?$_Vb_iterator@U?$_Wrap_alloc@V?$allocator@I@std@@@std@@@2@V?$_Vb_const_iterator@U?$_Wrap_alloc@V?$allocator@I@std@@@std@@@2@AB_N@Z$0 100357d0 f   V8EngineProxy.obj
 0001:000347d8       __unwindfunclet$?insert@?$vector@_NV?$allocator@_N@std@@@std@@QAE?AV?$_Vb_iterator@U?$_Wrap_alloc@V?$allocator@I@std@@@std@@@2@V?$_Vb_const_iterator@U?$_Wrap_alloc@V?$allocator@I@std@@@std@@@2@AB_N@Z$1 100357d8 f   V8EngineProxy.obj
 0001:000347e3       __unwindfunclet$?insert@?$vector@_NV?$allocator@_N@std@@@std@@QAE?AV?$_Vb_iterator@U?$_Wrap_alloc@V?$allocator@I@std@@@std@@@2@V?$_Vb_const_iterator@U?$_Wrap_alloc@V?$allocator@I@std@@@std@@@2@AB_N@Z$2 100357e3 f   V8EngineProxy.obj
 0001:00034802       __ehhandler$?insert@?$vector@_NV?$allocator@_N@std@@@std@@QAE?AV?$_Vb_iterator@U?$_Wrap_alloc@V?$allocator@I@std@@@std@@@2@V?$_Vb_const_iterator@U?$_Wrap_alloc@V?$allocator@I@std@@@std@@@2@AB_N@Z 10035802 f   V8EngineProxy.obj
 0001:00034820       __unwindfunclet$?push_back@?$vector@_NV?$allocator@_N@std@@@std@@QAEXAB_N@Z$0 10035820 f   V8EngineProxy.obj
 0001:0003482b       __unwindfunclet$?push_back@?$vector@_NV?$allocator@_N@std@@@std@@QAEXAB_N@Z$1 1003582b f   V8EngineProxy.obj
 0001:00034836       __ehhandler$?push_back@?$vector@_NV?$allocator@_N@std@@@std@@QAEXAB_N@Z 10035836 f   V8EngineProxy.obj
 0001:00034860       __ehhandler$?resize@?$vector@IV?$allocator@_N@std@@@std@@QAEXIABI@Z 10035860 f   V8EngineProxy.obj
 0001:00034880       __unwindfunclet$?resize@?$vector@_NV?$allocator@_N@std@@@std@@QAEXI_N@Z$0 10035880 f   V8EngineProxy.obj
 0001:0003488b       __unwindfunclet$?resize@?$vector@_NV?$allocator@_N@std@@@std@@QAEXI_N@Z$1 1003588b f   V8EngineProxy.obj
 0001:00034896       __unwindfunclet$?resize@?$vector@_NV?$allocator@_N@std@@@std@@QAEXI_N@Z$3 10035896 f   V8EngineProxy.obj
 0001:000348a1       __unwindfunclet$?resize@?$vector@_NV?$allocator@_N@std@@@std@@QAEXI_N@Z$4 100358a1 f   V8EngineProxy.obj
 0001:000348ac       __unwindfunclet$?resize@?$vector@_NV?$allocator@_N@std@@@std@@QAEXI_N@Z$5 100358ac f   V8EngineProxy.obj
 0001:000348b7       __unwindfunclet$?resize@?$vector@_NV?$allocator@_N@std@@@std@@QAEXI_N@Z$6 100358b7 f   V8EngineProxy.obj
 0001:000348c2       __unwindfunclet$?resize@?$vector@_NV?$allocator@_N@std@@@std@@QAEXI_N@Z$7 100358c2 f   V8EngineProxy.obj
 0001:000348cd       __ehhandler$?resize@?$vector@_NV?$allocator@_N@std@@@std@@QAEXI_N@Z 100358cd f   V8EngineProxy.obj
 0001:000348f0       __unwindfunclet$??$?0AAV?$_Tree_iterator@V?$_Tree_val@U?$_Tree_simple_types@U?$pair@QAVIsolate@v8@@V?$queue@PAVTask@v8@@V?$deque@PAVTask@v8@@V?$allocator@PAVTask@v8@@@std@@@std@@@std@@@std@@@std@@@std@@@std@@_NX@?$pair@V?$_Tree_iterator@V?$_Tree_val@U?$_Tree_simple_types@U?$pair@QAVIsolate@v8@@V?$queue@PAVTask@v8@@V?$deque@PAVTask@v8@@V?$allocator@PAVTask@v8@@@std@@@std@@@std@@@std@@@std@@@std@@@std@@_N@std@@QAE@AAV?$_Tree_iterator@V?$_Tree_val@U?$_Tree_simple_types@U?$pair@QAVIsolate@v8@@V?$queue@PAVTask@v8@@V?$deque@PAVTask@v8@@V?$allocator@PAVTask@v8@@@std@@@std@@@std@@@std@@@std@@@std@@@1@$$QA_N@Z$0 100358f0 f   v8_libplatform:default-platform.obj
 0001:000348f8       __ehhandler$??$?0AAV?$_Tree_iterator@V?$_Tree_val@U?$_Tree_simple_types@U?$pair@QAVIsolate@v8@@V?$queue@PAVTask@v8@@V?$deque@PAVTask@v8@@V?$allocator@PAVTask@v8@@@std@@@std@@@std@@@std@@@std@@@std@@@std@@_NX@?$pair@V?$_Tree_iterator@V?$_Tree_val@U?$_Tree_simple_types@U?$pair@QAVIsolate@v8@@V?$queue@PAVTask@v8@@V?$deque@PAVTask@v8@@V?$allocator@PAVTask@v8@@@std@@@std@@@std@@@std@@@std@@@std@@@std@@_N@std@@QAE@AAV?$_Tree_iterator@V?$_Tree_val@U?$_Tree_simple_types@U?$pair@QAVIsolate@v8@@V?$queue@PAVTask@v8@@V?$deque@PAVTask@v8@@V?$allocator@PAVTask@v8@@@std@@@std@@@std@@@std@@@std@@@std@@@1@$$QA_N@Z 100358f8 f   v8_libplatform:default-platform.obj
 0001:00034920       __unwindfunclet$??$?0V?$_Tree_iterator@V?$_Tree_val@U?$_Tree_simple_types@U?$pair@QAVIsolate@v8@@V?$queue@PAVTask@v8@@V?$deque@PAVTask@v8@@V?$allocator@PAVTask@v8@@@std@@@std@@@std@@@std@@@std@@@std@@@std@@_NX@?$pair@V?$_Tree_iterator@V?$_Tree_val@U?$_Tree_simple_types@U?$pair@QAVIsolate@v8@@V?$queue@PAVTask@v8@@V?$deque@PAVTask@v8@@V?$allocator@PAVTask@v8@@@std@@@std@@@std@@@std@@@std@@@std@@@std@@_N@std@@QAE@$$QAV?$_Tree_iterator@V?$_Tree_val@U?$_Tree_simple_types@U?$pair@QAVIsolate@v8@@V?$queue@PAVTask@v8@@V?$deque@PAVTask@v8@@V?$allocator@PAVTask@v8@@@std@@@std@@@std@@@std@@@std@@@std@@@1@$$QA_N@Z$0 10035920 f   v8_libplatform:default-platform.obj
 0001:00034928       __ehhandler$??$?0V?$_Tree_iterator@V?$_Tree_val@U?$_Tree_simple_types@U?$pair@QAVIsolate@v8@@V?$queue@PAVTask@v8@@V?$deque@PAVTask@v8@@V?$allocator@PAVTask@v8@@@std@@@std@@@std@@@std@@@std@@@std@@@std@@_NX@?$pair@V?$_Tree_iterator@V?$_Tree_val@U?$_Tree_simple_types@U?$pair@QAVIsolate@v8@@V?$queue@PAVTask@v8@@V?$deque@PAVTask@v8@@V?$allocator@PAVTask@v8@@@std@@@std@@@std@@@std@@@std@@@std@@@std@@_N@std@@QAE@$$QAV?$_Tree_iterator@V?$_Tree_val@U?$_Tree_simple_types@U?$pair@QAVIsolate@v8@@V?$queue@PAVTask@v8@@V?$deque@PAVTask@v8@@V?$allocator@PAVTask@v8@@@std@@@std@@@std@@@std@@@std@@@std@@@1@$$QA_N@Z 10035928 f   v8_libplatform:default-platform.obj
 0001:00034950       __ehhandler$??$_Buynode@ABUpiecewise_construct_t@std@@V?$tuple@ABQAVIsolate@v8@@@2@V?$tuple@$$$V@2@@?$_Tree_buy@U?$pair@QAVIsolate@v8@@V?$queue@PAVTask@v8@@V?$deque@PAVTask@v8@@V?$allocator@PAVTask@v8@@@std@@@std@@@std@@@std@@V?$allocator@U?$pair@QAVIsolate@v8@@V?$queue@PAVTask@v8@@V?$deque@PAVTask@v8@@V?$allocator@PAVTask@v8@@@std@@@std@@@std@@@std@@@2@@std@@QAEPAU?$_Tree_node@U?$pair@QAVIsolate@v8@@V?$queue@PAVTask@v8@@V?$deque@PAVTask@v8@@V?$allocator@PAVTask@v8@@@std@@@std@@@std@@@std@@PAX@1@ABUpiecewise_construct_t@1@$$QAV?$tuple@ABQAVIsolate@v8@@@1@$$QAV?$tuple@$$$V@1@@Z 10035950 f   v8_libplatform:default-platform.obj
 0001:00034970       __unwindfunclet$??$_Insert_hint@AAU?$pair@QAVIsolate@v8@@V?$queue@PAVTask@v8@@V?$deque@PAVTask@v8@@V?$allocator@PAVTask@v8@@@std@@@std@@@std@@@std@@PAU?$_Tree_node@U?$pair@QAVIsolate@v8@@V?$queue@PAVTask@v8@@V?$deque@PAVTask@v8@@V?$allocator@PAVTask@v8@@@std@@@std@@@std@@@std@@PAX@2@@?$_Tree@V?$_Tmap_traits@PAVIsolate@v8@@V?$queue@PAVTask@v8@@V?$deque@PAVTask@v8@@V?$allocator@PAVTask@v8@@@std@@@std@@@std@@U?$less@PAVIsolate@v8@@@4@V?$allocator@U?$pair@QAVIsolate@v8@@V?$queue@PAVTask@v8@@V?$deque@PAVTask@v8@@V?$allocator@PAVTask@v8@@@std@@@std@@@std@@@std@@@4@$0A@@std@@@std@@IAE?AV?$_Tree_iterator@V?$_Tree_val@U?$_Tree_simple_types@U?$pair@QAVIsolate@v8@@V?$queue@PAVTask@v8@@V?$deque@PAVTask@v8@@V?$allocator@PAVTask@v8@@@std@@@std@@@std@@@std@@@std@@@std@@@1@V?$_Tree_const_iterator@V?$_Tree_val@U?$_Tree_simple_types@U?$pair@QAVIsolate@v8@@V?$queue@PAVTask@v8@@V?$deque@PAVTask@v8@@V?$allocator@PAVTask@v8@@@std@@@std@@@std@@@std@@@std@@@std@@@1@AAU?$pair@QAVIsolate@v8@@V?$queue@PAVTask@v8@@V?$deque@PAVTask@v8@@V?$allocator@PAVTask@v8@@@std@@@std@@@std@@@1@PAU?$_Tree_node@U?$pair@QAVIsolate@v8@@V?$queue@PAVTask@v8@@V?$deque@PAVTask@v8@@V?$allocator@PAVTask@v8@@@std@@@std@@@std@@@std@@PAX@1@@Z$2 10035970 f   v8_libplatform:default-platform.obj
 0001:00034978       __unwindfunclet$??$_Insert_hint@AAU?$pair@QAVIsolate@v8@@V?$queue@PAVTask@v8@@V?$deque@PAVTask@v8@@V?$allocator@PAVTask@v8@@@std@@@std@@@std@@@std@@PAU?$_Tree_node@U?$pair@QAVIsolate@v8@@V?$queue@PAVTask@v8@@V?$deque@PAVTask@v8@@V?$allocator@PAVTask@v8@@@std@@@std@@@std@@@std@@PAX@2@@?$_Tree@V?$_Tmap_traits@PAVIsolate@v8@@V?$queue@PAVTask@v8@@V?$deque@PAVTask@v8@@V?$allocator@PAVTask@v8@@@std@@@std@@@std@@U?$less@PAVIsolate@v8@@@4@V?$allocator@U?$pair@QAVIsolate@v8@@V?$queue@PAVTask@v8@@V?$deque@PAVTask@v8@@V?$allocator@PAVTask@v8@@@std@@@std@@@std@@@std@@@4@$0A@@std@@@std@@IAE?AV?$_Tree_iterator@V?$_Tree_val@U?$_Tree_simple_types@U?$pair@QAVIsolate@v8@@V?$queue@PAVTask@v8@@V?$deque@PAVTask@v8@@V?$allocator@PAVTask@v8@@@std@@@std@@@std@@@std@@@std@@@std@@@1@V?$_Tree_const_iterator@V?$_Tree_val@U?$_Tree_simple_types@U?$pair@QAVIsolate@v8@@V?$queue@PAVTask@v8@@V?$deque@PAVTask@v8@@V?$allocator@PAVTask@v8@@@std@@@std@@@std@@@std@@@std@@@std@@@1@AAU?$pair@QAVIsolate@v8@@V?$queue@PAVTask@v8@@V?$deque@PAVTask@v8@@V?$allocator@PAVTask@v8@@@std@@@std@@@std@@@1@PAU?$_Tree_node@U?$pair@QAVIsolate@v8@@V?$queue@PAVTask@v8@@V?$deque@PAVTask@v8@@V?$allocator@PAVTask@v8@@@std@@@std@@@std@@@std@@PAX@1@@Z$3 10035978 f   v8_libplatform:default-platform.obj
 0001:00034980       __unwindfunclet$??$_Insert_hint@AAU?$pair@QAVIsolate@v8@@V?$queue@PAVTask@v8@@V?$deque@PAVTask@v8@@V?$allocator@PAVTask@v8@@@std@@@std@@@std@@@std@@PAU?$_Tree_node@U?$pair@QAVIsolate@v8@@V?$queue@PAVTask@v8@@V?$deque@PAVTask@v8@@V?$allocator@PAVTask@v8@@@std@@@std@@@std@@@std@@PAX@2@@?$_Tree@V?$_Tmap_traits@PAVIsolate@v8@@V?$queue@PAVTask@v8@@V?$deque@PAVTask@v8@@V?$allocator@PAVTask@v8@@@std@@@std@@@std@@U?$less@PAVIsolate@v8@@@4@V?$allocator@U?$pair@QAVIsolate@v8@@V?$queue@PAVTask@v8@@V?$deque@PAVTask@v8@@V?$allocator@PAVTask@v8@@@std@@@std@@@std@@@std@@@4@$0A@@std@@@std@@IAE?AV?$_Tree_iterator@V?$_Tree_val@U?$_Tree_simple_types@U?$pair@QAVIsolate@v8@@V?$queue@PAVTask@v8@@V?$deque@PAVTask@v8@@V?$allocator@PAVTask@v8@@@std@@@std@@@std@@@std@@@std@@@std@@@1@V?$_Tree_const_iterator@V?$_Tree_val@U?$_Tree_simple_types@U?$pair@QAVIsolate@v8@@V?$queue@PAVTask@v8@@V?$deque@PAVTask@v8@@V?$allocator@PAVTask@v8@@@std@@@std@@@std@@@std@@@std@@@std@@@1@AAU?$pair@QAVIsolate@v8@@V?$queue@PAVTask@v8@@V?$deque@PAVTask@v8@@V?$allocator@PAVTask@v8@@@std@@@std@@@std@@@1@PAU?$_Tree_node@U?$pair@QAVIsolate@v8@@V?$queue@PAVTask@v8@@V?$deque@PAVTask@v8@@V?$allocator@PAVTask@v8@@@std@@@std@@@std@@@std@@PAX@1@@Z$5 10035980 f   v8_libplatform:default-platform.obj
 0001:0003498b       __unwindfunclet$??$_Insert_hint@AAU?$pair@QAVIsolate@v8@@V?$queue@PAVTask@v8@@V?$deque@PAVTask@v8@@V?$allocator@PAVTask@v8@@@std@@@std@@@std@@@std@@PAU?$_Tree_node@U?$pair@QAVIsolate@v8@@V?$queue@PAVTask@v8@@V?$deque@PAVTask@v8@@V?$allocator@PAVTask@v8@@@std@@@std@@@std@@@std@@PAX@2@@?$_Tree@V?$_Tmap_traits@PAVIsolate@v8@@V?$queue@PAVTask@v8@@V?$deque@PAVTask@v8@@V?$allocator@PAVTask@v8@@@std@@@std@@@std@@U?$less@PAVIsolate@v8@@@4@V?$allocator@U?$pair@QAVIsolate@v8@@V?$queue@PAVTask@v8@@V?$deque@PAVTask@v8@@V?$allocator@PAVTask@v8@@@std@@@std@@@std@@@std@@@4@$0A@@std@@@std@@IAE?AV?$_Tree_iterator@V?$_Tree_val@U?$_Tree_simple_types@U?$pair@QAVIsolate@v8@@V?$queue@PAVTask@v8@@V?$deque@PAVTask@v8@@V?$allocator@PAVTask@v8@@@std@@@std@@@std@@@std@@@std@@@std@@@1@V?$_Tree_const_iterator@V?$_Tree_val@U?$_Tree_simple_types@U?$pair@QAVIsolate@v8@@V?$queue@PAVTask@v8@@V?$deque@PAVTask@v8@@V?$allocator@PAVTask@v8@@@std@@@std@@@std@@@std@@@std@@@std@@@1@AAU?$pair@QAVIsolate@v8@@V?$queue@PAVTask@v8@@V?$deque@PAVTask@v8@@V?$allocator@PAVTask@v8@@@std@@@std@@@std@@@1@PAU?$_Tree_node@U?$pair@QAVIsolate@v8@@V?$queue@PAVTask@v8@@V?$deque@PAVTask@v8@@V?$allocator@PAVTask@v8@@@std@@@std@@@std@@@std@@PAX@1@@Z$6 1003598b f   v8_libplatform:default-platform.obj
 0001:00034996       __unwindfunclet$??$_Insert_hint@AAU?$pair@QAVIsolate@v8@@V?$queue@PAVTask@v8@@V?$deque@PAVTask@v8@@V?$allocator@PAVTask@v8@@@std@@@std@@@std@@@std@@PAU?$_Tree_node@U?$pair@QAVIsolate@v8@@V?$queue@PAVTask@v8@@V?$deque@PAVTask@v8@@V?$allocator@PAVTask@v8@@@std@@@std@@@std@@@std@@PAX@2@@?$_Tree@V?$_Tmap_traits@PAVIsolate@v8@@V?$queue@PAVTask@v8@@V?$deque@PAVTask@v8@@V?$allocator@PAVTask@v8@@@std@@@std@@@std@@U?$less@PAVIsolate@v8@@@4@V?$allocator@U?$pair@QAVIsolate@v8@@V?$queue@PAVTask@v8@@V?$deque@PAVTask@v8@@V?$allocator@PAVTask@v8@@@std@@@std@@@std@@@std@@@4@$0A@@std@@@std@@IAE?AV?$_Tree_iterator@V?$_Tree_val@U?$_Tree_simple_types@U?$pair@QAVIsolate@v8@@V?$queue@PAVTask@v8@@V?$deque@PAVTask@v8@@V?$allocator@PAVTask@v8@@@std@@@std@@@std@@@std@@@std@@@std@@@1@V?$_Tree_const_iterator@V?$_Tree_val@U?$_Tree_simple_types@U?$pair@QAVIsolate@v8@@V?$queue@PAVTask@v8@@V?$deque@PAVTask@v8@@V?$allocator@PAVTask@v8@@@std@@@std@@@std@@@std@@@std@@@std@@@1@AAU?$pair@QAVIsolate@v8@@V?$queue@PAVTask@v8@@V?$deque@PAVTask@v8@@V?$allocator@PAVTask@v8@@@std@@@std@@@std@@@1@PAU?$_Tree_node@U?$pair@QAVIsolate@v8@@V?$queue@PAVTask@v8@@V?$deque@PAVTask@v8@@V?$allocator@PAVTask@v8@@@std@@@std@@@std@@@std@@PAX@1@@Z$7 10035996 f   v8_libplatform:default-platform.obj
 0001:000349b2       __unwindfunclet$??$_Insert_hint@AAU?$pair@QAVIsolate@v8@@V?$queue@PAVTask@v8@@V?$deque@PAVTask@v8@@V?$allocator@PAVTask@v8@@@std@@@std@@@std@@@std@@PAU?$_Tree_node@U?$pair@QAVIsolate@v8@@V?$queue@PAVTask@v8@@V?$deque@PAVTask@v8@@V?$allocator@PAVTask@v8@@@std@@@std@@@std@@@std@@PAX@2@@?$_Tree@V?$_Tmap_traits@PAVIsolate@v8@@V?$queue@PAVTask@v8@@V?$deque@PAVTask@v8@@V?$allocator@PAVTask@v8@@@std@@@std@@@std@@U?$less@PAVIsolate@v8@@@4@V?$allocator@U?$pair@QAVIsolate@v8@@V?$queue@PAVTask@v8@@V?$deque@PAVTask@v8@@V?$allocator@PAVTask@v8@@@std@@@std@@@std@@@std@@@4@$0A@@std@@@std@@IAE?AV?$_Tree_iterator@V?$_Tree_val@U?$_Tree_simple_types@U?$pair@QAVIsolate@v8@@V?$queue@PAVTask@v8@@V?$deque@PAVTask@v8@@V?$allocator@PAVTask@v8@@@std@@@std@@@std@@@std@@@std@@@std@@@1@V?$_Tree_const_iterator@V?$_Tree_val@U?$_Tree_simple_types@U?$pair@QAVIsolate@v8@@V?$queue@PAVTask@v8@@V?$deque@PAVTask@v8@@V?$allocator@PAVTask@v8@@@std@@@std@@@std@@@std@@@std@@@std@@@1@AAU?$pair@QAVIsolate@v8@@V?$queue@PAVTask@v8@@V?$deque@PAVTask@v8@@V?$allocator@PAVTask@v8@@@std@@@std@@@std@@@1@PAU?$_Tree_node@U?$pair@QAVIsolate@v8@@V?$queue@PAVTask@v8@@V?$deque@PAVTask@v8@@V?$allocator@PAVTask@v8@@@std@@@std@@@std@@@std@@PAX@1@@Z$8 100359b2 f   v8_libplatform:default-platform.obj
 0001:000349bd       __unwindfunclet$??$_Insert_hint@AAU?$pair@QAVIsolate@v8@@V?$queue@PAVTask@v8@@V?$deque@PAVTask@v8@@V?$allocator@PAVTask@v8@@@std@@@std@@@std@@@std@@PAU?$_Tree_node@U?$pair@QAVIsolate@v8@@V?$queue@PAVTask@v8@@V?$deque@PAVTask@v8@@V?$allocator@PAVTask@v8@@@std@@@std@@@std@@@std@@PAX@2@@?$_Tree@V?$_Tmap_traits@PAVIsolate@v8@@V?$queue@PAVTask@v8@@V?$deque@PAVTask@v8@@V?$allocator@PAVTask@v8@@@std@@@std@@@std@@U?$less@PAVIsolate@v8@@@4@V?$allocator@U?$pair@QAVIsolate@v8@@V?$queue@PAVTask@v8@@V?$deque@PAVTask@v8@@V?$allocator@PAVTask@v8@@@std@@@std@@@std@@@std@@@4@$0A@@std@@@std@@IAE?AV?$_Tree_iterator@V?$_Tree_val@U?$_Tree_simple_types@U?$pair@QAVIsolate@v8@@V?$queue@PAVTask@v8@@V?$deque@PAVTask@v8@@V?$allocator@PAVTask@v8@@@std@@@std@@@std@@@std@@@std@@@std@@@1@V?$_Tree_const_iterator@V?$_Tree_val@U?$_Tree_simple_types@U?$pair@QAVIsolate@v8@@V?$queue@PAVTask@v8@@V?$deque@PAVTask@v8@@V?$allocator@PAVTask@v8@@@std@@@std@@@std@@@std@@@std@@@std@@@1@AAU?$pair@QAVIsolate@v8@@V?$queue@PAVTask@v8@@V?$deque@PAVTask@v8@@V?$allocator@PAVTask@v8@@@std@@@std@@@std@@@1@PAU?$_Tree_node@U?$pair@QAVIsolate@v8@@V?$queue@PAVTask@v8@@V?$deque@PAVTask@v8@@V?$allocator@PAVTask@v8@@@std@@@std@@@std@@@std@@PAX@1@@Z$9 100359bd f   v8_libplatform:default-platform.obj
 0001:000349c8       __unwindfunclet$??$_Insert_hint@AAU?$pair@QAVIsolate@v8@@V?$queue@PAVTask@v8@@V?$deque@PAVTask@v8@@V?$allocator@PAVTask@v8@@@std@@@std@@@std@@@std@@PAU?$_Tree_node@U?$pair@QAVIsolate@v8@@V?$queue@PAVTask@v8@@V?$deque@PAVTask@v8@@V?$allocator@PAVTask@v8@@@std@@@std@@@std@@@std@@PAX@2@@?$_Tree@V?$_Tmap_traits@PAVIsolate@v8@@V?$queue@PAVTask@v8@@V?$deque@PAVTask@v8@@V?$allocator@PAVTask@v8@@@std@@@std@@@std@@U?$less@PAVIsolate@v8@@@4@V?$allocator@U?$pair@QAVIsolate@v8@@V?$queue@PAVTask@v8@@V?$deque@PAVTask@v8@@V?$allocator@PAVTask@v8@@@std@@@std@@@std@@@std@@@4@$0A@@std@@@std@@IAE?AV?$_Tree_iterator@V?$_Tree_val@U?$_Tree_simple_types@U?$pair@QAVIsolate@v8@@V?$queue@PAVTask@v8@@V?$deque@PAVTask@v8@@V?$allocator@PAVTask@v8@@@std@@@std@@@std@@@std@@@std@@@std@@@1@V?$_Tree_const_iterator@V?$_Tree_val@U?$_Tree_simple_types@U?$pair@QAVIsolate@v8@@V?$queue@PAVTask@v8@@V?$deque@PAVTask@v8@@V?$allocator@PAVTask@v8@@@std@@@std@@@std@@@std@@@std@@@std@@@1@AAU?$pair@QAVIsolate@v8@@V?$queue@PAVTask@v8@@V?$deque@PAVTask@v8@@V?$allocator@PAVTask@v8@@@std@@@std@@@std@@@1@PAU?$_Tree_node@U?$pair@QAVIsolate@v8@@V?$queue@PAVTask@v8@@V?$deque@PAVTask@v8@@V?$allocator@PAVTask@v8@@@std@@@std@@@std@@@std@@PAX@1@@Z$10 100359c8 f   v8_libplatform:default-platform.obj
 0001:000349e4       __unwindfunclet$??$_Insert_hint@AAU?$pair@QAVIsolate@v8@@V?$queue@PAVTask@v8@@V?$deque@PAVTask@v8@@V?$allocator@PAVTask@v8@@@std@@@std@@@std@@@std@@PAU?$_Tree_node@U?$pair@QAVIsolate@v8@@V?$queue@PAVTask@v8@@V?$deque@PAVTask@v8@@V?$allocator@PAVTask@v8@@@std@@@std@@@std@@@std@@PAX@2@@?$_Tree@V?$_Tmap_traits@PAVIsolate@v8@@V?$queue@PAVTask@v8@@V?$deque@PAVTask@v8@@V?$allocator@PAVTask@v8@@@std@@@std@@@std@@U?$less@PAVIsolate@v8@@@4@V?$allocator@U?$pair@QAVIsolate@v8@@V?$queue@PAVTask@v8@@V?$deque@PAVTask@v8@@V?$allocator@PAVTask@v8@@@std@@@std@@@std@@@std@@@4@$0A@@std@@@std@@IAE?AV?$_Tree_iterator@V?$_Tree_val@U?$_Tree_simple_types@U?$pair@QAVIsolate@v8@@V?$queue@PAVTask@v8@@V?$deque@PAVTask@v8@@V?$allocator@PAVTask@v8@@@std@@@std@@@std@@@std@@@std@@@std@@@1@V?$_Tree_const_iterator@V?$_Tree_val@U?$_Tree_simple_types@U?$pair@QAVIsolate@v8@@V?$queue@PAVTask@v8@@V?$deque@PAVTask@v8@@V?$allocator@PAVTask@v8@@@std@@@std@@@std@@@std@@@std@@@std@@@1@AAU?$pair@QAVIsolate@v8@@V?$queue@PAVTask@v8@@V?$deque@PAVTask@v8@@V?$allocator@PAVTask@v8@@@std@@@std@@@std@@@1@PAU?$_Tree_node@U?$pair@QAVIsolate@v8@@V?$queue@PAVTask@v8@@V?$deque@PAVTask@v8@@V?$allocator@PAVTask@v8@@@std@@@std@@@std@@@std@@PAX@1@@Z$11 100359e4 f   v8_libplatform:default-platform.obj
 0001:000349ef       __ehhandler$??$_Insert_hint@AAU?$pair@QAVIsolate@v8@@V?$queue@PAVTask@v8@@V?$deque@PAVTask@v8@@V?$allocator@PAVTask@v8@@@std@@@std@@@std@@@std@@PAU?$_Tree_node@U?$pair@QAVIsolate@v8@@V?$queue@PAVTask@v8@@V?$deque@PAVTask@v8@@V?$allocator@PAVTask@v8@@@std@@@std@@@std@@@std@@PAX@2@@?$_Tree@V?$_Tmap_traits@PAVIsolate@v8@@V?$queue@PAVTask@v8@@V?$deque@PAVTask@v8@@V?$allocator@PAVTask@v8@@@std@@@std@@@std@@U?$less@PAVIsolate@v8@@@4@V?$allocator@U?$pair@QAVIsolate@v8@@V?$queue@PAVTask@v8@@V?$deque@PAVTask@v8@@V?$allocator@PAVTask@v8@@@std@@@std@@@std@@@std@@@4@$0A@@std@@@std@@IAE?AV?$_Tree_iterator@V?$_Tree_val@U?$_Tree_simple_types@U?$pair@QAVIsolate@v8@@V?$queue@PAVTask@v8@@V?$deque@PAVTask@v8@@V?$allocator@PAVTask@v8@@@std@@@std@@@std@@@std@@@std@@@std@@@1@V?$_Tree_const_iterator@V?$_Tree_val@U?$_Tree_simple_types@U?$pair@QAVIsolate@v8@@V?$queue@PAVTask@v8@@V?$deque@PAVTask@v8@@V?$allocator@PAVTask@v8@@@std@@@std@@@std@@@std@@@std@@@std@@@1@AAU?$pair@QAVIsolate@v8@@V?$queue@PAVTask@v8@@V?$deque@PAVTask@v8@@V?$allocator@PAVTask@v8@@@std@@@std@@@std@@@1@PAU?$_Tree_node@U?$pair@QAVIsolate@v8@@V?$queue@PAVTask@v8@@V?$deque@PAVTask@v8@@V?$allocator@PAVTask@v8@@@std@@@std@@@std@@@std@@PAX@1@@Z 100359ef f   v8_libplatform:default-platform.obj
 0001:00034a10       __unwindfunclet$??$_Insert_nohint@AAU?$pair@QAVIsolate@v8@@V?$queue@PAVTask@v8@@V?$deque@PAVTask@v8@@V?$allocator@PAVTask@v8@@@std@@@std@@@std@@@std@@PAU?$_Tree_node@U?$pair@QAVIsolate@v8@@V?$queue@PAVTask@v8@@V?$deque@PAVTask@v8@@V?$allocator@PAVTask@v8@@@std@@@std@@@std@@@std@@PAX@2@@?$_Tree@V?$_Tmap_traits@PAVIsolate@v8@@V?$queue@PAVTask@v8@@V?$deque@PAVTask@v8@@V?$allocator@PAVTask@v8@@@std@@@std@@@std@@U?$less@PAVIsolate@v8@@@4@V?$allocator@U?$pair@QAVIsolate@v8@@V?$queue@PAVTask@v8@@V?$deque@PAVTask@v8@@V?$allocator@PAVTask@v8@@@std@@@std@@@std@@@std@@@4@$0A@@std@@@std@@IAE?AU?$pair@V?$_Tree_iterator@V?$_Tree_val@U?$_Tree_simple_types@U?$pair@QAVIsolate@v8@@V?$queue@PAVTask@v8@@V?$deque@PAVTask@v8@@V?$allocator@PAVTask@v8@@@std@@@std@@@std@@@std@@@std@@@std@@@std@@_N@1@_NAAU?$pair@QAVIsolate@v8@@V?$queue@PAVTask@v8@@V?$deque@PAVTask@v8@@V?$allocator@PAVTask@v8@@@std@@@std@@@std@@@1@PAU?$_Tree_node@U?$pair@QAVIsolate@v8@@V?$queue@PAVTask@v8@@V?$deque@PAVTask@v8@@V?$allocator@PAVTask@v8@@@std@@@std@@@std@@@std@@PAX@1@@Z$2 10035a10 f   v8_libplatform:default-platform.obj
 0001:00034a1b       __unwindfunclet$??$_Insert_nohint@AAU?$pair@QAVIsolate@v8@@V?$queue@PAVTask@v8@@V?$deque@PAVTask@v8@@V?$allocator@PAVTask@v8@@@std@@@std@@@std@@@std@@PAU?$_Tree_node@U?$pair@QAVIsolate@v8@@V?$queue@PAVTask@v8@@V?$deque@PAVTask@v8@@V?$allocator@PAVTask@v8@@@std@@@std@@@std@@@std@@PAX@2@@?$_Tree@V?$_Tmap_traits@PAVIsolate@v8@@V?$queue@PAVTask@v8@@V?$deque@PAVTask@v8@@V?$allocator@PAVTask@v8@@@std@@@std@@@std@@U?$less@PAVIsolate@v8@@@4@V?$allocator@U?$pair@QAVIsolate@v8@@V?$queue@PAVTask@v8@@V?$deque@PAVTask@v8@@V?$allocator@PAVTask@v8@@@std@@@std@@@std@@@std@@@4@$0A@@std@@@std@@IAE?AU?$pair@V?$_Tree_iterator@V?$_Tree_val@U?$_Tree_simple_types@U?$pair@QAVIsolate@v8@@V?$queue@PAVTask@v8@@V?$deque@PAVTask@v8@@V?$allocator@PAVTask@v8@@@std@@@std@@@std@@@std@@@std@@@std@@@std@@_N@1@_NAAU?$pair@QAVIsolate@v8@@V?$queue@PAVTask@v8@@V?$deque@PAVTask@v8@@V?$allocator@PAVTask@v8@@@std@@@std@@@std@@@1@PAU?$_Tree_node@U?$pair@QAVIsolate@v8@@V?$queue@PAVTask@v8@@V?$deque@PAVTask@v8@@V?$allocator@PAVTask@v8@@@std@@@std@@@std@@@std@@PAX@1@@Z$4 10035a1b f   v8_libplatform:default-platform.obj
 0001:00034a23       __unwindfunclet$??$_Insert_nohint@AAU?$pair@QAVIsolate@v8@@V?$queue@PAVTask@v8@@V?$deque@PAVTask@v8@@V?$allocator@PAVTask@v8@@@std@@@std@@@std@@@std@@PAU?$_Tree_node@U?$pair@QAVIsolate@v8@@V?$queue@PAVTask@v8@@V?$deque@PAVTask@v8@@V?$allocator@PAVTask@v8@@@std@@@std@@@std@@@std@@PAX@2@@?$_Tree@V?$_Tmap_traits@PAVIsolate@v8@@V?$queue@PAVTask@v8@@V?$deque@PAVTask@v8@@V?$allocator@PAVTask@v8@@@std@@@std@@@std@@U?$less@PAVIsolate@v8@@@4@V?$allocator@U?$pair@QAVIsolate@v8@@V?$queue@PAVTask@v8@@V?$deque@PAVTask@v8@@V?$allocator@PAVTask@v8@@@std@@@std@@@std@@@std@@@4@$0A@@std@@@std@@IAE?AU?$pair@V?$_Tree_iterator@V?$_Tree_val@U?$_Tree_simple_types@U?$pair@QAVIsolate@v8@@V?$queue@PAVTask@v8@@V?$deque@PAVTask@v8@@V?$allocator@PAVTask@v8@@@std@@@std@@@std@@@std@@@std@@@std@@@std@@_N@1@_NAAU?$pair@QAVIsolate@v8@@V?$queue@PAVTask@v8@@V?$deque@PAVTask@v8@@V?$allocator@PAVTask@v8@@@std@@@std@@@std@@@1@PAU?$_Tree_node@U?$pair@QAVIsolate@v8@@V?$queue@PAVTask@v8@@V?$deque@PAVTask@v8@@V?$allocator@PAVTask@v8@@@std@@@std@@@std@@@std@@PAX@1@@Z$5 10035a23 f   v8_libplatform:default-platform.obj
 0001:00034a2e       __unwindfunclet$??$_Insert_nohint@AAU?$pair@QAVIsolate@v8@@V?$queue@PAVTask@v8@@V?$deque@PAVTask@v8@@V?$allocator@PAVTask@v8@@@std@@@std@@@std@@@std@@PAU?$_Tree_node@U?$pair@QAVIsolate@v8@@V?$queue@PAVTask@v8@@V?$deque@PAVTask@v8@@V?$allocator@PAVTask@v8@@@std@@@std@@@std@@@std@@PAX@2@@?$_Tree@V?$_Tmap_traits@PAVIsolate@v8@@V?$queue@PAVTask@v8@@V?$deque@PAVTask@v8@@V?$allocator@PAVTask@v8@@@std@@@std@@@std@@U?$less@PAVIsolate@v8@@@4@V?$allocator@U?$pair@QAVIsolate@v8@@V?$queue@PAVTask@v8@@V?$deque@PAVTask@v8@@V?$allocator@PAVTask@v8@@@std@@@std@@@std@@@std@@@4@$0A@@std@@@std@@IAE?AU?$pair@V?$_Tree_iterator@V?$_Tree_val@U?$_Tree_simple_types@U?$pair@QAVIsolate@v8@@V?$queue@PAVTask@v8@@V?$deque@PAVTask@v8@@V?$allocator@PAVTask@v8@@@std@@@std@@@std@@@std@@@std@@@std@@@std@@_N@1@_NAAU?$pair@QAVIsolate@v8@@V?$queue@PAVTask@v8@@V?$deque@PAVTask@v8@@V?$allocator@PAVTask@v8@@@std@@@std@@@std@@@1@PAU?$_Tree_node@U?$pair@QAVIsolate@v8@@V?$queue@PAVTask@v8@@V?$deque@PAVTask@v8@@V?$allocator@PAVTask@v8@@@std@@@std@@@std@@@std@@PAX@1@@Z$6 10035a2e f   v8_libplatform:default-platform.obj
 0001:00034a39       __unwindfunclet$??$_Insert_nohint@AAU?$pair@QAVIsolate@v8@@V?$queue@PAVTask@v8@@V?$deque@PAVTask@v8@@V?$allocator@PAVTask@v8@@@std@@@std@@@std@@@std@@PAU?$_Tree_node@U?$pair@QAVIsolate@v8@@V?$queue@PAVTask@v8@@V?$deque@PAVTask@v8@@V?$allocator@PAVTask@v8@@@std@@@std@@@std@@@std@@PAX@2@@?$_Tree@V?$_Tmap_traits@PAVIsolate@v8@@V?$queue@PAVTask@v8@@V?$deque@PAVTask@v8@@V?$allocator@PAVTask@v8@@@std@@@std@@@std@@U?$less@PAVIsolate@v8@@@4@V?$allocator@U?$pair@QAVIsolate@v8@@V?$queue@PAVTask@v8@@V?$deque@PAVTask@v8@@V?$allocator@PAVTask@v8@@@std@@@std@@@std@@@std@@@4@$0A@@std@@@std@@IAE?AU?$pair@V?$_Tree_iterator@V?$_Tree_val@U?$_Tree_simple_types@U?$pair@QAVIsolate@v8@@V?$queue@PAVTask@v8@@V?$deque@PAVTask@v8@@V?$allocator@PAVTask@v8@@@std@@@std@@@std@@@std@@@std@@@std@@@std@@_N@1@_NAAU?$pair@QAVIsolate@v8@@V?$queue@PAVTask@v8@@V?$deque@PAVTask@v8@@V?$allocator@PAVTask@v8@@@std@@@std@@@std@@@1@PAU?$_Tree_node@U?$pair@QAVIsolate@v8@@V?$queue@PAVTask@v8@@V?$deque@PAVTask@v8@@V?$allocator@PAVTask@v8@@@std@@@std@@@std@@@std@@PAX@1@@Z$7 10035a39 f   v8_libplatform:default-platform.obj
 0001:00034a44       __ehhandler$??$_Insert_nohint@AAU?$pair@QAVIsolate@v8@@V?$queue@PAVTask@v8@@V?$deque@PAVTask@v8@@V?$allocator@PAVTask@v8@@@std@@@std@@@std@@@std@@PAU?$_Tree_node@U?$pair@QAVIsolate@v8@@V?$queue@PAVTask@v8@@V?$deque@PAVTask@v8@@V?$allocator@PAVTask@v8@@@std@@@std@@@std@@@std@@PAX@2@@?$_Tree@V?$_Tmap_traits@PAVIsolate@v8@@V?$queue@PAVTask@v8@@V?$deque@PAVTask@v8@@V?$allocator@PAVTask@v8@@@std@@@std@@@std@@U?$less@PAVIsolate@v8@@@4@V?$allocator@U?$pair@QAVIsolate@v8@@V?$queue@PAVTask@v8@@V?$deque@PAVTask@v8@@V?$allocator@PAVTask@v8@@@std@@@std@@@std@@@std@@@4@$0A@@std@@@std@@IAE?AU?$pair@V?$_Tree_iterator@V?$_Tree_val@U?$_Tree_simple_types@U?$pair@QAVIsolate@v8@@V?$queue@PAVTask@v8@@V?$deque@PAVTask@v8@@V?$allocator@PAVTask@v8@@@std@@@std@@@std@@@std@@@std@@@std@@@std@@_N@1@_NAAU?$pair@QAVIsolate@v8@@V?$queue@PAVTask@v8@@V?$deque@PAVTask@v8@@V?$allocator@PAVTask@v8@@@std@@@std@@@std@@@1@PAU?$_Tree_node@U?$pair@QAVIsolate@v8@@V?$queue@PAVTask@v8@@V?$deque@PAVTask@v8@@V?$allocator@PAVTask@v8@@@std@@@std@@@std@@@std@@PAX@1@@Z 10035a44 f   v8_libplatform:default-platform.obj
 0001:00034a70       __unwindfunclet$??$construct@PADAAPAD@?$allocator@D@std@@QAEXPAPADAAPAD@Z$0 10035a70 f   v8_libplatform:default-platform.obj
 0001:00034a81       __ehhandler$??$construct@PADAAPAD@?$allocator@D@std@@QAEXPAPADAAPAD@Z 10035a81 f   v8_libplatform:default-platform.obj
 0001:00034aa0       __unwindfunclet$??$construct@PAU?$_Tree_node@U?$pair@QAVIsolate@v8@@V?$queue@PAVTask@v8@@V?$deque@PAVTask@v8@@V?$allocator@PAVTask@v8@@@std@@@std@@@std@@@std@@PAX@std@@AAPAU12@@?$allocator@U?$_Tree_node@U?$pair@QAVIsolate@v8@@V?$queue@PAVTask@v8@@V?$deque@PAVTask@v8@@V?$allocator@PAVTask@v8@@@std@@@std@@@std@@@std@@PAX@std@@@std@@QAEXPAPAU?$_Tree_node@U?$pair@QAVIsolate@v8@@V?$queue@PAVTask@v8@@V?$deque@PAVTask@v8@@V?$allocator@PAVTask@v8@@@std@@@std@@@std@@@std@@PAX@1@AAPAU21@@Z$0 10035aa0 f   v8_libplatform:default-platform.obj
 0001:00034ab1       __ehhandler$??$construct@PAU?$_Tree_node@U?$pair@QAVIsolate@v8@@V?$queue@PAVTask@v8@@V?$deque@PAVTask@v8@@V?$allocator@PAVTask@v8@@@std@@@std@@@std@@@std@@PAX@std@@AAPAU12@@?$allocator@U?$_Tree_node@U?$pair@QAVIsolate@v8@@V?$queue@PAVTask@v8@@V?$deque@PAVTask@v8@@V?$allocator@PAVTask@v8@@@std@@@std@@@std@@@std@@PAX@std@@@std@@QAEXPAPAU?$_Tree_node@U?$pair@QAVIsolate@v8@@V?$queue@PAVTask@v8@@V?$deque@PAVTask@v8@@V?$allocator@PAVTask@v8@@@std@@@std@@@std@@@std@@PAX@1@AAPAU21@@Z 10035ab1 f   v8_libplatform:default-platform.obj
 0001:00034ad0       __unwindfunclet$??$construct@PAVWorkerThread@platform@v8@@PAV123@@?$allocator@PAVWorkerThread@platform@v8@@@std@@QAEXPAPAVWorkerThread@platform@v8@@$$QAPAV234@@Z$0 10035ad0 f   v8_libplatform:default-platform.obj
 0001:00034ae1       __ehhandler$??$construct@PAVWorkerThread@platform@v8@@PAV123@@?$allocator@PAVWorkerThread@platform@v8@@@std@@QAEXPAPAVWorkerThread@platform@v8@@$$QAPAV234@@Z 10035ae1 f   v8_libplatform:default-platform.obj
 0001:00034b00       __unwindfunclet$??$construct@U?$pair@QAVIsolate@v8@@V?$queue@PAVTask@v8@@V?$deque@PAVTask@v8@@V?$allocator@PAVTask@v8@@@std@@@std@@@std@@@std@@ABUpiecewise_construct_t@2@V?$tuple@ABQAVIsolate@v8@@@2@V?$tuple@$$$V@2@@?$allocator@U?$_Tree_node@U?$pair@QAVIsolate@v8@@V?$queue@PAVTask@v8@@V?$deque@PAVTask@v8@@V?$allocator@PAVTask@v8@@@std@@@std@@@std@@@std@@PAX@std@@@std@@QAEXPAU?$pair@QAVIsolate@v8@@V?$queue@PAVTask@v8@@V?$deque@PAVTask@v8@@V?$allocator@PAVTask@v8@@@std@@@std@@@std@@@1@ABUpiecewise_construct_t@1@$$QAV?$tuple@ABQAVIsolate@v8@@@1@$$QAV?$tuple@$$$V@1@@Z$0 10035b00 f   v8_libplatform:default-platform.obj
 0001:00034b11       __ehhandler$??$construct@U?$pair@QAVIsolate@v8@@V?$queue@PAVTask@v8@@V?$deque@PAVTask@v8@@V?$allocator@PAVTask@v8@@@std@@@std@@@std@@@std@@ABUpiecewise_construct_t@2@V?$tuple@ABQAVIsolate@v8@@@2@V?$tuple@$$$V@2@@?$allocator@U?$_Tree_node@U?$pair@QAVIsolate@v8@@V?$queue@PAVTask@v8@@V?$deque@PAVTask@v8@@V?$allocator@PAVTask@v8@@@std@@@std@@@std@@@std@@PAX@std@@@std@@QAEXPAU?$pair@QAVIsolate@v8@@V?$queue@PAVTask@v8@@V?$deque@PAVTask@v8@@V?$allocator@PAVTask@v8@@@std@@@std@@@std@@@1@ABUpiecewise_construct_t@1@$$QAV?$tuple@ABQAVIsolate@v8@@@1@$$QAV?$tuple@$$$V@1@@Z 10035b11 f   v8_libplatform:default-platform.obj
 0001:00034b30       __unwindfunclet$??$emplace_hint@ABUpiecewise_construct_t@std@@V?$tuple@ABQAVIsolate@v8@@@2@V?$tuple@$$$V@2@@?$_Tree@V?$_Tmap_traits@PAVIsolate@v8@@V?$queue@PAVTask@v8@@V?$deque@PAVTask@v8@@V?$allocator@PAVTask@v8@@@std@@@std@@@std@@U?$less@PAVIsolate@v8@@@4@V?$allocator@U?$pair@QAVIsolate@v8@@V?$queue@PAVTask@v8@@V?$deque@PAVTask@v8@@V?$allocator@PAVTask@v8@@@std@@@std@@@std@@@std@@@4@$0A@@std@@@std@@QAE?AV?$_Tree_iterator@V?$_Tree_val@U?$_Tree_simple_types@U?$pair@QAVIsolate@v8@@V?$queue@PAVTask@v8@@V?$deque@PAVTask@v8@@V?$allocator@PAVTask@v8@@@std@@@std@@@std@@@std@@@std@@@std@@@1@V?$_Tree_const_iterator@V?$_Tree_val@U?$_Tree_simple_types@U?$pair@QAVIsolate@v8@@V?$queue@PAVTask@v8@@V?$deque@PAVTask@v8@@V?$allocator@PAVTask@v8@@@std@@@std@@@std@@@std@@@std@@@std@@@1@ABUpiecewise_construct_t@1@$$QAV?$tuple@ABQAVIsolate@v8@@@1@$$QAV?$tuple@$$$V@1@@Z$0 10035b30 f   v8_libplatform:default-platform.obj
 0001:00034b38       __ehhandler$??$emplace_hint@ABUpiecewise_construct_t@std@@V?$tuple@ABQAVIsolate@v8@@@2@V?$tuple@$$$V@2@@?$_Tree@V?$_Tmap_traits@PAVIsolate@v8@@V?$queue@PAVTask@v8@@V?$deque@PAVTask@v8@@V?$allocator@PAVTask@v8@@@std@@@std@@@std@@U?$less@PAVIsolate@v8@@@4@V?$allocator@U?$pair@QAVIsolate@v8@@V?$queue@PAVTask@v8@@V?$deque@PAVTask@v8@@V?$allocator@PAVTask@v8@@@std@@@std@@@std@@@std@@@4@$0A@@std@@@std@@QAE?AV?$_Tree_iterator@V?$_Tree_val@U?$_Tree_simple_types@U?$pair@QAVIsolate@v8@@V?$queue@PAVTask@v8@@V?$deque@PAVTask@v8@@V?$allocator@PAVTask@v8@@@std@@@std@@@std@@@std@@@std@@@std@@@1@V?$_Tree_const_iterator@V?$_Tree_val@U?$_Tree_simple_types@U?$pair@QAVIsolate@v8@@V?$queue@PAVTask@v8@@V?$deque@PAVTask@v8@@V?$allocator@PAVTask@v8@@@std@@@std@@@std@@@std@@@std@@@std@@@1@ABUpiecewise_construct_t@1@$$QAV?$tuple@ABQAVIsolate@v8@@@1@$$QAV?$tuple@$$$V@1@@Z 10035b38 f   v8_libplatform:default-platform.obj
 0001:00034b60       __unwindfunclet$??0?$_Deque_alloc@$0A@U?$_Deque_base_types@PAVTask@v8@@V?$allocator@PAVTask@v8@@@std@@@std@@@std@@QAE@ABV?$allocator@PAVTask@v8@@@1@@Z$0 10035b60 f   v8_libplatform:default-platform.obj
 0001:00034b68       __ehhandler$??0?$_Deque_alloc@$0A@U?$_Deque_base_types@PAVTask@v8@@V?$allocator@PAVTask@v8@@@std@@@std@@@std@@QAE@ABV?$allocator@PAVTask@v8@@@1@@Z 10035b68 f   v8_libplatform:default-platform.obj
 0001:00034b90       __unwindfunclet$??0?$_Deque_const_iterator@V?$_Deque_val@U?$_Deque_simple_types@PAVTask@v8@@@std@@@std@@@std@@QAE@IPBU_Container_base12@1@@Z$0 10035b90 f   v8_libplatform:default-platform.obj
 0001:00034b98       __ehhandler$??0?$_Deque_const_iterator@V?$_Deque_val@U?$_Deque_simple_types@PAVTask@v8@@@std@@@std@@@std@@QAE@IPBU_Container_base12@1@@Z 10035b98 f   v8_libplatform:default-platform.obj
 0001:00034bc0       __unwindfunclet$??0?$_String_alloc@$0A@U?$_String_base_types@DV?$allocator@D@std@@@std@@@std@@QAE@ABV?$allocator@D@1@@Z$0 10035bc0 f   v8_libplatform:default-platform.obj
 0001:00034bc8       __ehhandler$??0?$_String_alloc@$0A@U?$_String_base_types@DV?$allocator@D@std@@@std@@@std@@QAE@ABV?$allocator@D@1@@Z 10035bc8 f   v8_libplatform:default-platform.obj
 0001:00034bf0       __unwindfunclet$??0?$_Tree_alloc@$0A@U?$_Tree_base_types@U?$pair@QAVIsolate@v8@@V?$queue@PAVTask@v8@@V?$deque@PAVTask@v8@@V?$allocator@PAVTask@v8@@@std@@@std@@@std@@@std@@V?$allocator@U?$pair@QAVIsolate@v8@@V?$queue@PAVTask@v8@@V?$deque@PAVTask@v8@@V?$allocator@PAVTask@v8@@@std@@@std@@@std@@@std@@@2@@std@@@std@@QAE@ABV?$allocator@U?$pair@QAVIsolate@v8@@V?$queue@PAVTask@v8@@V?$deque@PAVTask@v8@@V?$allocator@PAVTask@v8@@@std@@@std@@@std@@@std@@@1@@Z$2 10035bf0 f   v8_libplatform:default-platform.obj
 0001:00034bf8       __ehhandler$??0?$_Tree_alloc@$0A@U?$_Tree_base_types@U?$pair@QAVIsolate@v8@@V?$queue@PAVTask@v8@@V?$deque@PAVTask@v8@@V?$allocator@PAVTask@v8@@@std@@@std@@@std@@@std@@V?$allocator@U?$pair@QAVIsolate@v8@@V?$queue@PAVTask@v8@@V?$deque@PAVTask@v8@@V?$allocator@PAVTask@v8@@@std@@@std@@@std@@@std@@@2@@std@@@std@@QAE@ABV?$allocator@U?$pair@QAVIsolate@v8@@V?$queue@PAVTask@v8@@V?$deque@PAVTask@v8@@V?$allocator@PAVTask@v8@@@std@@@std@@@std@@@std@@@1@@Z 10035bf8 f   v8_libplatform:default-platform.obj
 0001:00034c20       __unwindfunclet$??0?$_Tree_unchecked_const_iterator@V?$_Tree_val@U?$_Tree_simple_types@U?$pair@QAVIsolate@v8@@V?$queue@PAVTask@v8@@V?$deque@PAVTask@v8@@V?$allocator@PAVTask@v8@@@std@@@std@@@std@@@std@@@std@@@std@@U_Iterator_base12@2@@std@@QAE@PAU?$_Tree_node@U?$pair@QAVIsolate@v8@@V?$queue@PAVTask@v8@@V?$deque@PAVTask@v8@@V?$allocator@PAVTask@v8@@@std@@@std@@@std@@@std@@PAX@1@PBV?$_Tree_val@U?$_Tree_simple_types@U?$pair@QAVIsolate@v8@@V?$queue@PAVTask@v8@@V?$deque@PAVTask@v8@@V?$allocator@PAVTask@v8@@@std@@@std@@@std@@@std@@@std@@@1@@Z$0 10035c20 f   v8_libplatform:default-platform.obj
 0001:00034c28       __ehhandler$??0?$_Tree_unchecked_const_iterator@V?$_Tree_val@U?$_Tree_simple_types@U?$pair@QAVIsolate@v8@@V?$queue@PAVTask@v8@@V?$deque@PAVTask@v8@@V?$allocator@PAVTask@v8@@@std@@@std@@@std@@@std@@@std@@@std@@U_Iterator_base12@2@@std@@QAE@PAU?$_Tree_node@U?$pair@QAVIsolate@v8@@V?$queue@PAVTask@v8@@V?$deque@PAVTask@v8@@V?$allocator@PAVTask@v8@@@std@@@std@@@std@@@std@@PAX@1@PBV?$_Tree_val@U?$_Tree_simple_types@U?$pair@QAVIsolate@v8@@V?$queue@PAVTask@v8@@V?$deque@PAVTask@v8@@V?$allocator@PAVTask@v8@@@std@@@std@@@std@@@std@@@std@@@1@@Z 10035c28 f   v8_libplatform:default-platform.obj
 0001:00034c50       __unwindfunclet$??0?$_Vector_alloc@$0A@U?$_Vec_base_types@PAVWorkerThread@platform@v8@@V?$allocator@PAVWorkerThread@platform@v8@@@std@@@std@@@std@@QAE@ABV?$allocator@PAVWorkerThread@platform@v8@@@1@@Z$0 10035c50 f   v8_libplatform:default-platform.obj
 0001:00034c58       __ehhandler$??0?$_Vector_alloc@$0A@U?$_Vec_base_types@PAVWorkerThread@platform@v8@@V?$allocator@PAVWorkerThread@platform@v8@@@std@@@std@@@std@@QAE@ABV?$allocator@PAVWorkerThread@platform@v8@@@1@@Z 10035c58 f   v8_libplatform:default-platform.obj
